
car_bs_controller_f103c8.elf:     file format elf32-littlearm

Sections:
Idx Name          Size      VMA       LMA       File off  Algn
  0 .isr_vector   0000010c  08000000  08000000  00010000  2**0
                  CONTENTS, ALLOC, LOAD, READONLY, DATA
  1 .text         00008900  08000110  08000110  00010110  2**3
                  CONTENTS, ALLOC, LOAD, READONLY, CODE
  2 .rodata       00002330  08008a10  08008a10  00018a10  2**2
                  CONTENTS, ALLOC, LOAD, READONLY, DATA
  3 .ARM.extab    00000000  0800ad40  0800ad40  00020048  2**0
                  CONTENTS
  4 .ARM          00000000  0800ad40  0800ad40  00020048  2**0
                  CONTENTS
  5 .preinit_array 00000000  0800ad40  0800ad40  00020048  2**0
                  CONTENTS, ALLOC, LOAD, DATA
  6 .init_array   00000004  0800ad40  0800ad40  0001ad40  2**2
                  CONTENTS, ALLOC, LOAD, DATA
  7 .fini_array   00000004  0800ad44  0800ad44  0001ad44  2**2
                  CONTENTS, ALLOC, LOAD, DATA
  8 .data         00000048  20000000  0800ad48  00020000  2**2
                  CONTENTS, ALLOC, LOAD, DATA
  9 .bss          00000b34  20000048  0800ad90  00020048  2**2
                  ALLOC
 10 ._user_heap_stack 00000604  20000b7c  0800ad90  00020b7c  2**0
                  ALLOC
 11 .ARM.attributes 00000029  00000000  00000000  00020048  2**0
                  CONTENTS, READONLY
 12 .debug_info   00085fb0  00000000  00000000  00020071  2**0
                  CONTENTS, READONLY, DEBUGGING, OCTETS
 13 .debug_abbrev 00004386  00000000  00000000  000a6021  2**0
                  CONTENTS, READONLY, DEBUGGING, OCTETS
 14 .debug_aranges 00002db8  00000000  00000000  000aa3a8  2**3
                  CONTENTS, READONLY, DEBUGGING, OCTETS
 15 .debug_ranges 00002c38  00000000  00000000  000ad160  2**3
                  CONTENTS, READONLY, DEBUGGING, OCTETS
 16 .debug_macro  000199ed  00000000  00000000  000afd98  2**0
                  CONTENTS, READONLY, DEBUGGING, OCTETS
 17 .debug_line   0001beb7  00000000  00000000  000c9785  2**0
                  CONTENTS, READONLY, DEBUGGING, OCTETS
 18 .debug_str    0009a965  00000000  00000000  000e563c  2**0
                  CONTENTS, READONLY, DEBUGGING, OCTETS
 19 .comment      00000053  00000000  00000000  0017ffa1  2**0
                  CONTENTS, READONLY
 20 .debug_frame  0000c780  00000000  00000000  0017fff4  2**2
                  CONTENTS, READONLY, DEBUGGING, OCTETS

Disassembly of section .text:

08000110 <__do_global_dtors_aux>:
 8000110:	b510      	push	{r4, lr}
 8000112:	4c05      	ldr	r4, [pc, #20]	; (8000128 <__do_global_dtors_aux+0x18>)
 8000114:	7823      	ldrb	r3, [r4, #0]
 8000116:	b933      	cbnz	r3, 8000126 <__do_global_dtors_aux+0x16>
 8000118:	4b04      	ldr	r3, [pc, #16]	; (800012c <__do_global_dtors_aux+0x1c>)
 800011a:	b113      	cbz	r3, 8000122 <__do_global_dtors_aux+0x12>
 800011c:	4804      	ldr	r0, [pc, #16]	; (8000130 <__do_global_dtors_aux+0x20>)
 800011e:	f3af 8000 	nop.w
 8000122:	2301      	movs	r3, #1
 8000124:	7023      	strb	r3, [r4, #0]
 8000126:	bd10      	pop	{r4, pc}
 8000128:	20000048 	.word	0x20000048
 800012c:	00000000 	.word	0x00000000
 8000130:	080089f8 	.word	0x080089f8

08000134 <frame_dummy>:
 8000134:	b508      	push	{r3, lr}
 8000136:	4b03      	ldr	r3, [pc, #12]	; (8000144 <frame_dummy+0x10>)
 8000138:	b11b      	cbz	r3, 8000142 <frame_dummy+0xe>
 800013a:	4903      	ldr	r1, [pc, #12]	; (8000148 <frame_dummy+0x14>)
 800013c:	4803      	ldr	r0, [pc, #12]	; (800014c <frame_dummy+0x18>)
 800013e:	f3af 8000 	nop.w
 8000142:	bd08      	pop	{r3, pc}
 8000144:	00000000 	.word	0x00000000
 8000148:	2000004c 	.word	0x2000004c
 800014c:	080089f8 	.word	0x080089f8

08000150 <strcmp>:
 8000150:	f810 2b01 	ldrb.w	r2, [r0], #1
 8000154:	f811 3b01 	ldrb.w	r3, [r1], #1
 8000158:	2a01      	cmp	r2, #1
 800015a:	bf28      	it	cs
 800015c:	429a      	cmpcs	r2, r3
 800015e:	d0f7      	beq.n	8000150 <strcmp>
 8000160:	1ad0      	subs	r0, r2, r3
 8000162:	4770      	bx	lr

08000164 <__aeabi_dmul>:
 8000164:	b570      	push	{r4, r5, r6, lr}
 8000166:	f04f 0cff 	mov.w	ip, #255	; 0xff
 800016a:	f44c 6ce0 	orr.w	ip, ip, #1792	; 0x700
 800016e:	ea1c 5411 	ands.w	r4, ip, r1, lsr #20
 8000172:	bf1d      	ittte	ne
 8000174:	ea1c 5513 	andsne.w	r5, ip, r3, lsr #20
 8000178:	ea94 0f0c 	teqne	r4, ip
 800017c:	ea95 0f0c 	teqne	r5, ip
 8000180:	f000 f8de 	bleq	8000340 <__aeabi_dmul+0x1dc>
 8000184:	442c      	add	r4, r5
 8000186:	ea81 0603 	eor.w	r6, r1, r3
 800018a:	ea21 514c 	bic.w	r1, r1, ip, lsl #21
 800018e:	ea23 534c 	bic.w	r3, r3, ip, lsl #21
 8000192:	ea50 3501 	orrs.w	r5, r0, r1, lsl #12
 8000196:	bf18      	it	ne
 8000198:	ea52 3503 	orrsne.w	r5, r2, r3, lsl #12
 800019c:	f441 1180 	orr.w	r1, r1, #1048576	; 0x100000
 80001a0:	f443 1380 	orr.w	r3, r3, #1048576	; 0x100000
 80001a4:	d038      	beq.n	8000218 <__aeabi_dmul+0xb4>
 80001a6:	fba0 ce02 	umull	ip, lr, r0, r2
 80001aa:	f04f 0500 	mov.w	r5, #0
 80001ae:	fbe1 e502 	umlal	lr, r5, r1, r2
 80001b2:	f006 4200 	and.w	r2, r6, #2147483648	; 0x80000000
 80001b6:	fbe0 e503 	umlal	lr, r5, r0, r3
 80001ba:	f04f 0600 	mov.w	r6, #0
 80001be:	fbe1 5603 	umlal	r5, r6, r1, r3
 80001c2:	f09c 0f00 	teq	ip, #0
 80001c6:	bf18      	it	ne
 80001c8:	f04e 0e01 	orrne.w	lr, lr, #1
 80001cc:	f1a4 04ff 	sub.w	r4, r4, #255	; 0xff
 80001d0:	f5b6 7f00 	cmp.w	r6, #512	; 0x200
 80001d4:	f564 7440 	sbc.w	r4, r4, #768	; 0x300
 80001d8:	d204      	bcs.n	80001e4 <__aeabi_dmul+0x80>
 80001da:	ea5f 0e4e 	movs.w	lr, lr, lsl #1
 80001de:	416d      	adcs	r5, r5
 80001e0:	eb46 0606 	adc.w	r6, r6, r6
 80001e4:	ea42 21c6 	orr.w	r1, r2, r6, lsl #11
 80001e8:	ea41 5155 	orr.w	r1, r1, r5, lsr #21
 80001ec:	ea4f 20c5 	mov.w	r0, r5, lsl #11
 80001f0:	ea40 505e 	orr.w	r0, r0, lr, lsr #21
 80001f4:	ea4f 2ece 	mov.w	lr, lr, lsl #11
 80001f8:	f1b4 0cfd 	subs.w	ip, r4, #253	; 0xfd
 80001fc:	bf88      	it	hi
 80001fe:	f5bc 6fe0 	cmphi.w	ip, #1792	; 0x700
 8000202:	d81e      	bhi.n	8000242 <__aeabi_dmul+0xde>
 8000204:	f1be 4f00 	cmp.w	lr, #2147483648	; 0x80000000
 8000208:	bf08      	it	eq
 800020a:	ea5f 0e50 	movseq.w	lr, r0, lsr #1
 800020e:	f150 0000 	adcs.w	r0, r0, #0
 8000212:	eb41 5104 	adc.w	r1, r1, r4, lsl #20
 8000216:	bd70      	pop	{r4, r5, r6, pc}
 8000218:	f006 4600 	and.w	r6, r6, #2147483648	; 0x80000000
 800021c:	ea46 0101 	orr.w	r1, r6, r1
 8000220:	ea40 0002 	orr.w	r0, r0, r2
 8000224:	ea81 0103 	eor.w	r1, r1, r3
 8000228:	ebb4 045c 	subs.w	r4, r4, ip, lsr #1
 800022c:	bfc2      	ittt	gt
 800022e:	ebd4 050c 	rsbsgt	r5, r4, ip
 8000232:	ea41 5104 	orrgt.w	r1, r1, r4, lsl #20
 8000236:	bd70      	popgt	{r4, r5, r6, pc}
 8000238:	f441 1180 	orr.w	r1, r1, #1048576	; 0x100000
 800023c:	f04f 0e00 	mov.w	lr, #0
 8000240:	3c01      	subs	r4, #1
 8000242:	f300 80ab 	bgt.w	800039c <__aeabi_dmul+0x238>
 8000246:	f114 0f36 	cmn.w	r4, #54	; 0x36
 800024a:	bfde      	ittt	le
 800024c:	2000      	movle	r0, #0
 800024e:	f001 4100 	andle.w	r1, r1, #2147483648	; 0x80000000
 8000252:	bd70      	pople	{r4, r5, r6, pc}
 8000254:	f1c4 0400 	rsb	r4, r4, #0
 8000258:	3c20      	subs	r4, #32
 800025a:	da35      	bge.n	80002c8 <__aeabi_dmul+0x164>
 800025c:	340c      	adds	r4, #12
 800025e:	dc1b      	bgt.n	8000298 <__aeabi_dmul+0x134>
 8000260:	f104 0414 	add.w	r4, r4, #20
 8000264:	f1c4 0520 	rsb	r5, r4, #32
 8000268:	fa00 f305 	lsl.w	r3, r0, r5
 800026c:	fa20 f004 	lsr.w	r0, r0, r4
 8000270:	fa01 f205 	lsl.w	r2, r1, r5
 8000274:	ea40 0002 	orr.w	r0, r0, r2
 8000278:	f001 4200 	and.w	r2, r1, #2147483648	; 0x80000000
 800027c:	f021 4100 	bic.w	r1, r1, #2147483648	; 0x80000000
 8000280:	eb10 70d3 	adds.w	r0, r0, r3, lsr #31
 8000284:	fa21 f604 	lsr.w	r6, r1, r4
 8000288:	eb42 0106 	adc.w	r1, r2, r6
 800028c:	ea5e 0e43 	orrs.w	lr, lr, r3, lsl #1
 8000290:	bf08      	it	eq
 8000292:	ea20 70d3 	biceq.w	r0, r0, r3, lsr #31
 8000296:	bd70      	pop	{r4, r5, r6, pc}
 8000298:	f1c4 040c 	rsb	r4, r4, #12
 800029c:	f1c4 0520 	rsb	r5, r4, #32
 80002a0:	fa00 f304 	lsl.w	r3, r0, r4
 80002a4:	fa20 f005 	lsr.w	r0, r0, r5
 80002a8:	fa01 f204 	lsl.w	r2, r1, r4
 80002ac:	ea40 0002 	orr.w	r0, r0, r2
 80002b0:	f001 4100 	and.w	r1, r1, #2147483648	; 0x80000000
 80002b4:	eb10 70d3 	adds.w	r0, r0, r3, lsr #31
 80002b8:	f141 0100 	adc.w	r1, r1, #0
 80002bc:	ea5e 0e43 	orrs.w	lr, lr, r3, lsl #1
 80002c0:	bf08      	it	eq
 80002c2:	ea20 70d3 	biceq.w	r0, r0, r3, lsr #31
 80002c6:	bd70      	pop	{r4, r5, r6, pc}
 80002c8:	f1c4 0520 	rsb	r5, r4, #32
 80002cc:	fa00 f205 	lsl.w	r2, r0, r5
 80002d0:	ea4e 0e02 	orr.w	lr, lr, r2
 80002d4:	fa20 f304 	lsr.w	r3, r0, r4
 80002d8:	fa01 f205 	lsl.w	r2, r1, r5
 80002dc:	ea43 0302 	orr.w	r3, r3, r2
 80002e0:	fa21 f004 	lsr.w	r0, r1, r4
 80002e4:	f001 4100 	and.w	r1, r1, #2147483648	; 0x80000000
 80002e8:	fa21 f204 	lsr.w	r2, r1, r4
 80002ec:	ea20 0002 	bic.w	r0, r0, r2
 80002f0:	eb00 70d3 	add.w	r0, r0, r3, lsr #31
 80002f4:	ea5e 0e43 	orrs.w	lr, lr, r3, lsl #1
 80002f8:	bf08      	it	eq
 80002fa:	ea20 70d3 	biceq.w	r0, r0, r3, lsr #31
 80002fe:	bd70      	pop	{r4, r5, r6, pc}
 8000300:	f094 0f00 	teq	r4, #0
 8000304:	d10f      	bne.n	8000326 <__aeabi_dmul+0x1c2>
 8000306:	f001 4600 	and.w	r6, r1, #2147483648	; 0x80000000
 800030a:	0040      	lsls	r0, r0, #1
 800030c:	eb41 0101 	adc.w	r1, r1, r1
 8000310:	f411 1f80 	tst.w	r1, #1048576	; 0x100000
 8000314:	bf08      	it	eq
 8000316:	3c01      	subeq	r4, #1
 8000318:	d0f7      	beq.n	800030a <__aeabi_dmul+0x1a6>
 800031a:	ea41 0106 	orr.w	r1, r1, r6
 800031e:	f095 0f00 	teq	r5, #0
 8000322:	bf18      	it	ne
 8000324:	4770      	bxne	lr
 8000326:	f003 4600 	and.w	r6, r3, #2147483648	; 0x80000000
 800032a:	0052      	lsls	r2, r2, #1
 800032c:	eb43 0303 	adc.w	r3, r3, r3
 8000330:	f413 1f80 	tst.w	r3, #1048576	; 0x100000
 8000334:	bf08      	it	eq
 8000336:	3d01      	subeq	r5, #1
 8000338:	d0f7      	beq.n	800032a <__aeabi_dmul+0x1c6>
 800033a:	ea43 0306 	orr.w	r3, r3, r6
 800033e:	4770      	bx	lr
 8000340:	ea94 0f0c 	teq	r4, ip
 8000344:	ea0c 5513 	and.w	r5, ip, r3, lsr #20
 8000348:	bf18      	it	ne
 800034a:	ea95 0f0c 	teqne	r5, ip
 800034e:	d00c      	beq.n	800036a <__aeabi_dmul+0x206>
 8000350:	ea50 0641 	orrs.w	r6, r0, r1, lsl #1
 8000354:	bf18      	it	ne
 8000356:	ea52 0643 	orrsne.w	r6, r2, r3, lsl #1
 800035a:	d1d1      	bne.n	8000300 <__aeabi_dmul+0x19c>
 800035c:	ea81 0103 	eor.w	r1, r1, r3
 8000360:	f001 4100 	and.w	r1, r1, #2147483648	; 0x80000000
 8000364:	f04f 0000 	mov.w	r0, #0
 8000368:	bd70      	pop	{r4, r5, r6, pc}
 800036a:	ea50 0641 	orrs.w	r6, r0, r1, lsl #1
 800036e:	bf06      	itte	eq
 8000370:	4610      	moveq	r0, r2
 8000372:	4619      	moveq	r1, r3
 8000374:	ea52 0643 	orrsne.w	r6, r2, r3, lsl #1
 8000378:	d019      	beq.n	80003ae <__aeabi_dmul+0x24a>
 800037a:	ea94 0f0c 	teq	r4, ip
 800037e:	d102      	bne.n	8000386 <__aeabi_dmul+0x222>
 8000380:	ea50 3601 	orrs.w	r6, r0, r1, lsl #12
 8000384:	d113      	bne.n	80003ae <__aeabi_dmul+0x24a>
 8000386:	ea95 0f0c 	teq	r5, ip
 800038a:	d105      	bne.n	8000398 <__aeabi_dmul+0x234>
 800038c:	ea52 3603 	orrs.w	r6, r2, r3, lsl #12
 8000390:	bf1c      	itt	ne
 8000392:	4610      	movne	r0, r2
 8000394:	4619      	movne	r1, r3
 8000396:	d10a      	bne.n	80003ae <__aeabi_dmul+0x24a>
 8000398:	ea81 0103 	eor.w	r1, r1, r3
 800039c:	f001 4100 	and.w	r1, r1, #2147483648	; 0x80000000
 80003a0:	f041 41fe 	orr.w	r1, r1, #2130706432	; 0x7f000000
 80003a4:	f441 0170 	orr.w	r1, r1, #15728640	; 0xf00000
 80003a8:	f04f 0000 	mov.w	r0, #0
 80003ac:	bd70      	pop	{r4, r5, r6, pc}
 80003ae:	f041 41fe 	orr.w	r1, r1, #2130706432	; 0x7f000000
 80003b2:	f441 0178 	orr.w	r1, r1, #16252928	; 0xf80000
 80003b6:	bd70      	pop	{r4, r5, r6, pc}

080003b8 <__aeabi_drsub>:
 80003b8:	f081 4100 	eor.w	r1, r1, #2147483648	; 0x80000000
 80003bc:	e002      	b.n	80003c4 <__adddf3>
 80003be:	bf00      	nop

080003c0 <__aeabi_dsub>:
 80003c0:	f083 4300 	eor.w	r3, r3, #2147483648	; 0x80000000

080003c4 <__adddf3>:
 80003c4:	b530      	push	{r4, r5, lr}
 80003c6:	ea4f 0441 	mov.w	r4, r1, lsl #1
 80003ca:	ea4f 0543 	mov.w	r5, r3, lsl #1
 80003ce:	ea94 0f05 	teq	r4, r5
 80003d2:	bf08      	it	eq
 80003d4:	ea90 0f02 	teqeq	r0, r2
 80003d8:	bf1f      	itttt	ne
 80003da:	ea54 0c00 	orrsne.w	ip, r4, r0
 80003de:	ea55 0c02 	orrsne.w	ip, r5, r2
 80003e2:	ea7f 5c64 	mvnsne.w	ip, r4, asr #21
 80003e6:	ea7f 5c65 	mvnsne.w	ip, r5, asr #21
 80003ea:	f000 80e2 	beq.w	80005b2 <__adddf3+0x1ee>
 80003ee:	ea4f 5454 	mov.w	r4, r4, lsr #21
 80003f2:	ebd4 5555 	rsbs	r5, r4, r5, lsr #21
 80003f6:	bfb8      	it	lt
 80003f8:	426d      	neglt	r5, r5
 80003fa:	dd0c      	ble.n	8000416 <__adddf3+0x52>
 80003fc:	442c      	add	r4, r5
 80003fe:	ea80 0202 	eor.w	r2, r0, r2
 8000402:	ea81 0303 	eor.w	r3, r1, r3
 8000406:	ea82 0000 	eor.w	r0, r2, r0
 800040a:	ea83 0101 	eor.w	r1, r3, r1
 800040e:	ea80 0202 	eor.w	r2, r0, r2
 8000412:	ea81 0303 	eor.w	r3, r1, r3
 8000416:	2d36      	cmp	r5, #54	; 0x36
 8000418:	bf88      	it	hi
 800041a:	bd30      	pophi	{r4, r5, pc}
 800041c:	f011 4f00 	tst.w	r1, #2147483648	; 0x80000000
 8000420:	ea4f 3101 	mov.w	r1, r1, lsl #12
 8000424:	f44f 1c80 	mov.w	ip, #1048576	; 0x100000
 8000428:	ea4c 3111 	orr.w	r1, ip, r1, lsr #12
 800042c:	d002      	beq.n	8000434 <__adddf3+0x70>
 800042e:	4240      	negs	r0, r0
 8000430:	eb61 0141 	sbc.w	r1, r1, r1, lsl #1
 8000434:	f013 4f00 	tst.w	r3, #2147483648	; 0x80000000
 8000438:	ea4f 3303 	mov.w	r3, r3, lsl #12
 800043c:	ea4c 3313 	orr.w	r3, ip, r3, lsr #12
 8000440:	d002      	beq.n	8000448 <__adddf3+0x84>
 8000442:	4252      	negs	r2, r2
 8000444:	eb63 0343 	sbc.w	r3, r3, r3, lsl #1
 8000448:	ea94 0f05 	teq	r4, r5
 800044c:	f000 80a7 	beq.w	800059e <__adddf3+0x1da>
 8000450:	f1a4 0401 	sub.w	r4, r4, #1
 8000454:	f1d5 0e20 	rsbs	lr, r5, #32
 8000458:	db0d      	blt.n	8000476 <__adddf3+0xb2>
 800045a:	fa02 fc0e 	lsl.w	ip, r2, lr
 800045e:	fa22 f205 	lsr.w	r2, r2, r5
 8000462:	1880      	adds	r0, r0, r2
 8000464:	f141 0100 	adc.w	r1, r1, #0
 8000468:	fa03 f20e 	lsl.w	r2, r3, lr
 800046c:	1880      	adds	r0, r0, r2
 800046e:	fa43 f305 	asr.w	r3, r3, r5
 8000472:	4159      	adcs	r1, r3
 8000474:	e00e      	b.n	8000494 <__adddf3+0xd0>
 8000476:	f1a5 0520 	sub.w	r5, r5, #32
 800047a:	f10e 0e20 	add.w	lr, lr, #32
 800047e:	2a01      	cmp	r2, #1
 8000480:	fa03 fc0e 	lsl.w	ip, r3, lr
 8000484:	bf28      	it	cs
 8000486:	f04c 0c02 	orrcs.w	ip, ip, #2
 800048a:	fa43 f305 	asr.w	r3, r3, r5
 800048e:	18c0      	adds	r0, r0, r3
 8000490:	eb51 71e3 	adcs.w	r1, r1, r3, asr #31
 8000494:	f001 4500 	and.w	r5, r1, #2147483648	; 0x80000000
 8000498:	d507      	bpl.n	80004aa <__adddf3+0xe6>
 800049a:	f04f 0e00 	mov.w	lr, #0
 800049e:	f1dc 0c00 	rsbs	ip, ip, #0
 80004a2:	eb7e 0000 	sbcs.w	r0, lr, r0
 80004a6:	eb6e 0101 	sbc.w	r1, lr, r1
 80004aa:	f5b1 1f80 	cmp.w	r1, #1048576	; 0x100000
 80004ae:	d31b      	bcc.n	80004e8 <__adddf3+0x124>
 80004b0:	f5b1 1f00 	cmp.w	r1, #2097152	; 0x200000
 80004b4:	d30c      	bcc.n	80004d0 <__adddf3+0x10c>
 80004b6:	0849      	lsrs	r1, r1, #1
 80004b8:	ea5f 0030 	movs.w	r0, r0, rrx
 80004bc:	ea4f 0c3c 	mov.w	ip, ip, rrx
 80004c0:	f104 0401 	add.w	r4, r4, #1
 80004c4:	ea4f 5244 	mov.w	r2, r4, lsl #21
 80004c8:	f512 0f80 	cmn.w	r2, #4194304	; 0x400000
 80004cc:	f080 809a 	bcs.w	8000604 <__adddf3+0x240>
 80004d0:	f1bc 4f00 	cmp.w	ip, #2147483648	; 0x80000000
 80004d4:	bf08      	it	eq
 80004d6:	ea5f 0c50 	movseq.w	ip, r0, lsr #1
 80004da:	f150 0000 	adcs.w	r0, r0, #0
 80004de:	eb41 5104 	adc.w	r1, r1, r4, lsl #20
 80004e2:	ea41 0105 	orr.w	r1, r1, r5
 80004e6:	bd30      	pop	{r4, r5, pc}
 80004e8:	ea5f 0c4c 	movs.w	ip, ip, lsl #1
 80004ec:	4140      	adcs	r0, r0
 80004ee:	eb41 0101 	adc.w	r1, r1, r1
 80004f2:	3c01      	subs	r4, #1
 80004f4:	bf28      	it	cs
 80004f6:	f5b1 1f80 	cmpcs.w	r1, #1048576	; 0x100000
 80004fa:	d2e9      	bcs.n	80004d0 <__adddf3+0x10c>
 80004fc:	f091 0f00 	teq	r1, #0
 8000500:	bf04      	itt	eq
 8000502:	4601      	moveq	r1, r0
 8000504:	2000      	moveq	r0, #0
 8000506:	fab1 f381 	clz	r3, r1
 800050a:	bf08      	it	eq
 800050c:	3320      	addeq	r3, #32
 800050e:	f1a3 030b 	sub.w	r3, r3, #11
 8000512:	f1b3 0220 	subs.w	r2, r3, #32
 8000516:	da0c      	bge.n	8000532 <__adddf3+0x16e>
 8000518:	320c      	adds	r2, #12
 800051a:	dd08      	ble.n	800052e <__adddf3+0x16a>
 800051c:	f102 0c14 	add.w	ip, r2, #20
 8000520:	f1c2 020c 	rsb	r2, r2, #12
 8000524:	fa01 f00c 	lsl.w	r0, r1, ip
 8000528:	fa21 f102 	lsr.w	r1, r1, r2
 800052c:	e00c      	b.n	8000548 <__adddf3+0x184>
 800052e:	f102 0214 	add.w	r2, r2, #20
 8000532:	bfd8      	it	le
 8000534:	f1c2 0c20 	rsble	ip, r2, #32
 8000538:	fa01 f102 	lsl.w	r1, r1, r2
 800053c:	fa20 fc0c 	lsr.w	ip, r0, ip
 8000540:	bfdc      	itt	le
 8000542:	ea41 010c 	orrle.w	r1, r1, ip
 8000546:	4090      	lslle	r0, r2
 8000548:	1ae4      	subs	r4, r4, r3
 800054a:	bfa2      	ittt	ge
 800054c:	eb01 5104 	addge.w	r1, r1, r4, lsl #20
 8000550:	4329      	orrge	r1, r5
 8000552:	bd30      	popge	{r4, r5, pc}
 8000554:	ea6f 0404 	mvn.w	r4, r4
 8000558:	3c1f      	subs	r4, #31
 800055a:	da1c      	bge.n	8000596 <__adddf3+0x1d2>
 800055c:	340c      	adds	r4, #12
 800055e:	dc0e      	bgt.n	800057e <__adddf3+0x1ba>
 8000560:	f104 0414 	add.w	r4, r4, #20
 8000564:	f1c4 0220 	rsb	r2, r4, #32
 8000568:	fa20 f004 	lsr.w	r0, r0, r4
 800056c:	fa01 f302 	lsl.w	r3, r1, r2
 8000570:	ea40 0003 	orr.w	r0, r0, r3
 8000574:	fa21 f304 	lsr.w	r3, r1, r4
 8000578:	ea45 0103 	orr.w	r1, r5, r3
 800057c:	bd30      	pop	{r4, r5, pc}
 800057e:	f1c4 040c 	rsb	r4, r4, #12
 8000582:	f1c4 0220 	rsb	r2, r4, #32
 8000586:	fa20 f002 	lsr.w	r0, r0, r2
 800058a:	fa01 f304 	lsl.w	r3, r1, r4
 800058e:	ea40 0003 	orr.w	r0, r0, r3
 8000592:	4629      	mov	r1, r5
 8000594:	bd30      	pop	{r4, r5, pc}
 8000596:	fa21 f004 	lsr.w	r0, r1, r4
 800059a:	4629      	mov	r1, r5
 800059c:	bd30      	pop	{r4, r5, pc}
 800059e:	f094 0f00 	teq	r4, #0
 80005a2:	f483 1380 	eor.w	r3, r3, #1048576	; 0x100000
 80005a6:	bf06      	itte	eq
 80005a8:	f481 1180 	eoreq.w	r1, r1, #1048576	; 0x100000
 80005ac:	3401      	addeq	r4, #1
 80005ae:	3d01      	subne	r5, #1
 80005b0:	e74e      	b.n	8000450 <__adddf3+0x8c>
 80005b2:	ea7f 5c64 	mvns.w	ip, r4, asr #21
 80005b6:	bf18      	it	ne
 80005b8:	ea7f 5c65 	mvnsne.w	ip, r5, asr #21
 80005bc:	d029      	beq.n	8000612 <__adddf3+0x24e>
 80005be:	ea94 0f05 	teq	r4, r5
 80005c2:	bf08      	it	eq
 80005c4:	ea90 0f02 	teqeq	r0, r2
 80005c8:	d005      	beq.n	80005d6 <__adddf3+0x212>
 80005ca:	ea54 0c00 	orrs.w	ip, r4, r0
 80005ce:	bf04      	itt	eq
 80005d0:	4619      	moveq	r1, r3
 80005d2:	4610      	moveq	r0, r2
 80005d4:	bd30      	pop	{r4, r5, pc}
 80005d6:	ea91 0f03 	teq	r1, r3
 80005da:	bf1e      	ittt	ne
 80005dc:	2100      	movne	r1, #0
 80005de:	2000      	movne	r0, #0
 80005e0:	bd30      	popne	{r4, r5, pc}
 80005e2:	ea5f 5c54 	movs.w	ip, r4, lsr #21
 80005e6:	d105      	bne.n	80005f4 <__adddf3+0x230>
 80005e8:	0040      	lsls	r0, r0, #1
 80005ea:	4149      	adcs	r1, r1
 80005ec:	bf28      	it	cs
 80005ee:	f041 4100 	orrcs.w	r1, r1, #2147483648	; 0x80000000
 80005f2:	bd30      	pop	{r4, r5, pc}
 80005f4:	f514 0480 	adds.w	r4, r4, #4194304	; 0x400000
 80005f8:	bf3c      	itt	cc
 80005fa:	f501 1180 	addcc.w	r1, r1, #1048576	; 0x100000
 80005fe:	bd30      	popcc	{r4, r5, pc}
 8000600:	f001 4500 	and.w	r5, r1, #2147483648	; 0x80000000
 8000604:	f045 41fe 	orr.w	r1, r5, #2130706432	; 0x7f000000
 8000608:	f441 0170 	orr.w	r1, r1, #15728640	; 0xf00000
 800060c:	f04f 0000 	mov.w	r0, #0
 8000610:	bd30      	pop	{r4, r5, pc}
 8000612:	ea7f 5c64 	mvns.w	ip, r4, asr #21
 8000616:	bf1a      	itte	ne
 8000618:	4619      	movne	r1, r3
 800061a:	4610      	movne	r0, r2
 800061c:	ea7f 5c65 	mvnseq.w	ip, r5, asr #21
 8000620:	bf1c      	itt	ne
 8000622:	460b      	movne	r3, r1
 8000624:	4602      	movne	r2, r0
 8000626:	ea50 3401 	orrs.w	r4, r0, r1, lsl #12
 800062a:	bf06      	itte	eq
 800062c:	ea52 3503 	orrseq.w	r5, r2, r3, lsl #12
 8000630:	ea91 0f03 	teqeq	r1, r3
 8000634:	f441 2100 	orrne.w	r1, r1, #524288	; 0x80000
 8000638:	bd30      	pop	{r4, r5, pc}
 800063a:	bf00      	nop

0800063c <__aeabi_ui2d>:
 800063c:	f090 0f00 	teq	r0, #0
 8000640:	bf04      	itt	eq
 8000642:	2100      	moveq	r1, #0
 8000644:	4770      	bxeq	lr
 8000646:	b530      	push	{r4, r5, lr}
 8000648:	f44f 6480 	mov.w	r4, #1024	; 0x400
 800064c:	f104 0432 	add.w	r4, r4, #50	; 0x32
 8000650:	f04f 0500 	mov.w	r5, #0
 8000654:	f04f 0100 	mov.w	r1, #0
 8000658:	e750      	b.n	80004fc <__adddf3+0x138>
 800065a:	bf00      	nop

0800065c <__aeabi_i2d>:
 800065c:	f090 0f00 	teq	r0, #0
 8000660:	bf04      	itt	eq
 8000662:	2100      	moveq	r1, #0
 8000664:	4770      	bxeq	lr
 8000666:	b530      	push	{r4, r5, lr}
 8000668:	f44f 6480 	mov.w	r4, #1024	; 0x400
 800066c:	f104 0432 	add.w	r4, r4, #50	; 0x32
 8000670:	f010 4500 	ands.w	r5, r0, #2147483648	; 0x80000000
 8000674:	bf48      	it	mi
 8000676:	4240      	negmi	r0, r0
 8000678:	f04f 0100 	mov.w	r1, #0
 800067c:	e73e      	b.n	80004fc <__adddf3+0x138>
 800067e:	bf00      	nop

08000680 <__aeabi_f2d>:
 8000680:	0042      	lsls	r2, r0, #1
 8000682:	ea4f 01e2 	mov.w	r1, r2, asr #3
 8000686:	ea4f 0131 	mov.w	r1, r1, rrx
 800068a:	ea4f 7002 	mov.w	r0, r2, lsl #28
 800068e:	bf1f      	itttt	ne
 8000690:	f012 437f 	andsne.w	r3, r2, #4278190080	; 0xff000000
 8000694:	f093 4f7f 	teqne	r3, #4278190080	; 0xff000000
 8000698:	f081 5160 	eorne.w	r1, r1, #939524096	; 0x38000000
 800069c:	4770      	bxne	lr
 800069e:	f032 427f 	bics.w	r2, r2, #4278190080	; 0xff000000
 80006a2:	bf08      	it	eq
 80006a4:	4770      	bxeq	lr
 80006a6:	f093 4f7f 	teq	r3, #4278190080	; 0xff000000
 80006aa:	bf04      	itt	eq
 80006ac:	f441 2100 	orreq.w	r1, r1, #524288	; 0x80000
 80006b0:	4770      	bxeq	lr
 80006b2:	b530      	push	{r4, r5, lr}
 80006b4:	f44f 7460 	mov.w	r4, #896	; 0x380
 80006b8:	f001 4500 	and.w	r5, r1, #2147483648	; 0x80000000
 80006bc:	f021 4100 	bic.w	r1, r1, #2147483648	; 0x80000000
 80006c0:	e71c      	b.n	80004fc <__adddf3+0x138>
 80006c2:	bf00      	nop

080006c4 <__aeabi_ul2d>:
 80006c4:	ea50 0201 	orrs.w	r2, r0, r1
 80006c8:	bf08      	it	eq
 80006ca:	4770      	bxeq	lr
 80006cc:	b530      	push	{r4, r5, lr}
 80006ce:	f04f 0500 	mov.w	r5, #0
 80006d2:	e00a      	b.n	80006ea <__aeabi_l2d+0x16>

080006d4 <__aeabi_l2d>:
 80006d4:	ea50 0201 	orrs.w	r2, r0, r1
 80006d8:	bf08      	it	eq
 80006da:	4770      	bxeq	lr
 80006dc:	b530      	push	{r4, r5, lr}
 80006de:	f011 4500 	ands.w	r5, r1, #2147483648	; 0x80000000
 80006e2:	d502      	bpl.n	80006ea <__aeabi_l2d+0x16>
 80006e4:	4240      	negs	r0, r0
 80006e6:	eb61 0141 	sbc.w	r1, r1, r1, lsl #1
 80006ea:	f44f 6480 	mov.w	r4, #1024	; 0x400
 80006ee:	f104 0432 	add.w	r4, r4, #50	; 0x32
 80006f2:	ea5f 5c91 	movs.w	ip, r1, lsr #22
 80006f6:	f43f aed8 	beq.w	80004aa <__adddf3+0xe6>
 80006fa:	f04f 0203 	mov.w	r2, #3
 80006fe:	ea5f 0cdc 	movs.w	ip, ip, lsr #3
 8000702:	bf18      	it	ne
 8000704:	3203      	addne	r2, #3
 8000706:	ea5f 0cdc 	movs.w	ip, ip, lsr #3
 800070a:	bf18      	it	ne
 800070c:	3203      	addne	r2, #3
 800070e:	eb02 02dc 	add.w	r2, r2, ip, lsr #3
 8000712:	f1c2 0320 	rsb	r3, r2, #32
 8000716:	fa00 fc03 	lsl.w	ip, r0, r3
 800071a:	fa20 f002 	lsr.w	r0, r0, r2
 800071e:	fa01 fe03 	lsl.w	lr, r1, r3
 8000722:	ea40 000e 	orr.w	r0, r0, lr
 8000726:	fa21 f102 	lsr.w	r1, r1, r2
 800072a:	4414      	add	r4, r2
 800072c:	e6bd      	b.n	80004aa <__adddf3+0xe6>
 800072e:	bf00      	nop

08000730 <__gedf2>:
 8000730:	f04f 3cff 	mov.w	ip, #4294967295
 8000734:	e006      	b.n	8000744 <__cmpdf2+0x4>
 8000736:	bf00      	nop

08000738 <__ledf2>:
 8000738:	f04f 0c01 	mov.w	ip, #1
 800073c:	e002      	b.n	8000744 <__cmpdf2+0x4>
 800073e:	bf00      	nop

08000740 <__cmpdf2>:
 8000740:	f04f 0c01 	mov.w	ip, #1
 8000744:	f84d cd04 	str.w	ip, [sp, #-4]!
 8000748:	ea4f 0c41 	mov.w	ip, r1, lsl #1
 800074c:	ea7f 5c6c 	mvns.w	ip, ip, asr #21
 8000750:	ea4f 0c43 	mov.w	ip, r3, lsl #1
 8000754:	bf18      	it	ne
 8000756:	ea7f 5c6c 	mvnsne.w	ip, ip, asr #21
 800075a:	d01b      	beq.n	8000794 <__cmpdf2+0x54>
 800075c:	b001      	add	sp, #4
 800075e:	ea50 0c41 	orrs.w	ip, r0, r1, lsl #1
 8000762:	bf0c      	ite	eq
 8000764:	ea52 0c43 	orrseq.w	ip, r2, r3, lsl #1
 8000768:	ea91 0f03 	teqne	r1, r3
 800076c:	bf02      	ittt	eq
 800076e:	ea90 0f02 	teqeq	r0, r2
 8000772:	2000      	moveq	r0, #0
 8000774:	4770      	bxeq	lr
 8000776:	f110 0f00 	cmn.w	r0, #0
 800077a:	ea91 0f03 	teq	r1, r3
 800077e:	bf58      	it	pl
 8000780:	4299      	cmppl	r1, r3
 8000782:	bf08      	it	eq
 8000784:	4290      	cmpeq	r0, r2
 8000786:	bf2c      	ite	cs
 8000788:	17d8      	asrcs	r0, r3, #31
 800078a:	ea6f 70e3 	mvncc.w	r0, r3, asr #31
 800078e:	f040 0001 	orr.w	r0, r0, #1
 8000792:	4770      	bx	lr
 8000794:	ea4f 0c41 	mov.w	ip, r1, lsl #1
 8000798:	ea7f 5c6c 	mvns.w	ip, ip, asr #21
 800079c:	d102      	bne.n	80007a4 <__cmpdf2+0x64>
 800079e:	ea50 3c01 	orrs.w	ip, r0, r1, lsl #12
 80007a2:	d107      	bne.n	80007b4 <__cmpdf2+0x74>
 80007a4:	ea4f 0c43 	mov.w	ip, r3, lsl #1
 80007a8:	ea7f 5c6c 	mvns.w	ip, ip, asr #21
 80007ac:	d1d6      	bne.n	800075c <__cmpdf2+0x1c>
 80007ae:	ea52 3c03 	orrs.w	ip, r2, r3, lsl #12
 80007b2:	d0d3      	beq.n	800075c <__cmpdf2+0x1c>
 80007b4:	f85d 0b04 	ldr.w	r0, [sp], #4
 80007b8:	4770      	bx	lr
 80007ba:	bf00      	nop

080007bc <__aeabi_cdrcmple>:
 80007bc:	4684      	mov	ip, r0
 80007be:	4610      	mov	r0, r2
 80007c0:	4662      	mov	r2, ip
 80007c2:	468c      	mov	ip, r1
 80007c4:	4619      	mov	r1, r3
 80007c6:	4663      	mov	r3, ip
 80007c8:	e000      	b.n	80007cc <__aeabi_cdcmpeq>
 80007ca:	bf00      	nop

080007cc <__aeabi_cdcmpeq>:
 80007cc:	b501      	push	{r0, lr}
 80007ce:	f7ff ffb7 	bl	8000740 <__cmpdf2>
 80007d2:	2800      	cmp	r0, #0
 80007d4:	bf48      	it	mi
 80007d6:	f110 0f00 	cmnmi.w	r0, #0
 80007da:	bd01      	pop	{r0, pc}

080007dc <__aeabi_dcmpeq>:
 80007dc:	f84d ed08 	str.w	lr, [sp, #-8]!
 80007e0:	f7ff fff4 	bl	80007cc <__aeabi_cdcmpeq>
 80007e4:	bf0c      	ite	eq
 80007e6:	2001      	moveq	r0, #1
 80007e8:	2000      	movne	r0, #0
 80007ea:	f85d fb08 	ldr.w	pc, [sp], #8
 80007ee:	bf00      	nop

080007f0 <__aeabi_dcmplt>:
 80007f0:	f84d ed08 	str.w	lr, [sp, #-8]!
 80007f4:	f7ff ffea 	bl	80007cc <__aeabi_cdcmpeq>
 80007f8:	bf34      	ite	cc
 80007fa:	2001      	movcc	r0, #1
 80007fc:	2000      	movcs	r0, #0
 80007fe:	f85d fb08 	ldr.w	pc, [sp], #8
 8000802:	bf00      	nop

08000804 <__aeabi_dcmple>:
 8000804:	f84d ed08 	str.w	lr, [sp, #-8]!
 8000808:	f7ff ffe0 	bl	80007cc <__aeabi_cdcmpeq>
 800080c:	bf94      	ite	ls
 800080e:	2001      	movls	r0, #1
 8000810:	2000      	movhi	r0, #0
 8000812:	f85d fb08 	ldr.w	pc, [sp], #8
 8000816:	bf00      	nop

08000818 <__aeabi_dcmpge>:
 8000818:	f84d ed08 	str.w	lr, [sp, #-8]!
 800081c:	f7ff ffce 	bl	80007bc <__aeabi_cdrcmple>
 8000820:	bf94      	ite	ls
 8000822:	2001      	movls	r0, #1
 8000824:	2000      	movhi	r0, #0
 8000826:	f85d fb08 	ldr.w	pc, [sp], #8
 800082a:	bf00      	nop

0800082c <__aeabi_dcmpgt>:
 800082c:	f84d ed08 	str.w	lr, [sp, #-8]!
 8000830:	f7ff ffc4 	bl	80007bc <__aeabi_cdrcmple>
 8000834:	bf34      	ite	cc
 8000836:	2001      	movcc	r0, #1
 8000838:	2000      	movcs	r0, #0
 800083a:	f85d fb08 	ldr.w	pc, [sp], #8
 800083e:	bf00      	nop

08000840 <__aeabi_frsub>:
 8000840:	f080 4000 	eor.w	r0, r0, #2147483648	; 0x80000000
 8000844:	e002      	b.n	800084c <__addsf3>
 8000846:	bf00      	nop

08000848 <__aeabi_fsub>:
 8000848:	f081 4100 	eor.w	r1, r1, #2147483648	; 0x80000000

0800084c <__addsf3>:
 800084c:	0042      	lsls	r2, r0, #1
 800084e:	bf1f      	itttt	ne
 8000850:	ea5f 0341 	movsne.w	r3, r1, lsl #1
 8000854:	ea92 0f03 	teqne	r2, r3
 8000858:	ea7f 6c22 	mvnsne.w	ip, r2, asr #24
 800085c:	ea7f 6c23 	mvnsne.w	ip, r3, asr #24
 8000860:	d06a      	beq.n	8000938 <__addsf3+0xec>
 8000862:	ea4f 6212 	mov.w	r2, r2, lsr #24
 8000866:	ebd2 6313 	rsbs	r3, r2, r3, lsr #24
 800086a:	bfc1      	itttt	gt
 800086c:	18d2      	addgt	r2, r2, r3
 800086e:	4041      	eorgt	r1, r0
 8000870:	4048      	eorgt	r0, r1
 8000872:	4041      	eorgt	r1, r0
 8000874:	bfb8      	it	lt
 8000876:	425b      	neglt	r3, r3
 8000878:	2b19      	cmp	r3, #25
 800087a:	bf88      	it	hi
 800087c:	4770      	bxhi	lr
 800087e:	f010 4f00 	tst.w	r0, #2147483648	; 0x80000000
 8000882:	f440 0000 	orr.w	r0, r0, #8388608	; 0x800000
 8000886:	f020 407f 	bic.w	r0, r0, #4278190080	; 0xff000000
 800088a:	bf18      	it	ne
 800088c:	4240      	negne	r0, r0
 800088e:	f011 4f00 	tst.w	r1, #2147483648	; 0x80000000
 8000892:	f441 0100 	orr.w	r1, r1, #8388608	; 0x800000
 8000896:	f021 417f 	bic.w	r1, r1, #4278190080	; 0xff000000
 800089a:	bf18      	it	ne
 800089c:	4249      	negne	r1, r1
 800089e:	ea92 0f03 	teq	r2, r3
 80008a2:	d03f      	beq.n	8000924 <__addsf3+0xd8>
 80008a4:	f1a2 0201 	sub.w	r2, r2, #1
 80008a8:	fa41 fc03 	asr.w	ip, r1, r3
 80008ac:	eb10 000c 	adds.w	r0, r0, ip
 80008b0:	f1c3 0320 	rsb	r3, r3, #32
 80008b4:	fa01 f103 	lsl.w	r1, r1, r3
 80008b8:	f000 4300 	and.w	r3, r0, #2147483648	; 0x80000000
 80008bc:	d502      	bpl.n	80008c4 <__addsf3+0x78>
 80008be:	4249      	negs	r1, r1
 80008c0:	eb60 0040 	sbc.w	r0, r0, r0, lsl #1
 80008c4:	f5b0 0f00 	cmp.w	r0, #8388608	; 0x800000
 80008c8:	d313      	bcc.n	80008f2 <__addsf3+0xa6>
 80008ca:	f1b0 7f80 	cmp.w	r0, #16777216	; 0x1000000
 80008ce:	d306      	bcc.n	80008de <__addsf3+0x92>
 80008d0:	0840      	lsrs	r0, r0, #1
 80008d2:	ea4f 0131 	mov.w	r1, r1, rrx
 80008d6:	f102 0201 	add.w	r2, r2, #1
 80008da:	2afe      	cmp	r2, #254	; 0xfe
 80008dc:	d251      	bcs.n	8000982 <__addsf3+0x136>
 80008de:	f1b1 4f00 	cmp.w	r1, #2147483648	; 0x80000000
 80008e2:	eb40 50c2 	adc.w	r0, r0, r2, lsl #23
 80008e6:	bf08      	it	eq
 80008e8:	f020 0001 	biceq.w	r0, r0, #1
 80008ec:	ea40 0003 	orr.w	r0, r0, r3
 80008f0:	4770      	bx	lr
 80008f2:	0049      	lsls	r1, r1, #1
 80008f4:	eb40 0000 	adc.w	r0, r0, r0
 80008f8:	3a01      	subs	r2, #1
 80008fa:	bf28      	it	cs
 80008fc:	f5b0 0f00 	cmpcs.w	r0, #8388608	; 0x800000
 8000900:	d2ed      	bcs.n	80008de <__addsf3+0x92>
 8000902:	fab0 fc80 	clz	ip, r0
 8000906:	f1ac 0c08 	sub.w	ip, ip, #8
 800090a:	ebb2 020c 	subs.w	r2, r2, ip
 800090e:	fa00 f00c 	lsl.w	r0, r0, ip
 8000912:	bfaa      	itet	ge
 8000914:	eb00 50c2 	addge.w	r0, r0, r2, lsl #23
 8000918:	4252      	neglt	r2, r2
 800091a:	4318      	orrge	r0, r3
 800091c:	bfbc      	itt	lt
 800091e:	40d0      	lsrlt	r0, r2
 8000920:	4318      	orrlt	r0, r3
 8000922:	4770      	bx	lr
 8000924:	f092 0f00 	teq	r2, #0
 8000928:	f481 0100 	eor.w	r1, r1, #8388608	; 0x800000
 800092c:	bf06      	itte	eq
 800092e:	f480 0000 	eoreq.w	r0, r0, #8388608	; 0x800000
 8000932:	3201      	addeq	r2, #1
 8000934:	3b01      	subne	r3, #1
 8000936:	e7b5      	b.n	80008a4 <__addsf3+0x58>
 8000938:	ea4f 0341 	mov.w	r3, r1, lsl #1
 800093c:	ea7f 6c22 	mvns.w	ip, r2, asr #24
 8000940:	bf18      	it	ne
 8000942:	ea7f 6c23 	mvnsne.w	ip, r3, asr #24
 8000946:	d021      	beq.n	800098c <__addsf3+0x140>
 8000948:	ea92 0f03 	teq	r2, r3
 800094c:	d004      	beq.n	8000958 <__addsf3+0x10c>
 800094e:	f092 0f00 	teq	r2, #0
 8000952:	bf08      	it	eq
 8000954:	4608      	moveq	r0, r1
 8000956:	4770      	bx	lr
 8000958:	ea90 0f01 	teq	r0, r1
 800095c:	bf1c      	itt	ne
 800095e:	2000      	movne	r0, #0
 8000960:	4770      	bxne	lr
 8000962:	f012 4f7f 	tst.w	r2, #4278190080	; 0xff000000
 8000966:	d104      	bne.n	8000972 <__addsf3+0x126>
 8000968:	0040      	lsls	r0, r0, #1
 800096a:	bf28      	it	cs
 800096c:	f040 4000 	orrcs.w	r0, r0, #2147483648	; 0x80000000
 8000970:	4770      	bx	lr
 8000972:	f112 7200 	adds.w	r2, r2, #33554432	; 0x2000000
 8000976:	bf3c      	itt	cc
 8000978:	f500 0000 	addcc.w	r0, r0, #8388608	; 0x800000
 800097c:	4770      	bxcc	lr
 800097e:	f000 4300 	and.w	r3, r0, #2147483648	; 0x80000000
 8000982:	f043 40fe 	orr.w	r0, r3, #2130706432	; 0x7f000000
 8000986:	f440 0000 	orr.w	r0, r0, #8388608	; 0x800000
 800098a:	4770      	bx	lr
 800098c:	ea7f 6222 	mvns.w	r2, r2, asr #24
 8000990:	bf16      	itet	ne
 8000992:	4608      	movne	r0, r1
 8000994:	ea7f 6323 	mvnseq.w	r3, r3, asr #24
 8000998:	4601      	movne	r1, r0
 800099a:	0242      	lsls	r2, r0, #9
 800099c:	bf06      	itte	eq
 800099e:	ea5f 2341 	movseq.w	r3, r1, lsl #9
 80009a2:	ea90 0f01 	teqeq	r0, r1
 80009a6:	f440 0080 	orrne.w	r0, r0, #4194304	; 0x400000
 80009aa:	4770      	bx	lr

080009ac <__aeabi_ui2f>:
 80009ac:	f04f 0300 	mov.w	r3, #0
 80009b0:	e004      	b.n	80009bc <__aeabi_i2f+0x8>
 80009b2:	bf00      	nop

080009b4 <__aeabi_i2f>:
 80009b4:	f010 4300 	ands.w	r3, r0, #2147483648	; 0x80000000
 80009b8:	bf48      	it	mi
 80009ba:	4240      	negmi	r0, r0
 80009bc:	ea5f 0c00 	movs.w	ip, r0
 80009c0:	bf08      	it	eq
 80009c2:	4770      	bxeq	lr
 80009c4:	f043 4396 	orr.w	r3, r3, #1258291200	; 0x4b000000
 80009c8:	4601      	mov	r1, r0
 80009ca:	f04f 0000 	mov.w	r0, #0
 80009ce:	e01c      	b.n	8000a0a <__aeabi_l2f+0x2a>

080009d0 <__aeabi_ul2f>:
 80009d0:	ea50 0201 	orrs.w	r2, r0, r1
 80009d4:	bf08      	it	eq
 80009d6:	4770      	bxeq	lr
 80009d8:	f04f 0300 	mov.w	r3, #0
 80009dc:	e00a      	b.n	80009f4 <__aeabi_l2f+0x14>
 80009de:	bf00      	nop

080009e0 <__aeabi_l2f>:
 80009e0:	ea50 0201 	orrs.w	r2, r0, r1
 80009e4:	bf08      	it	eq
 80009e6:	4770      	bxeq	lr
 80009e8:	f011 4300 	ands.w	r3, r1, #2147483648	; 0x80000000
 80009ec:	d502      	bpl.n	80009f4 <__aeabi_l2f+0x14>
 80009ee:	4240      	negs	r0, r0
 80009f0:	eb61 0141 	sbc.w	r1, r1, r1, lsl #1
 80009f4:	ea5f 0c01 	movs.w	ip, r1
 80009f8:	bf02      	ittt	eq
 80009fa:	4684      	moveq	ip, r0
 80009fc:	4601      	moveq	r1, r0
 80009fe:	2000      	moveq	r0, #0
 8000a00:	f043 43b6 	orr.w	r3, r3, #1526726656	; 0x5b000000
 8000a04:	bf08      	it	eq
 8000a06:	f1a3 5380 	subeq.w	r3, r3, #268435456	; 0x10000000
 8000a0a:	f5a3 0300 	sub.w	r3, r3, #8388608	; 0x800000
 8000a0e:	fabc f28c 	clz	r2, ip
 8000a12:	3a08      	subs	r2, #8
 8000a14:	eba3 53c2 	sub.w	r3, r3, r2, lsl #23
 8000a18:	db10      	blt.n	8000a3c <__aeabi_l2f+0x5c>
 8000a1a:	fa01 fc02 	lsl.w	ip, r1, r2
 8000a1e:	4463      	add	r3, ip
 8000a20:	fa00 fc02 	lsl.w	ip, r0, r2
 8000a24:	f1c2 0220 	rsb	r2, r2, #32
 8000a28:	f1bc 4f00 	cmp.w	ip, #2147483648	; 0x80000000
 8000a2c:	fa20 f202 	lsr.w	r2, r0, r2
 8000a30:	eb43 0002 	adc.w	r0, r3, r2
 8000a34:	bf08      	it	eq
 8000a36:	f020 0001 	biceq.w	r0, r0, #1
 8000a3a:	4770      	bx	lr
 8000a3c:	f102 0220 	add.w	r2, r2, #32
 8000a40:	fa01 fc02 	lsl.w	ip, r1, r2
 8000a44:	f1c2 0220 	rsb	r2, r2, #32
 8000a48:	ea50 004c 	orrs.w	r0, r0, ip, lsl #1
 8000a4c:	fa21 f202 	lsr.w	r2, r1, r2
 8000a50:	eb43 0002 	adc.w	r0, r3, r2
 8000a54:	bf08      	it	eq
 8000a56:	ea20 70dc 	biceq.w	r0, r0, ip, lsr #31
 8000a5a:	4770      	bx	lr

08000a5c <__aeabi_fmul>:
 8000a5c:	f04f 0cff 	mov.w	ip, #255	; 0xff
 8000a60:	ea1c 52d0 	ands.w	r2, ip, r0, lsr #23
 8000a64:	bf1e      	ittt	ne
 8000a66:	ea1c 53d1 	andsne.w	r3, ip, r1, lsr #23
 8000a6a:	ea92 0f0c 	teqne	r2, ip
 8000a6e:	ea93 0f0c 	teqne	r3, ip
 8000a72:	d06f      	beq.n	8000b54 <__aeabi_fmul+0xf8>
 8000a74:	441a      	add	r2, r3
 8000a76:	ea80 0c01 	eor.w	ip, r0, r1
 8000a7a:	0240      	lsls	r0, r0, #9
 8000a7c:	bf18      	it	ne
 8000a7e:	ea5f 2141 	movsne.w	r1, r1, lsl #9
 8000a82:	d01e      	beq.n	8000ac2 <__aeabi_fmul+0x66>
 8000a84:	f04f 6300 	mov.w	r3, #134217728	; 0x8000000
 8000a88:	ea43 1050 	orr.w	r0, r3, r0, lsr #5
 8000a8c:	ea43 1151 	orr.w	r1, r3, r1, lsr #5
 8000a90:	fba0 3101 	umull	r3, r1, r0, r1
 8000a94:	f00c 4000 	and.w	r0, ip, #2147483648	; 0x80000000
 8000a98:	f5b1 0f00 	cmp.w	r1, #8388608	; 0x800000
 8000a9c:	bf3e      	ittt	cc
 8000a9e:	0049      	lslcc	r1, r1, #1
 8000aa0:	ea41 71d3 	orrcc.w	r1, r1, r3, lsr #31
 8000aa4:	005b      	lslcc	r3, r3, #1
 8000aa6:	ea40 0001 	orr.w	r0, r0, r1
 8000aaa:	f162 027f 	sbc.w	r2, r2, #127	; 0x7f
 8000aae:	2afd      	cmp	r2, #253	; 0xfd
 8000ab0:	d81d      	bhi.n	8000aee <__aeabi_fmul+0x92>
 8000ab2:	f1b3 4f00 	cmp.w	r3, #2147483648	; 0x80000000
 8000ab6:	eb40 50c2 	adc.w	r0, r0, r2, lsl #23
 8000aba:	bf08      	it	eq
 8000abc:	f020 0001 	biceq.w	r0, r0, #1
 8000ac0:	4770      	bx	lr
 8000ac2:	f090 0f00 	teq	r0, #0
 8000ac6:	f00c 4c00 	and.w	ip, ip, #2147483648	; 0x80000000
 8000aca:	bf08      	it	eq
 8000acc:	0249      	lsleq	r1, r1, #9
 8000ace:	ea4c 2050 	orr.w	r0, ip, r0, lsr #9
 8000ad2:	ea40 2051 	orr.w	r0, r0, r1, lsr #9
 8000ad6:	3a7f      	subs	r2, #127	; 0x7f
 8000ad8:	bfc2      	ittt	gt
 8000ada:	f1d2 03ff 	rsbsgt	r3, r2, #255	; 0xff
 8000ade:	ea40 50c2 	orrgt.w	r0, r0, r2, lsl #23
 8000ae2:	4770      	bxgt	lr
 8000ae4:	f440 0000 	orr.w	r0, r0, #8388608	; 0x800000
 8000ae8:	f04f 0300 	mov.w	r3, #0
 8000aec:	3a01      	subs	r2, #1
 8000aee:	dc5d      	bgt.n	8000bac <__aeabi_fmul+0x150>
 8000af0:	f112 0f19 	cmn.w	r2, #25
 8000af4:	bfdc      	itt	le
 8000af6:	f000 4000 	andle.w	r0, r0, #2147483648	; 0x80000000
 8000afa:	4770      	bxle	lr
 8000afc:	f1c2 0200 	rsb	r2, r2, #0
 8000b00:	0041      	lsls	r1, r0, #1
 8000b02:	fa21 f102 	lsr.w	r1, r1, r2
 8000b06:	f1c2 0220 	rsb	r2, r2, #32
 8000b0a:	fa00 fc02 	lsl.w	ip, r0, r2
 8000b0e:	ea5f 0031 	movs.w	r0, r1, rrx
 8000b12:	f140 0000 	adc.w	r0, r0, #0
 8000b16:	ea53 034c 	orrs.w	r3, r3, ip, lsl #1
 8000b1a:	bf08      	it	eq
 8000b1c:	ea20 70dc 	biceq.w	r0, r0, ip, lsr #31
 8000b20:	4770      	bx	lr
 8000b22:	f092 0f00 	teq	r2, #0
 8000b26:	f000 4c00 	and.w	ip, r0, #2147483648	; 0x80000000
 8000b2a:	bf02      	ittt	eq
 8000b2c:	0040      	lsleq	r0, r0, #1
 8000b2e:	f410 0f00 	tsteq.w	r0, #8388608	; 0x800000
 8000b32:	3a01      	subeq	r2, #1
 8000b34:	d0f9      	beq.n	8000b2a <__aeabi_fmul+0xce>
 8000b36:	ea40 000c 	orr.w	r0, r0, ip
 8000b3a:	f093 0f00 	teq	r3, #0
 8000b3e:	f001 4c00 	and.w	ip, r1, #2147483648	; 0x80000000
 8000b42:	bf02      	ittt	eq
 8000b44:	0049      	lsleq	r1, r1, #1
 8000b46:	f411 0f00 	tsteq.w	r1, #8388608	; 0x800000
 8000b4a:	3b01      	subeq	r3, #1
 8000b4c:	d0f9      	beq.n	8000b42 <__aeabi_fmul+0xe6>
 8000b4e:	ea41 010c 	orr.w	r1, r1, ip
 8000b52:	e78f      	b.n	8000a74 <__aeabi_fmul+0x18>
 8000b54:	ea0c 53d1 	and.w	r3, ip, r1, lsr #23
 8000b58:	ea92 0f0c 	teq	r2, ip
 8000b5c:	bf18      	it	ne
 8000b5e:	ea93 0f0c 	teqne	r3, ip
 8000b62:	d00a      	beq.n	8000b7a <__aeabi_fmul+0x11e>
 8000b64:	f030 4c00 	bics.w	ip, r0, #2147483648	; 0x80000000
 8000b68:	bf18      	it	ne
 8000b6a:	f031 4c00 	bicsne.w	ip, r1, #2147483648	; 0x80000000
 8000b6e:	d1d8      	bne.n	8000b22 <__aeabi_fmul+0xc6>
 8000b70:	ea80 0001 	eor.w	r0, r0, r1
 8000b74:	f000 4000 	and.w	r0, r0, #2147483648	; 0x80000000
 8000b78:	4770      	bx	lr
 8000b7a:	f090 0f00 	teq	r0, #0
 8000b7e:	bf17      	itett	ne
 8000b80:	f090 4f00 	teqne	r0, #2147483648	; 0x80000000
 8000b84:	4608      	moveq	r0, r1
 8000b86:	f091 0f00 	teqne	r1, #0
 8000b8a:	f091 4f00 	teqne	r1, #2147483648	; 0x80000000
 8000b8e:	d014      	beq.n	8000bba <__aeabi_fmul+0x15e>
 8000b90:	ea92 0f0c 	teq	r2, ip
 8000b94:	d101      	bne.n	8000b9a <__aeabi_fmul+0x13e>
 8000b96:	0242      	lsls	r2, r0, #9
 8000b98:	d10f      	bne.n	8000bba <__aeabi_fmul+0x15e>
 8000b9a:	ea93 0f0c 	teq	r3, ip
 8000b9e:	d103      	bne.n	8000ba8 <__aeabi_fmul+0x14c>
 8000ba0:	024b      	lsls	r3, r1, #9
 8000ba2:	bf18      	it	ne
 8000ba4:	4608      	movne	r0, r1
 8000ba6:	d108      	bne.n	8000bba <__aeabi_fmul+0x15e>
 8000ba8:	ea80 0001 	eor.w	r0, r0, r1
 8000bac:	f000 4000 	and.w	r0, r0, #2147483648	; 0x80000000
 8000bb0:	f040 40fe 	orr.w	r0, r0, #2130706432	; 0x7f000000
 8000bb4:	f440 0000 	orr.w	r0, r0, #8388608	; 0x800000
 8000bb8:	4770      	bx	lr
 8000bba:	f040 40fe 	orr.w	r0, r0, #2130706432	; 0x7f000000
 8000bbe:	f440 0040 	orr.w	r0, r0, #12582912	; 0xc00000
 8000bc2:	4770      	bx	lr

08000bc4 <__aeabi_fdiv>:
 8000bc4:	f04f 0cff 	mov.w	ip, #255	; 0xff
 8000bc8:	ea1c 52d0 	ands.w	r2, ip, r0, lsr #23
 8000bcc:	bf1e      	ittt	ne
 8000bce:	ea1c 53d1 	andsne.w	r3, ip, r1, lsr #23
 8000bd2:	ea92 0f0c 	teqne	r2, ip
 8000bd6:	ea93 0f0c 	teqne	r3, ip
 8000bda:	d069      	beq.n	8000cb0 <__aeabi_fdiv+0xec>
 8000bdc:	eba2 0203 	sub.w	r2, r2, r3
 8000be0:	ea80 0c01 	eor.w	ip, r0, r1
 8000be4:	0249      	lsls	r1, r1, #9
 8000be6:	ea4f 2040 	mov.w	r0, r0, lsl #9
 8000bea:	d037      	beq.n	8000c5c <__aeabi_fdiv+0x98>
 8000bec:	f04f 5380 	mov.w	r3, #268435456	; 0x10000000
 8000bf0:	ea43 1111 	orr.w	r1, r3, r1, lsr #4
 8000bf4:	ea43 1310 	orr.w	r3, r3, r0, lsr #4
 8000bf8:	f00c 4000 	and.w	r0, ip, #2147483648	; 0x80000000
 8000bfc:	428b      	cmp	r3, r1
 8000bfe:	bf38      	it	cc
 8000c00:	005b      	lslcc	r3, r3, #1
 8000c02:	f142 027d 	adc.w	r2, r2, #125	; 0x7d
 8000c06:	f44f 0c00 	mov.w	ip, #8388608	; 0x800000
 8000c0a:	428b      	cmp	r3, r1
 8000c0c:	bf24      	itt	cs
 8000c0e:	1a5b      	subcs	r3, r3, r1
 8000c10:	ea40 000c 	orrcs.w	r0, r0, ip
 8000c14:	ebb3 0f51 	cmp.w	r3, r1, lsr #1
 8000c18:	bf24      	itt	cs
 8000c1a:	eba3 0351 	subcs.w	r3, r3, r1, lsr #1
 8000c1e:	ea40 005c 	orrcs.w	r0, r0, ip, lsr #1
 8000c22:	ebb3 0f91 	cmp.w	r3, r1, lsr #2
 8000c26:	bf24      	itt	cs
 8000c28:	eba3 0391 	subcs.w	r3, r3, r1, lsr #2
 8000c2c:	ea40 009c 	orrcs.w	r0, r0, ip, lsr #2
 8000c30:	ebb3 0fd1 	cmp.w	r3, r1, lsr #3
 8000c34:	bf24      	itt	cs
 8000c36:	eba3 03d1 	subcs.w	r3, r3, r1, lsr #3
 8000c3a:	ea40 00dc 	orrcs.w	r0, r0, ip, lsr #3
 8000c3e:	011b      	lsls	r3, r3, #4
 8000c40:	bf18      	it	ne
 8000c42:	ea5f 1c1c 	movsne.w	ip, ip, lsr #4
 8000c46:	d1e0      	bne.n	8000c0a <__aeabi_fdiv+0x46>
 8000c48:	2afd      	cmp	r2, #253	; 0xfd
 8000c4a:	f63f af50 	bhi.w	8000aee <__aeabi_fmul+0x92>
 8000c4e:	428b      	cmp	r3, r1
 8000c50:	eb40 50c2 	adc.w	r0, r0, r2, lsl #23
 8000c54:	bf08      	it	eq
 8000c56:	f020 0001 	biceq.w	r0, r0, #1
 8000c5a:	4770      	bx	lr
 8000c5c:	f00c 4c00 	and.w	ip, ip, #2147483648	; 0x80000000
 8000c60:	ea4c 2050 	orr.w	r0, ip, r0, lsr #9
 8000c64:	327f      	adds	r2, #127	; 0x7f
 8000c66:	bfc2      	ittt	gt
 8000c68:	f1d2 03ff 	rsbsgt	r3, r2, #255	; 0xff
 8000c6c:	ea40 50c2 	orrgt.w	r0, r0, r2, lsl #23
 8000c70:	4770      	bxgt	lr
 8000c72:	f440 0000 	orr.w	r0, r0, #8388608	; 0x800000
 8000c76:	f04f 0300 	mov.w	r3, #0
 8000c7a:	3a01      	subs	r2, #1
 8000c7c:	e737      	b.n	8000aee <__aeabi_fmul+0x92>
 8000c7e:	f092 0f00 	teq	r2, #0
 8000c82:	f000 4c00 	and.w	ip, r0, #2147483648	; 0x80000000
 8000c86:	bf02      	ittt	eq
 8000c88:	0040      	lsleq	r0, r0, #1
 8000c8a:	f410 0f00 	tsteq.w	r0, #8388608	; 0x800000
 8000c8e:	3a01      	subeq	r2, #1
 8000c90:	d0f9      	beq.n	8000c86 <__aeabi_fdiv+0xc2>
 8000c92:	ea40 000c 	orr.w	r0, r0, ip
 8000c96:	f093 0f00 	teq	r3, #0
 8000c9a:	f001 4c00 	and.w	ip, r1, #2147483648	; 0x80000000
 8000c9e:	bf02      	ittt	eq
 8000ca0:	0049      	lsleq	r1, r1, #1
 8000ca2:	f411 0f00 	tsteq.w	r1, #8388608	; 0x800000
 8000ca6:	3b01      	subeq	r3, #1
 8000ca8:	d0f9      	beq.n	8000c9e <__aeabi_fdiv+0xda>
 8000caa:	ea41 010c 	orr.w	r1, r1, ip
 8000cae:	e795      	b.n	8000bdc <__aeabi_fdiv+0x18>
 8000cb0:	ea0c 53d1 	and.w	r3, ip, r1, lsr #23
 8000cb4:	ea92 0f0c 	teq	r2, ip
 8000cb8:	d108      	bne.n	8000ccc <__aeabi_fdiv+0x108>
 8000cba:	0242      	lsls	r2, r0, #9
 8000cbc:	f47f af7d 	bne.w	8000bba <__aeabi_fmul+0x15e>
 8000cc0:	ea93 0f0c 	teq	r3, ip
 8000cc4:	f47f af70 	bne.w	8000ba8 <__aeabi_fmul+0x14c>
 8000cc8:	4608      	mov	r0, r1
 8000cca:	e776      	b.n	8000bba <__aeabi_fmul+0x15e>
 8000ccc:	ea93 0f0c 	teq	r3, ip
 8000cd0:	d104      	bne.n	8000cdc <__aeabi_fdiv+0x118>
 8000cd2:	024b      	lsls	r3, r1, #9
 8000cd4:	f43f af4c 	beq.w	8000b70 <__aeabi_fmul+0x114>
 8000cd8:	4608      	mov	r0, r1
 8000cda:	e76e      	b.n	8000bba <__aeabi_fmul+0x15e>
 8000cdc:	f030 4c00 	bics.w	ip, r0, #2147483648	; 0x80000000
 8000ce0:	bf18      	it	ne
 8000ce2:	f031 4c00 	bicsne.w	ip, r1, #2147483648	; 0x80000000
 8000ce6:	d1ca      	bne.n	8000c7e <__aeabi_fdiv+0xba>
 8000ce8:	f030 4200 	bics.w	r2, r0, #2147483648	; 0x80000000
 8000cec:	f47f af5c 	bne.w	8000ba8 <__aeabi_fmul+0x14c>
 8000cf0:	f031 4300 	bics.w	r3, r1, #2147483648	; 0x80000000
 8000cf4:	f47f af3c 	bne.w	8000b70 <__aeabi_fmul+0x114>
 8000cf8:	e75f      	b.n	8000bba <__aeabi_fmul+0x15e>
 8000cfa:	bf00      	nop

08000cfc <__aeabi_f2iz>:
 8000cfc:	ea4f 0240 	mov.w	r2, r0, lsl #1
 8000d00:	f1b2 4ffe 	cmp.w	r2, #2130706432	; 0x7f000000
 8000d04:	d30f      	bcc.n	8000d26 <__aeabi_f2iz+0x2a>
 8000d06:	f04f 039e 	mov.w	r3, #158	; 0x9e
 8000d0a:	ebb3 6212 	subs.w	r2, r3, r2, lsr #24
 8000d0e:	d90d      	bls.n	8000d2c <__aeabi_f2iz+0x30>
 8000d10:	ea4f 2300 	mov.w	r3, r0, lsl #8
 8000d14:	f043 4300 	orr.w	r3, r3, #2147483648	; 0x80000000
 8000d18:	f010 4f00 	tst.w	r0, #2147483648	; 0x80000000
 8000d1c:	fa23 f002 	lsr.w	r0, r3, r2
 8000d20:	bf18      	it	ne
 8000d22:	4240      	negne	r0, r0
 8000d24:	4770      	bx	lr
 8000d26:	f04f 0000 	mov.w	r0, #0
 8000d2a:	4770      	bx	lr
 8000d2c:	f112 0f61 	cmn.w	r2, #97	; 0x61
 8000d30:	d101      	bne.n	8000d36 <__aeabi_f2iz+0x3a>
 8000d32:	0242      	lsls	r2, r0, #9
 8000d34:	d105      	bne.n	8000d42 <__aeabi_f2iz+0x46>
 8000d36:	f010 4000 	ands.w	r0, r0, #2147483648	; 0x80000000
 8000d3a:	bf08      	it	eq
 8000d3c:	f06f 4000 	mvneq.w	r0, #2147483648	; 0x80000000
 8000d40:	4770      	bx	lr
 8000d42:	f04f 0000 	mov.w	r0, #0
 8000d46:	4770      	bx	lr

08000d48 <USART_ReceiveData>:


char *crcOK;

uint16_t USART_ReceiveData(USART_TypeDef* USARTx)
{
 8000d48:	b480      	push	{r7}
 8000d4a:	b083      	sub	sp, #12
 8000d4c:	af00      	add	r7, sp, #0
 8000d4e:	6078      	str	r0, [r7, #4]
  /* Check the parameters */
  assert_param(IS_USART_ALL_PERIPH(USARTx));

  /* Receive Data */
  return (uint16_t)(USARTx->DR & (uint16_t)0x01FF);
 8000d50:	687b      	ldr	r3, [r7, #4]
 8000d52:	685b      	ldr	r3, [r3, #4]
 8000d54:	b29b      	uxth	r3, r3
 8000d56:	f3c3 0308 	ubfx	r3, r3, #0, #9
 8000d5a:	b29b      	uxth	r3, r3
}
 8000d5c:	4618      	mov	r0, r3
 8000d5e:	370c      	adds	r7, #12
 8000d60:	46bd      	mov	sp, r7
 8000d62:	bc80      	pop	{r7}
 8000d64:	4770      	bx	lr

08000d66 <USART_SendData>:

void USART_SendData(USART_TypeDef* USARTx, uint16_t Data)
{
 8000d66:	b480      	push	{r7}
 8000d68:	b083      	sub	sp, #12
 8000d6a:	af00      	add	r7, sp, #0
 8000d6c:	6078      	str	r0, [r7, #4]
 8000d6e:	460b      	mov	r3, r1
 8000d70:	807b      	strh	r3, [r7, #2]
  /* Check the parameters */
  assert_param(IS_USART_ALL_PERIPH(USARTx));
  assert_param(IS_USART_DATA(Data));

  /* Transmit Data */
  USARTx->DR = (Data & (uint16_t)0x01FF);
 8000d72:	887b      	ldrh	r3, [r7, #2]
 8000d74:	f3c3 0208 	ubfx	r2, r3, #0, #9
 8000d78:	687b      	ldr	r3, [r7, #4]
 8000d7a:	605a      	str	r2, [r3, #4]
}
 8000d7c:	bf00      	nop
 8000d7e:	370c      	adds	r7, #12
 8000d80:	46bd      	mov	sp, r7
 8000d82:	bc80      	pop	{r7}
 8000d84:	4770      	bx	lr
	...

08000d88 <usart_setup>:


uint8_t getUsartIndex(void);

void usart_setup(uint32_t baud) {
 8000d88:	b580      	push	{r7, lr}
 8000d8a:	b082      	sub	sp, #8
 8000d8c:	af00      	add	r7, sp, #0
 8000d8e:	6078      	str	r0, [r7, #4]

	ow_uart.Instance = OW_USART;
 8000d90:	4b15      	ldr	r3, [pc, #84]	; (8000de8 <usart_setup+0x60>)
 8000d92:	4a16      	ldr	r2, [pc, #88]	; (8000dec <usart_setup+0x64>)
 8000d94:	601a      	str	r2, [r3, #0]
	ow_uart.Init.BaudRate = baud;
 8000d96:	4a14      	ldr	r2, [pc, #80]	; (8000de8 <usart_setup+0x60>)
 8000d98:	687b      	ldr	r3, [r7, #4]
 8000d9a:	6053      	str	r3, [r2, #4]
	ow_uart.Init.WordLength = UART_WORDLENGTH_8B;
 8000d9c:	4b12      	ldr	r3, [pc, #72]	; (8000de8 <usart_setup+0x60>)
 8000d9e:	2200      	movs	r2, #0
 8000da0:	609a      	str	r2, [r3, #8]
	ow_uart.Init.StopBits = UART_STOPBITS_1;
 8000da2:	4b11      	ldr	r3, [pc, #68]	; (8000de8 <usart_setup+0x60>)
 8000da4:	2200      	movs	r2, #0
 8000da6:	60da      	str	r2, [r3, #12]
	ow_uart.Init.Parity = UART_PARITY_NONE;
 8000da8:	4b0f      	ldr	r3, [pc, #60]	; (8000de8 <usart_setup+0x60>)
 8000daa:	2200      	movs	r2, #0
 8000dac:	611a      	str	r2, [r3, #16]
	ow_uart.Init.Mode = UART_MODE_TX_RX;
 8000dae:	4b0e      	ldr	r3, [pc, #56]	; (8000de8 <usart_setup+0x60>)
 8000db0:	220c      	movs	r2, #12
 8000db2:	615a      	str	r2, [r3, #20]
	ow_uart.Init.HwFlowCtl = UART_HWCONTROL_NONE;
 8000db4:	4b0c      	ldr	r3, [pc, #48]	; (8000de8 <usart_setup+0x60>)
 8000db6:	2200      	movs	r2, #0
 8000db8:	619a      	str	r2, [r3, #24]
	ow_uart.Init.OverSampling = UART_OVERSAMPLING_16;
 8000dba:	4b0b      	ldr	r3, [pc, #44]	; (8000de8 <usart_setup+0x60>)
 8000dbc:	2200      	movs	r2, #0
 8000dbe:	61da      	str	r2, [r3, #28]
	if (HAL_HalfDuplex_Init(&ow_uart) != HAL_OK)
 8000dc0:	4809      	ldr	r0, [pc, #36]	; (8000de8 <usart_setup+0x60>)
 8000dc2:	f007 f9ea 	bl	800819a <HAL_HalfDuplex_Init>
 8000dc6:	4603      	mov	r3, r0
 8000dc8:	2b00      	cmp	r3, #0
 8000dca:	d000      	beq.n	8000dce <usart_setup+0x46>
	{
		//	    Error_Handler();
		__asm__("NOP");
 8000dcc:	bf00      	nop
	}

	__HAL_UART_ENABLE_IT(&ow_uart, UART_IT_RXNE);
 8000dce:	4b06      	ldr	r3, [pc, #24]	; (8000de8 <usart_setup+0x60>)
 8000dd0:	681b      	ldr	r3, [r3, #0]
 8000dd2:	68da      	ldr	r2, [r3, #12]
 8000dd4:	4b04      	ldr	r3, [pc, #16]	; (8000de8 <usart_setup+0x60>)
 8000dd6:	681b      	ldr	r3, [r3, #0]
 8000dd8:	f042 0220 	orr.w	r2, r2, #32
 8000ddc:	60da      	str	r2, [r3, #12]
}
 8000dde:	bf00      	nop
 8000de0:	3708      	adds	r7, #8
 8000de2:	46bd      	mov	sp, r7
 8000de4:	bd80      	pop	{r7, pc}
 8000de6:	bf00      	nop
 8000de8:	20000b08 	.word	0x20000b08
 8000dec:	40004800 	.word	0x40004800

08000df0 <owInit>:

void owInit(OneWire *ow) {
 8000df0:	b480      	push	{r7}
 8000df2:	b087      	sub	sp, #28
 8000df4:	af00      	add	r7, sp, #0
 8000df6:	6078      	str	r0, [r7, #4]
  int i=0, k = 0;
 8000df8:	2300      	movs	r3, #0
 8000dfa:	617b      	str	r3, [r7, #20]
 8000dfc:	2300      	movs	r3, #0
 8000dfe:	613b      	str	r3, [r7, #16]
  for (; i < MAXDEVICES_ON_THE_BUS; i++) {
 8000e00:	e015      	b.n	8000e2e <owInit+0x3e>
   uint8_t *r = (uint8_t *)&ow->ids[i];      
 8000e02:	697b      	ldr	r3, [r7, #20]
 8000e04:	00db      	lsls	r3, r3, #3
 8000e06:	687a      	ldr	r2, [r7, #4]
 8000e08:	4413      	add	r3, r2
 8000e0a:	60fb      	str	r3, [r7, #12]
    k=0;
 8000e0c:	2300      	movs	r3, #0
 8000e0e:	613b      	str	r3, [r7, #16]
    for (; k < 8; k++)
 8000e10:	e007      	b.n	8000e22 <owInit+0x32>
    r[k] = 0;
 8000e12:	693b      	ldr	r3, [r7, #16]
 8000e14:	68fa      	ldr	r2, [r7, #12]
 8000e16:	4413      	add	r3, r2
 8000e18:	2200      	movs	r2, #0
 8000e1a:	701a      	strb	r2, [r3, #0]
    for (; k < 8; k++)
 8000e1c:	693b      	ldr	r3, [r7, #16]
 8000e1e:	3301      	adds	r3, #1
 8000e20:	613b      	str	r3, [r7, #16]
 8000e22:	693b      	ldr	r3, [r7, #16]
 8000e24:	2b07      	cmp	r3, #7
 8000e26:	ddf4      	ble.n	8000e12 <owInit+0x22>
  for (; i < MAXDEVICES_ON_THE_BUS; i++) {
 8000e28:	697b      	ldr	r3, [r7, #20]
 8000e2a:	3301      	adds	r3, #1
 8000e2c:	617b      	str	r3, [r7, #20]
 8000e2e:	697b      	ldr	r3, [r7, #20]
 8000e30:	2b01      	cmp	r3, #1
 8000e32:	dde6      	ble.n	8000e02 <owInit+0x12>
  }
  k=0;
 8000e34:	2300      	movs	r3, #0
 8000e36:	613b      	str	r3, [r7, #16]
  for (; k < 8; k++)
 8000e38:	e008      	b.n	8000e4c <owInit+0x5c>
    ow->lastROM[k] = 0x00;
 8000e3a:	687a      	ldr	r2, [r7, #4]
 8000e3c:	693b      	ldr	r3, [r7, #16]
 8000e3e:	4413      	add	r3, r2
 8000e40:	3314      	adds	r3, #20
 8000e42:	2200      	movs	r2, #0
 8000e44:	701a      	strb	r2, [r3, #0]
  for (; k < 8; k++)
 8000e46:	693b      	ldr	r3, [r7, #16]
 8000e48:	3301      	adds	r3, #1
 8000e4a:	613b      	str	r3, [r7, #16]
 8000e4c:	693b      	ldr	r3, [r7, #16]
 8000e4e:	2b07      	cmp	r3, #7
 8000e50:	ddf3      	ble.n	8000e3a <owInit+0x4a>
  ow->lastDiscrepancy = 64;
 8000e52:	687b      	ldr	r3, [r7, #4]
 8000e54:	2240      	movs	r2, #64	; 0x40
 8000e56:	611a      	str	r2, [r3, #16]

}
 8000e58:	bf00      	nop
 8000e5a:	371c      	adds	r7, #28
 8000e5c:	46bd      	mov	sp, r7
 8000e5e:	bc80      	pop	{r7}
 8000e60:	4770      	bx	lr
	...

08000e64 <owReadHandler>:

void owReadHandler() { //  USART
 8000e64:	b590      	push	{r4, r7, lr}
 8000e66:	b083      	sub	sp, #12
 8000e68:	af00      	add	r7, sp, #0
  uint8_t index = getUsartIndex();
 8000e6a:	f000 f850 	bl	8000f0e <getUsartIndex>
 8000e6e:	4603      	mov	r3, r0
 8000e70:	71fb      	strb	r3, [r7, #7]
  /* ,     - RXNE. */
  if (((OW_USART->CR1 & USART_CR1_RXNEIE) != 0) &&
 8000e72:	4b18      	ldr	r3, [pc, #96]	; (8000ed4 <owReadHandler+0x70>)
 8000e74:	68db      	ldr	r3, [r3, #12]
 8000e76:	f003 0320 	and.w	r3, r3, #32
 8000e7a:	2b00      	cmp	r3, #0
 8000e7c:	d025      	beq.n	8000eca <owReadHandler+0x66>
      ((OW_USART->SR & UART_FLAG_RXNE) != (uint16_t)RESET)) {
 8000e7e:	4b15      	ldr	r3, [pc, #84]	; (8000ed4 <owReadHandler+0x70>)
 8000e80:	681b      	ldr	r3, [r3, #0]
 8000e82:	f003 0320 	and.w	r3, r3, #32
  if (((OW_USART->CR1 & USART_CR1_RXNEIE) != 0) &&
 8000e86:	2b00      	cmp	r3, #0
 8000e88:	d01f      	beq.n	8000eca <owReadHandler+0x66>

    /*       */
		while ((OW_USART->SR & UART_FLAG_RXNE) == (uint16_t)RESET){;}
 8000e8a:	bf00      	nop
 8000e8c:	4b11      	ldr	r3, [pc, #68]	; (8000ed4 <owReadHandler+0x70>)
 8000e8e:	681b      	ldr	r3, [r3, #0]
 8000e90:	f003 0320 	and.w	r3, r3, #32
 8000e94:	2b00      	cmp	r3, #0
 8000e96:	d0f9      	beq.n	8000e8c <owReadHandler+0x28>
    rc_buffer[index] = USART_ReceiveData(OW_USART);              
 8000e98:	79fc      	ldrb	r4, [r7, #7]
 8000e9a:	480e      	ldr	r0, [pc, #56]	; (8000ed4 <owReadHandler+0x70>)
 8000e9c:	f7ff ff54 	bl	8000d48 <USART_ReceiveData>
 8000ea0:	4603      	mov	r3, r0
 8000ea2:	461a      	mov	r2, r3
 8000ea4:	4b0c      	ldr	r3, [pc, #48]	; (8000ed8 <owReadHandler+0x74>)
 8000ea6:	f823 2014 	strh.w	r2, [r3, r4, lsl #1]
    recvFlag &= ~(1 << index);//     
 8000eaa:	79fb      	ldrb	r3, [r7, #7]
 8000eac:	2201      	movs	r2, #1
 8000eae:	fa02 f303 	lsl.w	r3, r2, r3
 8000eb2:	b25b      	sxtb	r3, r3
 8000eb4:	43db      	mvns	r3, r3
 8000eb6:	b25a      	sxtb	r2, r3
 8000eb8:	4b08      	ldr	r3, [pc, #32]	; (8000edc <owReadHandler+0x78>)
 8000eba:	781b      	ldrb	r3, [r3, #0]
 8000ebc:	b2db      	uxtb	r3, r3
 8000ebe:	b25b      	sxtb	r3, r3
 8000ec0:	4013      	ands	r3, r2
 8000ec2:	b25b      	sxtb	r3, r3
 8000ec4:	b2da      	uxtb	r2, r3
 8000ec6:	4b05      	ldr	r3, [pc, #20]	; (8000edc <owReadHandler+0x78>)
 8000ec8:	701a      	strb	r2, [r3, #0]
  }
}
 8000eca:	bf00      	nop
 8000ecc:	370c      	adds	r7, #12
 8000ece:	46bd      	mov	sp, r7
 8000ed0:	bd90      	pop	{r4, r7, pc}
 8000ed2:	bf00      	nop
 8000ed4:	40004800 	.word	0x40004800
 8000ed8:	200008e8 	.word	0x200008e8
 8000edc:	2000089c 	.word	0x2000089c

08000ee0 <owResetCmd>:
 *
 * @param N usart --    1wire usart
 * @return  1    -   0   
 */

  uint16_t owResetCmd() {
 8000ee0:	b580      	push	{r7, lr}
 8000ee2:	b082      	sub	sp, #8
 8000ee4:	af00      	add	r7, sp, #0
	uint16_t owPresence;
	
	usart_setup(9600);
 8000ee6:	f44f 5016 	mov.w	r0, #9600	; 0x2580
 8000eea:	f7ff ff4d 	bl	8000d88 <usart_setup>

  owSend(0xF0); // Send RESET   
 8000eee:	20f0      	movs	r0, #240	; 0xf0
 8000ef0:	f000 f814 	bl	8000f1c <owSend>
  owPresence = owEchoRead(); //  PRESENCE    ,  
 8000ef4:	f000 f850 	bl	8000f98 <owEchoRead>
 8000ef8:	4603      	mov	r3, r0
 8000efa:	80fb      	strh	r3, [r7, #6]

	usart_setup(115200);//   UART
 8000efc:	f44f 30e1 	mov.w	r0, #115200	; 0x1c200
 8000f00:	f7ff ff42 	bl	8000d88 <usart_setup>
  return owPresence;
 8000f04:	88fb      	ldrh	r3, [r7, #6]
}
 8000f06:	4618      	mov	r0, r3
 8000f08:	3708      	adds	r7, #8
 8000f0a:	46bd      	mov	sp, r7
 8000f0c:	bd80      	pop	{r7, pc}

08000f0e <getUsartIndex>:

uint8_t getUsartIndex() {//    UART c    
 8000f0e:	b480      	push	{r7}
 8000f10:	af00      	add	r7, sp, #0
//	uint8_t result;
//	if(OW_USART==USART1)result = 0;
//	else if (OW_USART==USART2)result = 1;
//	else if (OW_USART==USART3)result = 2;
	return 0;
 8000f12:	2300      	movs	r3, #0
}
 8000f14:	4618      	mov	r0, r3
 8000f16:	46bd      	mov	sp, r7
 8000f18:	bc80      	pop	{r7}
 8000f1a:	4770      	bx	lr

08000f1c <owSend>:

void owSend(uint16_t data) {
 8000f1c:	b580      	push	{r7, lr}
 8000f1e:	b082      	sub	sp, #8
 8000f20:	af00      	add	r7, sp, #0
 8000f22:	4603      	mov	r3, r0
 8000f24:	80fb      	strh	r3, [r7, #6]
  recvFlag |= (1 << getUsartIndex());//         
 8000f26:	f7ff fff2 	bl	8000f0e <getUsartIndex>
 8000f2a:	4603      	mov	r3, r0
 8000f2c:	461a      	mov	r2, r3
 8000f2e:	2301      	movs	r3, #1
 8000f30:	4093      	lsls	r3, r2
 8000f32:	b25a      	sxtb	r2, r3
 8000f34:	4b0d      	ldr	r3, [pc, #52]	; (8000f6c <owSend+0x50>)
 8000f36:	781b      	ldrb	r3, [r3, #0]
 8000f38:	b2db      	uxtb	r3, r3
 8000f3a:	b25b      	sxtb	r3, r3
 8000f3c:	4313      	orrs	r3, r2
 8000f3e:	b25b      	sxtb	r3, r3
 8000f40:	b2da      	uxtb	r2, r3
 8000f42:	4b0a      	ldr	r3, [pc, #40]	; (8000f6c <owSend+0x50>)
 8000f44:	701a      	strb	r2, [r3, #0]
  USART_SendData(OW_USART, data);// 
 8000f46:	88fb      	ldrh	r3, [r7, #6]
 8000f48:	4619      	mov	r1, r3
 8000f4a:	4809      	ldr	r0, [pc, #36]	; (8000f70 <owSend+0x54>)
 8000f4c:	f7ff ff0b 	bl	8000d66 <USART_SendData>
	while(__HAL_UART_GET_FLAG(&ow_uart, UART_FLAG_TC) == RESET);//   
 8000f50:	bf00      	nop
 8000f52:	4b08      	ldr	r3, [pc, #32]	; (8000f74 <owSend+0x58>)
 8000f54:	681b      	ldr	r3, [r3, #0]
 8000f56:	681b      	ldr	r3, [r3, #0]
 8000f58:	f003 0340 	and.w	r3, r3, #64	; 0x40
 8000f5c:	2b40      	cmp	r3, #64	; 0x40
 8000f5e:	d1f8      	bne.n	8000f52 <owSend+0x36>
}
 8000f60:	bf00      	nop
 8000f62:	bf00      	nop
 8000f64:	3708      	adds	r7, #8
 8000f66:	46bd      	mov	sp, r7
 8000f68:	bd80      	pop	{r7, pc}
 8000f6a:	bf00      	nop
 8000f6c:	2000089c 	.word	0x2000089c
 8000f70:	40004800 	.word	0x40004800
 8000f74:	20000b08 	.word	0x20000b08

08000f78 <owReadSlot>:

uint8_t owReadSlot(uint16_t data) {//        
 8000f78:	b480      	push	{r7}
 8000f7a:	b083      	sub	sp, #12
 8000f7c:	af00      	add	r7, sp, #0
 8000f7e:	4603      	mov	r3, r0
 8000f80:	80fb      	strh	r3, [r7, #6]
  return (data == OW_READ) ? 1 : 0; //  0xFF,   = 1,     = 0
 8000f82:	88fb      	ldrh	r3, [r7, #6]
 8000f84:	2bff      	cmp	r3, #255	; 0xff
 8000f86:	bf0c      	ite	eq
 8000f88:	2301      	moveq	r3, #1
 8000f8a:	2300      	movne	r3, #0
 8000f8c:	b2db      	uxtb	r3, r3
}
 8000f8e:	4618      	mov	r0, r3
 8000f90:	370c      	adds	r7, #12
 8000f92:	46bd      	mov	sp, r7
 8000f94:	bc80      	pop	{r7}
 8000f96:	4770      	bx	lr

08000f98 <owEchoRead>:

uint16_t owEchoRead() {//
 8000f98:	b580      	push	{r7, lr}
 8000f9a:	b082      	sub	sp, #8
 8000f9c:	af00      	add	r7, sp, #0
  uint8_t i = getUsartIndex();//  USART
 8000f9e:	f7ff ffb6 	bl	8000f0e <getUsartIndex>
 8000fa2:	4603      	mov	r3, r0
 8000fa4:	717b      	strb	r3, [r7, #5]
  uint16_t pause = 1000;
 8000fa6:	f44f 737a 	mov.w	r3, #1000	; 0x3e8
 8000faa:	80fb      	strh	r3, [r7, #6]
  while (recvFlag & (1 << i) && pause--);//   -      
 8000fac:	bf00      	nop
 8000fae:	4b0c      	ldr	r3, [pc, #48]	; (8000fe0 <owEchoRead+0x48>)
 8000fb0:	781b      	ldrb	r3, [r3, #0]
 8000fb2:	b2db      	uxtb	r3, r3
 8000fb4:	461a      	mov	r2, r3
 8000fb6:	797b      	ldrb	r3, [r7, #5]
 8000fb8:	fa42 f303 	asr.w	r3, r2, r3
 8000fbc:	f003 0301 	and.w	r3, r3, #1
 8000fc0:	2b00      	cmp	r3, #0
 8000fc2:	d004      	beq.n	8000fce <owEchoRead+0x36>
 8000fc4:	88fb      	ldrh	r3, [r7, #6]
 8000fc6:	1e5a      	subs	r2, r3, #1
 8000fc8:	80fa      	strh	r2, [r7, #6]
 8000fca:	2b00      	cmp	r3, #0
 8000fcc:	d1ef      	bne.n	8000fae <owEchoRead+0x16>
  return rc_buffer[i];//     UART 
 8000fce:	797b      	ldrb	r3, [r7, #5]
 8000fd0:	4a04      	ldr	r2, [pc, #16]	; (8000fe4 <owEchoRead+0x4c>)
 8000fd2:	f832 3013 	ldrh.w	r3, [r2, r3, lsl #1]
 8000fd6:	b29b      	uxth	r3, r3
}
 8000fd8:	4618      	mov	r0, r3
 8000fda:	3708      	adds	r7, #8
 8000fdc:	46bd      	mov	sp, r7
 8000fde:	bd80      	pop	{r7, pc}
 8000fe0:	2000089c 	.word	0x2000089c
 8000fe4:	200008e8 	.word	0x200008e8

08000fe8 <byteToBits>:

uint8_t *byteToBits(uint8_t ow_byte, uint8_t *bits) {// 1   8  ,      1wire
 8000fe8:	b480      	push	{r7}
 8000fea:	b085      	sub	sp, #20
 8000fec:	af00      	add	r7, sp, #0
 8000fee:	4603      	mov	r3, r0
 8000ff0:	6039      	str	r1, [r7, #0]
 8000ff2:	71fb      	strb	r3, [r7, #7]
  uint8_t i;
  for (i = 0; i < 8; i++) {
 8000ff4:	2300      	movs	r3, #0
 8000ff6:	73fb      	strb	r3, [r7, #15]
 8000ff8:	e014      	b.n	8001024 <byteToBits+0x3c>
    if (ow_byte & 0x01) {//     ==1 
 8000ffa:	79fb      	ldrb	r3, [r7, #7]
 8000ffc:	f003 0301 	and.w	r3, r3, #1
 8001000:	2b00      	cmp	r3, #0
 8001002:	d003      	beq.n	800100c <byteToBits+0x24>
      *bits = WIRE_1; //       USART  1wire   t.e 0xFF
 8001004:	683b      	ldr	r3, [r7, #0]
 8001006:	22ff      	movs	r2, #255	; 0xff
 8001008:	701a      	strb	r2, [r3, #0]
 800100a:	e002      	b.n	8001012 <byteToBits+0x2a>
    } else {
      *bits = WIRE_0;//     0
 800100c:	683b      	ldr	r3, [r7, #0]
 800100e:	2200      	movs	r2, #0
 8001010:	701a      	strb	r2, [r3, #0]
    }
    bits++;
 8001012:	683b      	ldr	r3, [r7, #0]
 8001014:	3301      	adds	r3, #1
 8001016:	603b      	str	r3, [r7, #0]
    ow_byte = ow_byte >> 1; //  
 8001018:	79fb      	ldrb	r3, [r7, #7]
 800101a:	085b      	lsrs	r3, r3, #1
 800101c:	71fb      	strb	r3, [r7, #7]
  for (i = 0; i < 8; i++) {
 800101e:	7bfb      	ldrb	r3, [r7, #15]
 8001020:	3301      	adds	r3, #1
 8001022:	73fb      	strb	r3, [r7, #15]
 8001024:	7bfb      	ldrb	r3, [r7, #15]
 8001026:	2b07      	cmp	r3, #7
 8001028:	d9e7      	bls.n	8000ffa <byteToBits+0x12>
  }
  return bits; //    
 800102a:	683b      	ldr	r3, [r7, #0]
}
 800102c:	4618      	mov	r0, r3
 800102e:	3714      	adds	r7, #20
 8001030:	46bd      	mov	sp, r7
 8001032:	bc80      	pop	{r7}
 8001034:	4770      	bx	lr

08001036 <owSendByte>:
/**
 *    8        data
 * @param usart --    1wire UART
 * @param d -- 
 */
void owSendByte(uint8_t d) {
 8001036:	b580      	push	{r7, lr}
 8001038:	b086      	sub	sp, #24
 800103a:	af00      	add	r7, sp, #0
 800103c:	4603      	mov	r3, r0
 800103e:	71fb      	strb	r3, [r7, #7]
  uint8_t data[8];
	int i;
  byteToBits(d, data);//    "     UART   1WIRE"
 8001040:	f107 020c 	add.w	r2, r7, #12
 8001044:	79fb      	ldrb	r3, [r7, #7]
 8001046:	4611      	mov	r1, r2
 8001048:	4618      	mov	r0, r3
 800104a:	f7ff ffcd 	bl	8000fe8 <byteToBits>
  for (i = 0; i < 8; ++i) {
 800104e:	2300      	movs	r3, #0
 8001050:	617b      	str	r3, [r7, #20]
 8001052:	e00b      	b.n	800106c <owSendByte+0x36>
    owSend(data[i]);
 8001054:	f107 020c 	add.w	r2, r7, #12
 8001058:	697b      	ldr	r3, [r7, #20]
 800105a:	4413      	add	r3, r2
 800105c:	781b      	ldrb	r3, [r3, #0]
 800105e:	b29b      	uxth	r3, r3
 8001060:	4618      	mov	r0, r3
 8001062:	f7ff ff5b 	bl	8000f1c <owSend>
  for (i = 0; i < 8; ++i) {
 8001066:	697b      	ldr	r3, [r7, #20]
 8001068:	3301      	adds	r3, #1
 800106a:	617b      	str	r3, [r7, #20]
 800106c:	697b      	ldr	r3, [r7, #20]
 800106e:	2b07      	cmp	r3, #7
 8001070:	ddf0      	ble.n	8001054 <owSendByte+0x1e>
  }
}
 8001072:	bf00      	nop
 8001074:	bf00      	nop
 8001076:	3718      	adds	r7, #24
 8001078:	46bd      	mov	sp, r7
 800107a:	bd80      	pop	{r7, pc}

0800107c <owCRC>:
  }
  return target_byte; //  
}

/*  CRC8  mas  Len */
uint8_t owCRC(uint8_t *mas, uint8_t Len) {
 800107c:	b480      	push	{r7}
 800107e:	b085      	sub	sp, #20
 8001080:	af00      	add	r7, sp, #0
 8001082:	6078      	str	r0, [r7, #4]
 8001084:	460b      	mov	r3, r1
 8001086:	70fb      	strb	r3, [r7, #3]
  uint8_t i, dat, crc, fb, st_byt;
  st_byt = 0;
 8001088:	2300      	movs	r3, #0
 800108a:	733b      	strb	r3, [r7, #12]
  crc = 0;
 800108c:	2300      	movs	r3, #0
 800108e:	737b      	strb	r3, [r7, #13]
  do {
    dat = mas[st_byt];
 8001090:	7b3b      	ldrb	r3, [r7, #12]
 8001092:	687a      	ldr	r2, [r7, #4]
 8001094:	4413      	add	r3, r2
 8001096:	781b      	ldrb	r3, [r3, #0]
 8001098:	73bb      	strb	r3, [r7, #14]
    for (i = 0; i < 8; i++) {  //    
 800109a:	2300      	movs	r3, #0
 800109c:	73fb      	strb	r3, [r7, #15]
 800109e:	e018      	b.n	80010d2 <owCRC+0x56>
      fb = crc ^ dat;
 80010a0:	7b7a      	ldrb	r2, [r7, #13]
 80010a2:	7bbb      	ldrb	r3, [r7, #14]
 80010a4:	4053      	eors	r3, r2
 80010a6:	72fb      	strb	r3, [r7, #11]
      fb &= 1;
 80010a8:	7afb      	ldrb	r3, [r7, #11]
 80010aa:	f003 0301 	and.w	r3, r3, #1
 80010ae:	72fb      	strb	r3, [r7, #11]
      crc >>= 1;
 80010b0:	7b7b      	ldrb	r3, [r7, #13]
 80010b2:	085b      	lsrs	r3, r3, #1
 80010b4:	737b      	strb	r3, [r7, #13]
      dat >>= 1;
 80010b6:	7bbb      	ldrb	r3, [r7, #14]
 80010b8:	085b      	lsrs	r3, r3, #1
 80010ba:	73bb      	strb	r3, [r7, #14]
      if (fb == 1) crc ^= 0x8c; // 
 80010bc:	7afb      	ldrb	r3, [r7, #11]
 80010be:	2b01      	cmp	r3, #1
 80010c0:	d104      	bne.n	80010cc <owCRC+0x50>
 80010c2:	7b7b      	ldrb	r3, [r7, #13]
 80010c4:	f083 0373 	eor.w	r3, r3, #115	; 0x73
 80010c8:	43db      	mvns	r3, r3
 80010ca:	737b      	strb	r3, [r7, #13]
    for (i = 0; i < 8; i++) {  //    
 80010cc:	7bfb      	ldrb	r3, [r7, #15]
 80010ce:	3301      	adds	r3, #1
 80010d0:	73fb      	strb	r3, [r7, #15]
 80010d2:	7bfb      	ldrb	r3, [r7, #15]
 80010d4:	2b07      	cmp	r3, #7
 80010d6:	d9e3      	bls.n	80010a0 <owCRC+0x24>
    }
    st_byt++;
 80010d8:	7b3b      	ldrb	r3, [r7, #12]
 80010da:	3301      	adds	r3, #1
 80010dc:	733b      	strb	r3, [r7, #12]
  } while (st_byt < Len); //    
 80010de:	7b3a      	ldrb	r2, [r7, #12]
 80010e0:	78fb      	ldrb	r3, [r7, #3]
 80010e2:	429a      	cmp	r2, r3
 80010e4:	d3d4      	bcc.n	8001090 <owCRC+0x14>
  return crc;
 80010e6:	7b7b      	ldrb	r3, [r7, #13]
}
 80010e8:	4618      	mov	r0, r3
 80010ea:	3714      	adds	r7, #20
 80010ec:	46bd      	mov	sp, r7
 80010ee:	bc80      	pop	{r7}
 80010f0:	4770      	bx	lr

080010f2 <owCRC8>:

uint8_t owCRC8(RomCode *rom){
 80010f2:	b580      	push	{r7, lr}
 80010f4:	b082      	sub	sp, #8
 80010f6:	af00      	add	r7, sp, #0
 80010f8:	6078      	str	r0, [r7, #4]
  return owCRC((uint8_t*)rom, 7);                        
 80010fa:	2107      	movs	r1, #7
 80010fc:	6878      	ldr	r0, [r7, #4]
 80010fe:	f7ff ffbd 	bl	800107c <owCRC>
 8001102:	4603      	mov	r3, r0
}
 8001104:	4618      	mov	r0, r3
 8001106:	3708      	adds	r7, #8
 8001108:	46bd      	mov	sp, r7
 800110a:	bd80      	pop	{r7, pc}

0800110c <hasNextRom>:
 * return 0 if hasn't
 * return -1 if error reading happened
 *
 *         
 */
int hasNextRom(OneWire *ow, uint8_t *ROM) {//
 800110c:	b580      	push	{r7, lr}
 800110e:	b088      	sub	sp, #32
 8001110:	af00      	add	r7, sp, #0
 8001112:	6078      	str	r0, [r7, #4]
 8001114:	6039      	str	r1, [r7, #0]
	uint8_t ui32BitNumber = 0;
 8001116:	2300      	movs	r3, #0
 8001118:	77fb      	strb	r3, [r7, #31]
  int zeroFork = -1;
 800111a:	f04f 33ff 	mov.w	r3, #4294967295
 800111e:	61bb      	str	r3, [r7, #24]
	uint8_t i = 0;
 8001120:	2300      	movs	r3, #0
 8001122:	75fb      	strb	r3, [r7, #23]
  if (owResetCmd() == ONEWIRE_NOBODY) { //    
 8001124:	f7ff fedc 	bl	8000ee0 <owResetCmd>
 8001128:	4603      	mov	r3, r0
 800112a:	2bf0      	cmp	r3, #240	; 0xf0
 800112c:	d101      	bne.n	8001132 <hasNextRom+0x26>
    return 0;
 800112e:	2300      	movs	r3, #0
 8001130:	e097      	b.n	8001262 <hasNextRom+0x156>
  }
  owSendByte(ONEWIRE_SEARCH);//
 8001132:	20f0      	movs	r0, #240	; 0xf0
 8001134:	f7ff ff7f 	bl	8001036 <owSendByte>
  do {
		uint8_t answerBit =0;
 8001138:	2300      	movs	r3, #0
 800113a:	757b      	strb	r3, [r7, #21]
    int byteNum = ui32BitNumber / 8;
 800113c:	7ffb      	ldrb	r3, [r7, #31]
 800113e:	08db      	lsrs	r3, r3, #3
 8001140:	b2db      	uxtb	r3, r3
 8001142:	613b      	str	r3, [r7, #16]
    uint8_t *current = (ROM) + byteNum;
 8001144:	693b      	ldr	r3, [r7, #16]
 8001146:	683a      	ldr	r2, [r7, #0]
 8001148:	4413      	add	r3, r2
 800114a:	60fb      	str	r3, [r7, #12]
    uint8_t cB, cmp_cB, searchDirection = 0;
 800114c:	2300      	movs	r3, #0
 800114e:	75bb      	strb	r3, [r7, #22]
    owSend(OW_READ); //   
 8001150:	20ff      	movs	r0, #255	; 0xff
 8001152:	f7ff fee3 	bl	8000f1c <owSend>
    cB = owReadSlot(owEchoRead());//  
 8001156:	f7ff ff1f 	bl	8000f98 <owEchoRead>
 800115a:	4603      	mov	r3, r0
 800115c:	4618      	mov	r0, r3
 800115e:	f7ff ff0b 	bl	8000f78 <owReadSlot>
 8001162:	4603      	mov	r3, r0
 8001164:	72fb      	strb	r3, [r7, #11]
    owSend(OW_READ); //   
 8001166:	20ff      	movs	r0, #255	; 0xff
 8001168:	f7ff fed8 	bl	8000f1c <owSend>
    cmp_cB = owReadSlot(owEchoRead());//  
 800116c:	f7ff ff14 	bl	8000f98 <owEchoRead>
 8001170:	4603      	mov	r3, r0
 8001172:	4618      	mov	r0, r3
 8001174:	f7ff ff00 	bl	8000f78 <owReadSlot>
 8001178:	4603      	mov	r3, r0
 800117a:	72bb      	strb	r3, [r7, #10]
    if (cB == cmp_cB && cB == 1)//  
 800117c:	7afa      	ldrb	r2, [r7, #11]
 800117e:	7abb      	ldrb	r3, [r7, #10]
 8001180:	429a      	cmp	r2, r3
 8001182:	d105      	bne.n	8001190 <hasNextRom+0x84>
 8001184:	7afb      	ldrb	r3, [r7, #11]
 8001186:	2b01      	cmp	r3, #1
 8001188:	d102      	bne.n	8001190 <hasNextRom+0x84>
      return -1;//    
 800118a:	f04f 33ff 	mov.w	r3, #4294967295
 800118e:	e068      	b.n	8001262 <hasNextRom+0x156>
    if (cB != cmp_cB) { //    10  01
 8001190:	7afa      	ldrb	r2, [r7, #11]
 8001192:	7abb      	ldrb	r3, [r7, #10]
 8001194:	429a      	cmp	r2, r3
 8001196:	d002      	beq.n	800119e <hasNextRom+0x92>
      searchDirection = cB;//      
 8001198:	7afb      	ldrb	r3, [r7, #11]
 800119a:	75bb      	strb	r3, [r7, #22]
 800119c:	e023      	b.n	80011e6 <hasNextRom+0xda>
			} else {//  00 .    ROM- 
				if (ui32BitNumber == ow->lastDiscrepancy)//     
 800119e:	7ffa      	ldrb	r2, [r7, #31]
 80011a0:	687b      	ldr	r3, [r7, #4]
 80011a2:	691b      	ldr	r3, [r3, #16]
 80011a4:	429a      	cmp	r2, r3
 80011a6:	d102      	bne.n	80011ae <hasNextRom+0xa2>
        searchDirection = 1;//      
 80011a8:	2301      	movs	r3, #1
 80011aa:	75bb      	strb	r3, [r7, #22]
 80011ac:	e01b      	b.n	80011e6 <hasNextRom+0xda>
      else {
        if (ui32BitNumber > ow->lastDiscrepancy) {//   
 80011ae:	7ffa      	ldrb	r2, [r7, #31]
 80011b0:	687b      	ldr	r3, [r7, #4]
 80011b2:	691b      	ldr	r3, [r3, #16]
 80011b4:	429a      	cmp	r2, r3
 80011b6:	dd02      	ble.n	80011be <hasNextRom+0xb2>
          searchDirection = 0;//       
 80011b8:	2300      	movs	r3, #0
 80011ba:	75bb      	strb	r3, [r7, #22]
 80011bc:	e00e      	b.n	80011dc <hasNextRom+0xd0>
        } else {
          searchDirection = (uint8_t) ((ow->lastROM[byteNum] >> ui32BitNumber % 8) & 0x01);
 80011be:	687a      	ldr	r2, [r7, #4]
 80011c0:	693b      	ldr	r3, [r7, #16]
 80011c2:	4413      	add	r3, r2
 80011c4:	3314      	adds	r3, #20
 80011c6:	781b      	ldrb	r3, [r3, #0]
 80011c8:	461a      	mov	r2, r3
 80011ca:	7ffb      	ldrb	r3, [r7, #31]
 80011cc:	f003 0307 	and.w	r3, r3, #7
 80011d0:	fa42 f303 	asr.w	r3, r2, r3
 80011d4:	b2db      	uxtb	r3, r3
 80011d6:	f003 0301 	and.w	r3, r3, #1
 80011da:	75bb      	strb	r3, [r7, #22]
        }
        if (searchDirection == 0)
 80011dc:	7dbb      	ldrb	r3, [r7, #22]
 80011de:	2b00      	cmp	r3, #0
 80011e0:	d101      	bne.n	80011e6 <hasNextRom+0xda>
          zeroFork = ui32BitNumber;// 
 80011e2:	7ffb      	ldrb	r3, [r7, #31]
 80011e4:	61bb      	str	r3, [r7, #24]
      }
    }
    //  
    if (searchDirection)
 80011e6:	7dbb      	ldrb	r3, [r7, #22]
 80011e8:	2b00      	cmp	r3, #0
 80011ea:	d00e      	beq.n	800120a <hasNextRom+0xfe>
      *(current) |= 1 << ui32BitNumber % 8;//     
 80011ec:	68fb      	ldr	r3, [r7, #12]
 80011ee:	781b      	ldrb	r3, [r3, #0]
 80011f0:	b25a      	sxtb	r2, r3
 80011f2:	7ffb      	ldrb	r3, [r7, #31]
 80011f4:	f003 0307 	and.w	r3, r3, #7
 80011f8:	2101      	movs	r1, #1
 80011fa:	fa01 f303 	lsl.w	r3, r1, r3
 80011fe:	b25b      	sxtb	r3, r3
 8001200:	4313      	orrs	r3, r2
 8001202:	b25b      	sxtb	r3, r3
 8001204:	b2da      	uxtb	r2, r3
 8001206:	68fb      	ldr	r3, [r7, #12]
 8001208:	701a      	strb	r2, [r3, #0]
    answerBit = (uint8_t) ((searchDirection == 0) ? WIRE_0 : WIRE_1);//   
 800120a:	7dbb      	ldrb	r3, [r7, #22]
 800120c:	2b00      	cmp	r3, #0
 800120e:	d101      	bne.n	8001214 <hasNextRom+0x108>
 8001210:	2300      	movs	r3, #0
 8001212:	e000      	b.n	8001216 <hasNextRom+0x10a>
 8001214:	23ff      	movs	r3, #255	; 0xff
 8001216:	757b      	strb	r3, [r7, #21]
    owSend(answerBit);// "" 
 8001218:	7d7b      	ldrb	r3, [r7, #21]
 800121a:	b29b      	uxth	r3, r3
 800121c:	4618      	mov	r0, r3
 800121e:	f7ff fe7d 	bl	8000f1c <owSend>
    ui32BitNumber++;//  
 8001222:	7ffb      	ldrb	r3, [r7, #31]
 8001224:	3301      	adds	r3, #1
 8001226:	77fb      	strb	r3, [r7, #31]
		} while (ui32BitNumber < 64);//    ROM  
 8001228:	7ffb      	ldrb	r3, [r7, #31]
 800122a:	2b3f      	cmp	r3, #63	; 0x3f
 800122c:	d984      	bls.n	8001138 <hasNextRom+0x2c>
  ow->lastDiscrepancy = zeroFork;// 
 800122e:	687b      	ldr	r3, [r7, #4]
 8001230:	69ba      	ldr	r2, [r7, #24]
 8001232:	611a      	str	r2, [r3, #16]
  for (; i < 7; i++)
 8001234:	e00b      	b.n	800124e <hasNextRom+0x142>
    ow->lastROM[i] = ROM[i];//  ROM
 8001236:	7dfb      	ldrb	r3, [r7, #23]
 8001238:	683a      	ldr	r2, [r7, #0]
 800123a:	441a      	add	r2, r3
 800123c:	7dfb      	ldrb	r3, [r7, #23]
 800123e:	7811      	ldrb	r1, [r2, #0]
 8001240:	687a      	ldr	r2, [r7, #4]
 8001242:	4413      	add	r3, r2
 8001244:	460a      	mov	r2, r1
 8001246:	751a      	strb	r2, [r3, #20]
  for (; i < 7; i++)
 8001248:	7dfb      	ldrb	r3, [r7, #23]
 800124a:	3301      	adds	r3, #1
 800124c:	75fb      	strb	r3, [r7, #23]
 800124e:	7dfb      	ldrb	r3, [r7, #23]
 8001250:	2b06      	cmp	r3, #6
 8001252:	d9f0      	bls.n	8001236 <hasNextRom+0x12a>
  return ow->lastDiscrepancy > 0;
 8001254:	687b      	ldr	r3, [r7, #4]
 8001256:	691b      	ldr	r3, [r3, #16]
 8001258:	2b00      	cmp	r3, #0
 800125a:	bfcc      	ite	gt
 800125c:	2301      	movgt	r3, #1
 800125e:	2300      	movle	r3, #0
 8001260:	b2db      	uxtb	r3, r3
}
 8001262:	4618      	mov	r0, r3
 8001264:	3720      	adds	r7, #32
 8001266:	46bd      	mov	sp, r7
 8001268:	bd80      	pop	{r7, pc}

0800126a <owSearchCmd>:

//        ,    0
int owSearchCmd(OneWire *ow) {
 800126a:	b580      	push	{r7, lr}
 800126c:	b084      	sub	sp, #16
 800126e:	af00      	add	r7, sp, #0
 8001270:	6078      	str	r0, [r7, #4]
  int device = 0, nextROM;
 8001272:	2300      	movs	r3, #0
 8001274:	60fb      	str	r3, [r7, #12]
  owInit(ow);
 8001276:	6878      	ldr	r0, [r7, #4]
 8001278:	f7ff fdba 	bl	8000df0 <owInit>
  do {
    nextROM = hasNextRom(ow, (uint8_t*)(&ow->ids[device])); //      .ROM
 800127c:	68fb      	ldr	r3, [r7, #12]
 800127e:	00db      	lsls	r3, r3, #3
 8001280:	687a      	ldr	r2, [r7, #4]
 8001282:	4413      	add	r3, r2
 8001284:	4619      	mov	r1, r3
 8001286:	6878      	ldr	r0, [r7, #4]
 8001288:	f7ff ff40 	bl	800110c <hasNextRom>
 800128c:	60b8      	str	r0, [r7, #8]
    if (nextROM<0)
 800128e:	68bb      	ldr	r3, [r7, #8]
 8001290:	2b00      	cmp	r3, #0
 8001292:	da02      	bge.n	800129a <owSearchCmd+0x30>
      return -1;
 8001294:	f04f 33ff 	mov.w	r3, #4294967295
 8001298:	e009      	b.n	80012ae <owSearchCmd+0x44>
    device++;
 800129a:	68fb      	ldr	r3, [r7, #12]
 800129c:	3301      	adds	r3, #1
 800129e:	60fb      	str	r3, [r7, #12]
		} while (nextROM && device < MAXDEVICES_ON_THE_BUS);//  -    -   
 80012a0:	68bb      	ldr	r3, [r7, #8]
 80012a2:	2b00      	cmp	r3, #0
 80012a4:	d002      	beq.n	80012ac <owSearchCmd+0x42>
 80012a6:	68fb      	ldr	r3, [r7, #12]
 80012a8:	2b01      	cmp	r3, #1
 80012aa:	dde7      	ble.n	800127c <owSearchCmd+0x12>
		return device;//    ()  
 80012ac:	68fb      	ldr	r3, [r7, #12]
}
 80012ae:	4618      	mov	r0, r3
 80012b0:	3710      	adds	r7, #16
 80012b2:	46bd      	mov	sp, r7
 80012b4:	bd80      	pop	{r7, pc}

080012b6 <owMatchRomCmd>:
void owSkipRomCmd(OneWire *ow) {//   ROM     
  owResetCmd();                 //    
  owSendByte(ONEWIRE_SKIP_ROM);
}

void owMatchRomCmd(RomCode *rom) {//       
 80012b6:	b580      	push	{r7, lr}
 80012b8:	b084      	sub	sp, #16
 80012ba:	af00      	add	r7, sp, #0
 80012bc:	6078      	str	r0, [r7, #4]
	int i = 0;
 80012be:	2300      	movs	r3, #0
 80012c0:	60fb      	str	r3, [r7, #12]
  owResetCmd();
 80012c2:	f7ff fe0d 	bl	8000ee0 <owResetCmd>
  owSendByte(ONEWIRE_MATCH_ROM);//   
 80012c6:	2055      	movs	r0, #85	; 0x55
 80012c8:	f7ff feb5 	bl	8001036 <owSendByte>
  for (; i < 8; i++)
 80012cc:	e009      	b.n	80012e2 <owMatchRomCmd+0x2c>
	owSendByte(*(((uint8_t *) rom) + i));//"     "    i    
 80012ce:	68fb      	ldr	r3, [r7, #12]
 80012d0:	687a      	ldr	r2, [r7, #4]
 80012d2:	4413      	add	r3, r2
 80012d4:	781b      	ldrb	r3, [r3, #0]
 80012d6:	4618      	mov	r0, r3
 80012d8:	f7ff fead 	bl	8001036 <owSendByte>
  for (; i < 8; i++)
 80012dc:	68fb      	ldr	r3, [r7, #12]
 80012de:	3301      	adds	r3, #1
 80012e0:	60fb      	str	r3, [r7, #12]
 80012e2:	68fb      	ldr	r3, [r7, #12]
 80012e4:	2b07      	cmp	r3, #7
 80012e6:	ddf2      	ble.n	80012ce <owMatchRomCmd+0x18>
}
 80012e8:	bf00      	nop
 80012ea:	bf00      	nop
 80012ec:	3710      	adds	r7, #16
 80012ee:	46bd      	mov	sp, r7
 80012f0:	bd80      	pop	{r7, pc}

080012f2 <owConvertTemperatureCmd>:

void owConvertTemperatureCmd(OneWire *ow, RomCode *rom) {
 80012f2:	b580      	push	{r7, lr}
 80012f4:	b082      	sub	sp, #8
 80012f6:	af00      	add	r7, sp, #0
 80012f8:	6078      	str	r0, [r7, #4]
 80012fa:	6039      	str	r1, [r7, #0]
  owMatchRomCmd(rom);//       
 80012fc:	6838      	ldr	r0, [r7, #0]
 80012fe:	f7ff ffda 	bl	80012b6 <owMatchRomCmd>
  owSendByte(ONEWIRE_CONVERT_TEMPERATURE);//     
 8001302:	2044      	movs	r0, #68	; 0x44
 8001304:	f7ff fe97 	bl	8001036 <owSendByte>
}
 8001308:	bf00      	nop
 800130a:	3708      	adds	r7, #8
 800130c:	46bd      	mov	sp, r7
 800130e:	bd80      	pop	{r7, pc}

08001310 <owReadScratchpadCmd>:
 * @param ow -- OneWire pointer
 * @param rom -- selected device on the bus
 * @param data -- buffer for data
 * @return data
 */
uint8_t *owReadScratchpadCmd(OneWire *ow, RomCode *rom, uint8_t *data) {//  
 8001310:	b580      	push	{r7, lr}
 8001312:	b086      	sub	sp, #24
 8001314:	af00      	add	r7, sp, #0
 8001316:	60f8      	str	r0, [r7, #12]
 8001318:	60b9      	str	r1, [r7, #8]
 800131a:	607a      	str	r2, [r7, #4]
  uint16_t b = 0, p;
 800131c:	2300      	movs	r3, #0
 800131e:	82fb      	strh	r3, [r7, #22]
  switch (rom->family) {
 8001320:	68bb      	ldr	r3, [r7, #8]
 8001322:	781b      	ldrb	r3, [r3, #0]
 8001324:	2b10      	cmp	r3, #16
 8001326:	d001      	beq.n	800132c <owReadScratchpadCmd+0x1c>
 8001328:	2b28      	cmp	r3, #40	; 0x28
 800132a:	d109      	bne.n	8001340 <owReadScratchpadCmd+0x30>
    case DS18B20:
    case DS18S20:
      p = 72;  //9*8 =72 ==  9  
 800132c:	2348      	movs	r3, #72	; 0x48
 800132e:	82bb      	strh	r3, [r7, #20]
      break;
 8001330:	bf00      	nop
    default:
      return data;

  }
  owMatchRomCmd(rom);
 8001332:	68b8      	ldr	r0, [r7, #8]
 8001334:	f7ff ffbf 	bl	80012b6 <owMatchRomCmd>
  owSendByte(ONEWIRE_READ_SCRATCHPAD);//    
 8001338:	20be      	movs	r0, #190	; 0xbe
 800133a:	f7ff fe7c 	bl	8001036 <owSendByte>
  while (b < p) {//     9  
 800133e:	e048      	b.n	80013d2 <owReadScratchpadCmd+0xc2>
      return data;
 8001340:	687b      	ldr	r3, [r7, #4]
 8001342:	e04b      	b.n	80013dc <owReadScratchpadCmd+0xcc>
    uint8_t pos = (uint8_t) ((p - 8) / 8 - (b / 8)); //  
 8001344:	8abb      	ldrh	r3, [r7, #20]
 8001346:	3b08      	subs	r3, #8
 8001348:	2b00      	cmp	r3, #0
 800134a:	da00      	bge.n	800134e <owReadScratchpadCmd+0x3e>
 800134c:	3307      	adds	r3, #7
 800134e:	10db      	asrs	r3, r3, #3
 8001350:	b2da      	uxtb	r2, r3
 8001352:	8afb      	ldrh	r3, [r7, #22]
 8001354:	08db      	lsrs	r3, r3, #3
 8001356:	b29b      	uxth	r3, r3
 8001358:	b2db      	uxtb	r3, r3
 800135a:	1ad3      	subs	r3, r2, r3
 800135c:	74fb      	strb	r3, [r7, #19]
    uint8_t bt; 
		owSend(OW_READ);
 800135e:	20ff      	movs	r0, #255	; 0xff
 8001360:	f7ff fddc 	bl	8000f1c <owSend>
    bt = owReadSlot(owEchoRead());//  
 8001364:	f7ff fe18 	bl	8000f98 <owEchoRead>
 8001368:	4603      	mov	r3, r0
 800136a:	4618      	mov	r0, r3
 800136c:	f7ff fe04 	bl	8000f78 <owReadSlot>
 8001370:	4603      	mov	r3, r0
 8001372:	74bb      	strb	r3, [r7, #18]
    if (bt == 1)
 8001374:	7cbb      	ldrb	r3, [r7, #18]
 8001376:	2b01      	cmp	r3, #1
 8001378:	d113      	bne.n	80013a2 <owReadScratchpadCmd+0x92>
      data[pos] |= 1 << b % 8;//    
 800137a:	7cfb      	ldrb	r3, [r7, #19]
 800137c:	687a      	ldr	r2, [r7, #4]
 800137e:	4413      	add	r3, r2
 8001380:	781b      	ldrb	r3, [r3, #0]
 8001382:	b25a      	sxtb	r2, r3
 8001384:	8afb      	ldrh	r3, [r7, #22]
 8001386:	f003 0307 	and.w	r3, r3, #7
 800138a:	2101      	movs	r1, #1
 800138c:	fa01 f303 	lsl.w	r3, r1, r3
 8001390:	b25b      	sxtb	r3, r3
 8001392:	4313      	orrs	r3, r2
 8001394:	b259      	sxtb	r1, r3
 8001396:	7cfb      	ldrb	r3, [r7, #19]
 8001398:	687a      	ldr	r2, [r7, #4]
 800139a:	4413      	add	r3, r2
 800139c:	b2ca      	uxtb	r2, r1
 800139e:	701a      	strb	r2, [r3, #0]
 80013a0:	e014      	b.n	80013cc <owReadScratchpadCmd+0xbc>
    else
      data[pos] &= ~(1 << b % 8);//    
 80013a2:	7cfb      	ldrb	r3, [r7, #19]
 80013a4:	687a      	ldr	r2, [r7, #4]
 80013a6:	4413      	add	r3, r2
 80013a8:	781b      	ldrb	r3, [r3, #0]
 80013aa:	b25a      	sxtb	r2, r3
 80013ac:	8afb      	ldrh	r3, [r7, #22]
 80013ae:	f003 0307 	and.w	r3, r3, #7
 80013b2:	2101      	movs	r1, #1
 80013b4:	fa01 f303 	lsl.w	r3, r1, r3
 80013b8:	b25b      	sxtb	r3, r3
 80013ba:	43db      	mvns	r3, r3
 80013bc:	b25b      	sxtb	r3, r3
 80013be:	4013      	ands	r3, r2
 80013c0:	b259      	sxtb	r1, r3
 80013c2:	7cfb      	ldrb	r3, [r7, #19]
 80013c4:	687a      	ldr	r2, [r7, #4]
 80013c6:	4413      	add	r3, r2
 80013c8:	b2ca      	uxtb	r2, r1
 80013ca:	701a      	strb	r2, [r3, #0]
    b++;// 
 80013cc:	8afb      	ldrh	r3, [r7, #22]
 80013ce:	3301      	adds	r3, #1
 80013d0:	82fb      	strh	r3, [r7, #22]
  while (b < p) {//     9  
 80013d2:	8afa      	ldrh	r2, [r7, #22]
 80013d4:	8abb      	ldrh	r3, [r7, #20]
 80013d6:	429a      	cmp	r2, r3
 80013d8:	d3b4      	bcc.n	8001344 <owReadScratchpadCmd+0x34>
  }
  return data;
 80013da:	687b      	ldr	r3, [r7, #4]
}
 80013dc:	4618      	mov	r0, r3
 80013de:	3718      	adds	r7, #24
 80013e0:	46bd      	mov	sp, r7
 80013e2:	bd80      	pop	{r7, pc}

080013e4 <readTemperature>:
 * @param ow -- OneWire bus pointer
 * @param rom -- selected device
 * @param reSense -- do you want resense temp for next time?
 * @return struct with data
 */
Temperature readTemperature(OneWire *ow, RomCode *rom, uint8_t reSense) {
 80013e4:	b580      	push	{r7, lr}
 80013e6:	b08c      	sub	sp, #48	; 0x30
 80013e8:	af00      	add	r7, sp, #0
 80013ea:	60f8      	str	r0, [r7, #12]
 80013ec:	60b9      	str	r1, [r7, #8]
 80013ee:	4613      	mov	r3, r2
 80013f0:	71fb      	strb	r3, [r7, #7]
	Scratchpad_DS18B20 *sp;
	Scratchpad_DS18S20 *spP;
  Temperature t;
	uint8_t pad[9];
  t.inCelsus = 0x00;
 80013f2:	2300      	movs	r3, #0
 80013f4:	f887 3020 	strb.w	r3, [r7, #32]
  t.frac = 0x00;
 80013f8:	2300      	movs	r3, #0
 80013fa:	f887 3021 	strb.w	r3, [r7, #33]	; 0x21
  sp = (Scratchpad_DS18B20 *) &pad; 
 80013fe:	f107 0314 	add.w	r3, r7, #20
 8001402:	62fb      	str	r3, [r7, #44]	; 0x2c
  spP = (Scratchpad_DS18S20 *) &pad;
 8001404:	f107 0314 	add.w	r3, r7, #20
 8001408:	62bb      	str	r3, [r7, #40]	; 0x28
  switch (rom->family) {
 800140a:	68bb      	ldr	r3, [r7, #8]
 800140c:	781b      	ldrb	r3, [r3, #0]
 800140e:	2b10      	cmp	r3, #16
 8001410:	d022      	beq.n	8001458 <readTemperature+0x74>
 8001412:	2b28      	cmp	r3, #40	; 0x28
 8001414:	d13a      	bne.n	800148c <readTemperature+0xa8>
    case DS18B20:
      owReadScratchpadCmd(ow, rom, pad);//    DS18B20
 8001416:	f107 0314 	add.w	r3, r7, #20
 800141a:	461a      	mov	r2, r3
 800141c:	68b9      	ldr	r1, [r7, #8]
 800141e:	68f8      	ldr	r0, [r7, #12]
 8001420:	f7ff ff76 	bl	8001310 <owReadScratchpadCmd>
      t.inCelsus = (int8_t) (sp->temp_msb << 4) | (sp->temp_lsb >> 4);// 
 8001424:	6afb      	ldr	r3, [r7, #44]	; 0x2c
 8001426:	79db      	ldrb	r3, [r3, #7]
 8001428:	011b      	lsls	r3, r3, #4
 800142a:	b25a      	sxtb	r2, r3
 800142c:	6afb      	ldr	r3, [r7, #44]	; 0x2c
 800142e:	7a1b      	ldrb	r3, [r3, #8]
 8001430:	091b      	lsrs	r3, r3, #4
 8001432:	b2db      	uxtb	r3, r3
 8001434:	b25b      	sxtb	r3, r3
 8001436:	4313      	orrs	r3, r2
 8001438:	b25b      	sxtb	r3, r3
 800143a:	f887 3020 	strb.w	r3, [r7, #32]
      t.frac = (uint8_t) ((((sp->temp_lsb & 0x0F)) * 10) >> 4);//
 800143e:	6afb      	ldr	r3, [r7, #44]	; 0x2c
 8001440:	7a1b      	ldrb	r3, [r3, #8]
 8001442:	f003 020f 	and.w	r2, r3, #15
 8001446:	4613      	mov	r3, r2
 8001448:	009b      	lsls	r3, r3, #2
 800144a:	4413      	add	r3, r2
 800144c:	005b      	lsls	r3, r3, #1
 800144e:	111b      	asrs	r3, r3, #4
 8001450:	b2db      	uxtb	r3, r3
 8001452:	f887 3021 	strb.w	r3, [r7, #33]	; 0x21
      break;
 8001456:	e01c      	b.n	8001492 <readTemperature+0xae>
    case DS18S20:
      owReadScratchpadCmd(ow, rom, pad);//    DS18S20
 8001458:	f107 0314 	add.w	r3, r7, #20
 800145c:	461a      	mov	r2, r3
 800145e:	68b9      	ldr	r1, [r7, #8]
 8001460:	68f8      	ldr	r0, [r7, #12]
 8001462:	f7ff ff55 	bl	8001310 <owReadScratchpadCmd>
      t.inCelsus = spP->temp_lsb >> 1;
 8001466:	6abb      	ldr	r3, [r7, #40]	; 0x28
 8001468:	7a1b      	ldrb	r3, [r3, #8]
 800146a:	085b      	lsrs	r3, r3, #1
 800146c:	b2db      	uxtb	r3, r3
 800146e:	b25b      	sxtb	r3, r3
 8001470:	f887 3020 	strb.w	r3, [r7, #32]
      t.frac = (uint8_t) 5 * (spP->temp_lsb & 0x01);
 8001474:	6abb      	ldr	r3, [r7, #40]	; 0x28
 8001476:	7a1b      	ldrb	r3, [r3, #8]
 8001478:	f003 0301 	and.w	r3, r3, #1
 800147c:	b2db      	uxtb	r3, r3
 800147e:	461a      	mov	r2, r3
 8001480:	0092      	lsls	r2, r2, #2
 8001482:	4413      	add	r3, r2
 8001484:	b2db      	uxtb	r3, r3
 8001486:	f887 3021 	strb.w	r3, [r7, #33]	; 0x21
      break;
 800148a:	e002      	b.n	8001492 <readTemperature+0xae>
    default:
      return t;
 800148c:	8c3b      	ldrh	r3, [r7, #32]
 800148e:	84bb      	strh	r3, [r7, #36]	; 0x24
 8001490:	e008      	b.n	80014a4 <readTemperature+0xc0>
  }
  if (reSense) {
 8001492:	79fb      	ldrb	r3, [r7, #7]
 8001494:	2b00      	cmp	r3, #0
 8001496:	d003      	beq.n	80014a0 <readTemperature+0xbc>
    owConvertTemperatureCmd(ow, rom);//           
 8001498:	68b9      	ldr	r1, [r7, #8]
 800149a:	68f8      	ldr	r0, [r7, #12]
 800149c:	f7ff ff29 	bl	80012f2 <owConvertTemperatureCmd>
  }
  return t;
 80014a0:	8c3b      	ldrh	r3, [r7, #32]
 80014a2:	84bb      	strh	r3, [r7, #36]	; 0x24
 80014a4:	2300      	movs	r3, #0
 80014a6:	f897 2024 	ldrb.w	r2, [r7, #36]	; 0x24
 80014aa:	f362 0307 	bfi	r3, r2, #0, #8
 80014ae:	f897 2025 	ldrb.w	r2, [r7, #37]	; 0x25
 80014b2:	f362 230f 	bfi	r3, r2, #8, #8
}
 80014b6:	4618      	mov	r0, r3
 80014b8:	3730      	adds	r7, #48	; 0x30
 80014ba:	46bd      	mov	sp, r7
 80014bc:	bd80      	pop	{r7, pc}
	...

080014c0 <get_ROMid>:
  owMatchRomCmd(rom);
  owSendByte(ONEWIRE_RECALL_E2);
}


int get_ROMid (void){
 80014c0:	b580      	push	{r7, lr}
 80014c2:	b082      	sub	sp, #8
 80014c4:	af00      	add	r7, sp, #0
	if (owResetCmd() != ONEWIRE_NOBODY) {    // is anybody on the bus?
 80014c6:	f7ff fd0b 	bl	8000ee0 <owResetCmd>
 80014ca:	4603      	mov	r3, r0
 80014cc:	2bf0      	cmp	r3, #240	; 0xf0
 80014ce:	d052      	beq.n	8001576 <get_ROMid+0xb6>
		devices = owSearchCmd(&ow);        //  ROMid ? ??      
 80014d0:	483b      	ldr	r0, [pc, #236]	; (80015c0 <get_ROMid+0x100>)
 80014d2:	f7ff feca 	bl	800126a <owSearchCmd>
 80014d6:	4603      	mov	r3, r0
 80014d8:	b2da      	uxtb	r2, r3
 80014da:	4b3a      	ldr	r3, [pc, #232]	; (80015c4 <get_ROMid+0x104>)
 80014dc:	701a      	strb	r2, [r3, #0]
		if (devices <= 0) {
 80014de:	4b39      	ldr	r3, [pc, #228]	; (80015c4 <get_ROMid+0x104>)
 80014e0:	781b      	ldrb	r3, [r3, #0]
 80014e2:	2b00      	cmp	r3, #0
 80014e4:	d113      	bne.n	800150e <get_ROMid+0x4e>
			while (1){
				pDelay = 1000000;
 80014e6:	4b38      	ldr	r3, [pc, #224]	; (80015c8 <get_ROMid+0x108>)
 80014e8:	4a38      	ldr	r2, [pc, #224]	; (80015cc <get_ROMid+0x10c>)
 80014ea:	601a      	str	r2, [r3, #0]
				for (i = 0; i < pDelay * 1; i++)    /* Wait a bit. */
 80014ec:	4b38      	ldr	r3, [pc, #224]	; (80015d0 <get_ROMid+0x110>)
 80014ee:	2200      	movs	r2, #0
 80014f0:	601a      	str	r2, [r3, #0]
 80014f2:	e005      	b.n	8001500 <get_ROMid+0x40>
					__asm__("nop");
 80014f4:	bf00      	nop
				for (i = 0; i < pDelay * 1; i++)    /* Wait a bit. */
 80014f6:	4b36      	ldr	r3, [pc, #216]	; (80015d0 <get_ROMid+0x110>)
 80014f8:	681b      	ldr	r3, [r3, #0]
 80014fa:	3301      	adds	r3, #1
 80014fc:	4a34      	ldr	r2, [pc, #208]	; (80015d0 <get_ROMid+0x110>)
 80014fe:	6013      	str	r3, [r2, #0]
 8001500:	4b33      	ldr	r3, [pc, #204]	; (80015d0 <get_ROMid+0x110>)
 8001502:	681a      	ldr	r2, [r3, #0]
 8001504:	4b30      	ldr	r3, [pc, #192]	; (80015c8 <get_ROMid+0x108>)
 8001506:	681b      	ldr	r3, [r3, #0]
 8001508:	429a      	cmp	r2, r3
 800150a:	d3f3      	bcc.n	80014f4 <get_ROMid+0x34>
				pDelay = 1000000;
 800150c:	e7eb      	b.n	80014e6 <get_ROMid+0x26>
			}

		}
		i = 0;
 800150e:	4b30      	ldr	r3, [pc, #192]	; (80015d0 <get_ROMid+0x110>)
 8001510:	2200      	movs	r2, #0
 8001512:	601a      	str	r2, [r3, #0]
		for (; i < devices; i++) {//  ? ?  ROM
 8001514:	e028      	b.n	8001568 <get_ROMid+0xa8>
			RomCode *r = &ow.ids[i];
 8001516:	4b2e      	ldr	r3, [pc, #184]	; (80015d0 <get_ROMid+0x110>)
 8001518:	681b      	ldr	r3, [r3, #0]
 800151a:	00db      	lsls	r3, r3, #3
 800151c:	4a28      	ldr	r2, [pc, #160]	; (80015c0 <get_ROMid+0x100>)
 800151e:	4413      	add	r3, r2
 8001520:	607b      	str	r3, [r7, #4]
			uint8_t crc = owCRC8(r);
 8001522:	6878      	ldr	r0, [r7, #4]
 8001524:	f7ff fde5 	bl	80010f2 <owCRC8>
 8001528:	4603      	mov	r3, r0
 800152a:	70fb      	strb	r3, [r7, #3]
			crcOK = (crc == r->crc)?"CRC OK":"CRC ERROR!";
 800152c:	687b      	ldr	r3, [r7, #4]
 800152e:	79db      	ldrb	r3, [r3, #7]
 8001530:	78fa      	ldrb	r2, [r7, #3]
 8001532:	429a      	cmp	r2, r3
 8001534:	d101      	bne.n	800153a <get_ROMid+0x7a>
 8001536:	4b27      	ldr	r3, [pc, #156]	; (80015d4 <get_ROMid+0x114>)
 8001538:	e000      	b.n	800153c <get_ROMid+0x7c>
 800153a:	4b27      	ldr	r3, [pc, #156]	; (80015d8 <get_ROMid+0x118>)
 800153c:	4a27      	ldr	r2, [pc, #156]	; (80015dc <get_ROMid+0x11c>)
 800153e:	6013      	str	r3, [r2, #0]
			devInfo.device = i;
 8001540:	4b23      	ldr	r3, [pc, #140]	; (80015d0 <get_ROMid+0x110>)
 8001542:	681b      	ldr	r3, [r3, #0]
 8001544:	461a      	mov	r2, r3
 8001546:	4b26      	ldr	r3, [pc, #152]	; (80015e0 <get_ROMid+0x120>)
 8001548:	601a      	str	r2, [r3, #0]

			//sprintf(devInfo.info, "SN: %02X/%02X%02X%02X%02X%02X%02X/%02X", r->family, r->code[5], r->code[4], r->code[3],
			//		r->code[2], r->code[1], r->code[0], r->crc);

			if (crc != r->crc) {
 800154a:	687b      	ldr	r3, [r7, #4]
 800154c:	79db      	ldrb	r3, [r3, #7]
 800154e:	78fa      	ldrb	r2, [r7, #3]
 8001550:	429a      	cmp	r2, r3
 8001552:	d004      	beq.n	800155e <get_ROMid+0x9e>
				devInfo.device = i;
 8001554:	4b1e      	ldr	r3, [pc, #120]	; (80015d0 <get_ROMid+0x110>)
 8001556:	681b      	ldr	r3, [r3, #0]
 8001558:	461a      	mov	r2, r3
 800155a:	4b21      	ldr	r3, [pc, #132]	; (80015e0 <get_ROMid+0x120>)
 800155c:	601a      	str	r2, [r3, #0]
		for (; i < devices; i++) {//  ? ?  ROM
 800155e:	4b1c      	ldr	r3, [pc, #112]	; (80015d0 <get_ROMid+0x110>)
 8001560:	681b      	ldr	r3, [r3, #0]
 8001562:	3301      	adds	r3, #1
 8001564:	4a1a      	ldr	r2, [pc, #104]	; (80015d0 <get_ROMid+0x110>)
 8001566:	6013      	str	r3, [r2, #0]
 8001568:	4b16      	ldr	r3, [pc, #88]	; (80015c4 <get_ROMid+0x104>)
 800156a:	781b      	ldrb	r3, [r3, #0]
 800156c:	461a      	mov	r2, r3
 800156e:	4b18      	ldr	r3, [pc, #96]	; (80015d0 <get_ROMid+0x110>)
 8001570:	681b      	ldr	r3, [r3, #0]
 8001572:	429a      	cmp	r2, r3
 8001574:	d8cf      	bhi.n	8001516 <get_ROMid+0x56>
			//	sprintf (devInfo.info,"\n can't read cause CNC error");
			}
		}

	}
	pDelay = 1000000;
 8001576:	4b14      	ldr	r3, [pc, #80]	; (80015c8 <get_ROMid+0x108>)
 8001578:	4a14      	ldr	r2, [pc, #80]	; (80015cc <get_ROMid+0x10c>)
 800157a:	601a      	str	r2, [r3, #0]
	for (i = 0; i < pDelay * 1; i++)
 800157c:	4b14      	ldr	r3, [pc, #80]	; (80015d0 <get_ROMid+0x110>)
 800157e:	2200      	movs	r2, #0
 8001580:	601a      	str	r2, [r3, #0]
 8001582:	e005      	b.n	8001590 <get_ROMid+0xd0>
		__asm__("nop");
 8001584:	bf00      	nop
	for (i = 0; i < pDelay * 1; i++)
 8001586:	4b12      	ldr	r3, [pc, #72]	; (80015d0 <get_ROMid+0x110>)
 8001588:	681b      	ldr	r3, [r3, #0]
 800158a:	3301      	adds	r3, #1
 800158c:	4a10      	ldr	r2, [pc, #64]	; (80015d0 <get_ROMid+0x110>)
 800158e:	6013      	str	r3, [r2, #0]
 8001590:	4b0f      	ldr	r3, [pc, #60]	; (80015d0 <get_ROMid+0x110>)
 8001592:	681a      	ldr	r2, [r3, #0]
 8001594:	4b0c      	ldr	r3, [pc, #48]	; (80015c8 <get_ROMid+0x108>)
 8001596:	681b      	ldr	r3, [r3, #0]
 8001598:	429a      	cmp	r2, r3
 800159a:	d3f3      	bcc.n	8001584 <get_ROMid+0xc4>

	if (strcmp(crcOK,"CRC OK") == 0) return 0;
 800159c:	4b0f      	ldr	r3, [pc, #60]	; (80015dc <get_ROMid+0x11c>)
 800159e:	681b      	ldr	r3, [r3, #0]
 80015a0:	490c      	ldr	r1, [pc, #48]	; (80015d4 <get_ROMid+0x114>)
 80015a2:	4618      	mov	r0, r3
 80015a4:	f7fe fdd4 	bl	8000150 <strcmp>
 80015a8:	4603      	mov	r3, r0
 80015aa:	2b00      	cmp	r3, #0
 80015ac:	d101      	bne.n	80015b2 <get_ROMid+0xf2>
 80015ae:	2300      	movs	r3, #0
 80015b0:	e001      	b.n	80015b6 <get_ROMid+0xf6>
	else return -1;
 80015b2:	f04f 33ff 	mov.w	r3, #4294967295
}
 80015b6:	4618      	mov	r0, r3
 80015b8:	3708      	adds	r7, #8
 80015ba:	46bd      	mov	sp, r7
 80015bc:	bd80      	pop	{r7, pc}
 80015be:	bf00      	nop
 80015c0:	200008a4 	.word	0x200008a4
 80015c4:	200008fc 	.word	0x200008fc
 80015c8:	20000000 	.word	0x20000000
 80015cc:	000f4240 	.word	0x000f4240
 80015d0:	200008a0 	.word	0x200008a0
 80015d4:	08008a10 	.word	0x08008a10
 80015d8:	08008a18 	.word	0x08008a18
 80015dc:	20000900 	.word	0x20000900
 80015e0:	200008c4 	.word	0x200008c4

080015e4 <get_Temperature>:

void get_Temperature (void)
{
 80015e4:	b598      	push	{r3, r4, r7, lr}
 80015e6:	af00      	add	r7, sp, #0
	i=0;
 80015e8:	4b3f      	ldr	r3, [pc, #252]	; (80016e8 <get_Temperature+0x104>)
 80015ea:	2200      	movs	r2, #0
 80015ec:	601a      	str	r2, [r3, #0]
	for (; i < devices; i++) {
 80015ee:	e071      	b.n	80016d4 <get_Temperature+0xf0>
		switch ((ow.ids[i]).family) {//    
 80015f0:	4b3d      	ldr	r3, [pc, #244]	; (80016e8 <get_Temperature+0x104>)
 80015f2:	681b      	ldr	r3, [r3, #0]
 80015f4:	4a3d      	ldr	r2, [pc, #244]	; (80016ec <get_Temperature+0x108>)
 80015f6:	f812 3033 	ldrb.w	r3, [r2, r3, lsl #3]
 80015fa:	2b28      	cmp	r3, #40	; 0x28
 80015fc:	d006      	beq.n	800160c <get_Temperature+0x28>
 80015fe:	2b28      	cmp	r3, #40	; 0x28
 8001600:	dc60      	bgt.n	80016c4 <get_Temperature+0xe0>
 8001602:	2b00      	cmp	r3, #0
 8001604:	d060      	beq.n	80016c8 <get_Temperature+0xe4>
 8001606:	2b10      	cmp	r3, #16
 8001608:	d02e      	beq.n	8001668 <get_Temperature+0x84>
			break;
		case 0x00:
			break;
		default:
			// error handler
			break;
 800160a:	e05b      	b.n	80016c4 <get_Temperature+0xe0>
			t = readTemperature(&ow, &ow.ids[i], 1);
 800160c:	4b36      	ldr	r3, [pc, #216]	; (80016e8 <get_Temperature+0x104>)
 800160e:	681b      	ldr	r3, [r3, #0]
 8001610:	00db      	lsls	r3, r3, #3
 8001612:	4a36      	ldr	r2, [pc, #216]	; (80016ec <get_Temperature+0x108>)
 8001614:	4413      	add	r3, r2
 8001616:	2201      	movs	r2, #1
 8001618:	4619      	mov	r1, r3
 800161a:	4834      	ldr	r0, [pc, #208]	; (80016ec <get_Temperature+0x108>)
 800161c:	f7ff fee2 	bl	80013e4 <readTemperature>
 8001620:	4602      	mov	r2, r0
 8001622:	4b33      	ldr	r3, [pc, #204]	; (80016f0 <get_Temperature+0x10c>)
 8001624:	b212      	sxth	r2, r2
 8001626:	4611      	mov	r1, r2
 8001628:	7019      	strb	r1, [r3, #0]
 800162a:	f3c2 2207 	ubfx	r2, r2, #8, #8
 800162e:	705a      	strb	r2, [r3, #1]
			Temp[i] = (float)(t.inCelsus*10+t.frac)/10.0;
 8001630:	4b2f      	ldr	r3, [pc, #188]	; (80016f0 <get_Temperature+0x10c>)
 8001632:	f993 3000 	ldrsb.w	r3, [r3]
 8001636:	461a      	mov	r2, r3
 8001638:	4613      	mov	r3, r2
 800163a:	009b      	lsls	r3, r3, #2
 800163c:	4413      	add	r3, r2
 800163e:	005b      	lsls	r3, r3, #1
 8001640:	461a      	mov	r2, r3
 8001642:	4b2b      	ldr	r3, [pc, #172]	; (80016f0 <get_Temperature+0x10c>)
 8001644:	785b      	ldrb	r3, [r3, #1]
 8001646:	4413      	add	r3, r2
 8001648:	4618      	mov	r0, r3
 800164a:	f7ff f9b3 	bl	80009b4 <__aeabi_i2f>
 800164e:	4603      	mov	r3, r0
 8001650:	4a25      	ldr	r2, [pc, #148]	; (80016e8 <get_Temperature+0x104>)
 8001652:	6814      	ldr	r4, [r2, #0]
 8001654:	4927      	ldr	r1, [pc, #156]	; (80016f4 <get_Temperature+0x110>)
 8001656:	4618      	mov	r0, r3
 8001658:	f7ff fab4 	bl	8000bc4 <__aeabi_fdiv>
 800165c:	4603      	mov	r3, r0
 800165e:	461a      	mov	r2, r3
 8001660:	4b25      	ldr	r3, [pc, #148]	; (80016f8 <get_Temperature+0x114>)
 8001662:	f843 2024 	str.w	r2, [r3, r4, lsl #2]
			break;
 8001666:	e030      	b.n	80016ca <get_Temperature+0xe6>
			t = readTemperature(&ow, &ow.ids[i], 1);
 8001668:	4b1f      	ldr	r3, [pc, #124]	; (80016e8 <get_Temperature+0x104>)
 800166a:	681b      	ldr	r3, [r3, #0]
 800166c:	00db      	lsls	r3, r3, #3
 800166e:	4a1f      	ldr	r2, [pc, #124]	; (80016ec <get_Temperature+0x108>)
 8001670:	4413      	add	r3, r2
 8001672:	2201      	movs	r2, #1
 8001674:	4619      	mov	r1, r3
 8001676:	481d      	ldr	r0, [pc, #116]	; (80016ec <get_Temperature+0x108>)
 8001678:	f7ff feb4 	bl	80013e4 <readTemperature>
 800167c:	4602      	mov	r2, r0
 800167e:	4b1c      	ldr	r3, [pc, #112]	; (80016f0 <get_Temperature+0x10c>)
 8001680:	b212      	sxth	r2, r2
 8001682:	4611      	mov	r1, r2
 8001684:	7019      	strb	r1, [r3, #0]
 8001686:	f3c2 2207 	ubfx	r2, r2, #8, #8
 800168a:	705a      	strb	r2, [r3, #1]
			Temp[i] = (float)(t.inCelsus*10+t.frac)/10.0;
 800168c:	4b18      	ldr	r3, [pc, #96]	; (80016f0 <get_Temperature+0x10c>)
 800168e:	f993 3000 	ldrsb.w	r3, [r3]
 8001692:	461a      	mov	r2, r3
 8001694:	4613      	mov	r3, r2
 8001696:	009b      	lsls	r3, r3, #2
 8001698:	4413      	add	r3, r2
 800169a:	005b      	lsls	r3, r3, #1
 800169c:	461a      	mov	r2, r3
 800169e:	4b14      	ldr	r3, [pc, #80]	; (80016f0 <get_Temperature+0x10c>)
 80016a0:	785b      	ldrb	r3, [r3, #1]
 80016a2:	4413      	add	r3, r2
 80016a4:	4618      	mov	r0, r3
 80016a6:	f7ff f985 	bl	80009b4 <__aeabi_i2f>
 80016aa:	4603      	mov	r3, r0
 80016ac:	4a0e      	ldr	r2, [pc, #56]	; (80016e8 <get_Temperature+0x104>)
 80016ae:	6814      	ldr	r4, [r2, #0]
 80016b0:	4910      	ldr	r1, [pc, #64]	; (80016f4 <get_Temperature+0x110>)
 80016b2:	4618      	mov	r0, r3
 80016b4:	f7ff fa86 	bl	8000bc4 <__aeabi_fdiv>
 80016b8:	4603      	mov	r3, r0
 80016ba:	461a      	mov	r2, r3
 80016bc:	4b0e      	ldr	r3, [pc, #56]	; (80016f8 <get_Temperature+0x114>)
 80016be:	f843 2024 	str.w	r2, [r3, r4, lsl #2]
			break;
 80016c2:	e002      	b.n	80016ca <get_Temperature+0xe6>
			break;
 80016c4:	bf00      	nop
 80016c6:	e000      	b.n	80016ca <get_Temperature+0xe6>
			break;
 80016c8:	bf00      	nop
	for (; i < devices; i++) {
 80016ca:	4b07      	ldr	r3, [pc, #28]	; (80016e8 <get_Temperature+0x104>)
 80016cc:	681b      	ldr	r3, [r3, #0]
 80016ce:	3301      	adds	r3, #1
 80016d0:	4a05      	ldr	r2, [pc, #20]	; (80016e8 <get_Temperature+0x104>)
 80016d2:	6013      	str	r3, [r2, #0]
 80016d4:	4b09      	ldr	r3, [pc, #36]	; (80016fc <get_Temperature+0x118>)
 80016d6:	781b      	ldrb	r3, [r3, #0]
 80016d8:	461a      	mov	r2, r3
 80016da:	4b03      	ldr	r3, [pc, #12]	; (80016e8 <get_Temperature+0x104>)
 80016dc:	681b      	ldr	r3, [r3, #0]
 80016de:	429a      	cmp	r2, r3
 80016e0:	d886      	bhi.n	80015f0 <get_Temperature+0xc>
		}
	}
//	pDelay = 4000000;
//	for (i = 0; i < pDelay * 1; i++){}   /* Wait a bit. */
}
 80016e2:	bf00      	nop
 80016e4:	bf00      	nop
 80016e6:	bd98      	pop	{r3, r4, r7, pc}
 80016e8:	200008a0 	.word	0x200008a0
 80016ec:	200008a4 	.word	0x200008a4
 80016f0:	200008c0 	.word	0x200008c0
 80016f4:	41200000 	.word	0x41200000
 80016f8:	200008f4 	.word	0x200008f4
 80016fc:	200008fc 	.word	0x200008fc

08001700 <ProcessTimers>:

	volatile uint32_t GTimers[MAX_GTIMERS];
	volatile uint8_t GTStates[MAX_GTIMERS];
#endif

void ProcessTimers(uint32_t * tick) {
 8001700:	b480      	push	{r7}
 8001702:	b085      	sub	sp, #20
 8001704:	af00      	add	r7, sp, #0
 8001706:	6078      	str	r0, [r7, #4]
	uint8_t i = 0;
 8001708:	2300      	movs	r3, #0
 800170a:	73fb      	strb	r3, [r7, #15]
	uint32_t x = *tick;
 800170c:	687b      	ldr	r3, [r7, #4]
 800170e:	681b      	ldr	r3, [r3, #0]
 8001710:	60bb      	str	r3, [r7, #8]

	if (x > 0) {
 8001712:	68bb      	ldr	r3, [r7, #8]
 8001714:	2b00      	cmp	r3, #0
 8001716:	d025      	beq.n	8001764 <ProcessTimers+0x64>
		for (i=0; i<MAX_TIMERS; i++) {
 8001718:	2300      	movs	r3, #0
 800171a:	73fb      	strb	r3, [r7, #15]
 800171c:	e01c      	b.n	8001758 <ProcessTimers+0x58>
			Timers[i] += x;
 800171e:	7bfb      	ldrb	r3, [r7, #15]
 8001720:	4a13      	ldr	r2, [pc, #76]	; (8001770 <ProcessTimers+0x70>)
 8001722:	f852 1023 	ldr.w	r1, [r2, r3, lsl #2]
 8001726:	7bfb      	ldrb	r3, [r7, #15]
 8001728:	68ba      	ldr	r2, [r7, #8]
 800172a:	440a      	add	r2, r1
 800172c:	4910      	ldr	r1, [pc, #64]	; (8001770 <ProcessTimers+0x70>)
 800172e:	f841 2023 	str.w	r2, [r1, r3, lsl #2]
#ifdef USE_GLOBAL_TIMERS
			if (GTStates[i] == TIMER_RUNNING) {
 8001732:	7bfb      	ldrb	r3, [r7, #15]
 8001734:	4a0f      	ldr	r2, [pc, #60]	; (8001774 <ProcessTimers+0x74>)
 8001736:	5cd3      	ldrb	r3, [r2, r3]
 8001738:	b2db      	uxtb	r3, r3
 800173a:	2b01      	cmp	r3, #1
 800173c:	d109      	bne.n	8001752 <ProcessTimers+0x52>
				GTimers[i] += x;
 800173e:	7bfb      	ldrb	r3, [r7, #15]
 8001740:	4a0d      	ldr	r2, [pc, #52]	; (8001778 <ProcessTimers+0x78>)
 8001742:	f852 1023 	ldr.w	r1, [r2, r3, lsl #2]
 8001746:	7bfb      	ldrb	r3, [r7, #15]
 8001748:	68ba      	ldr	r2, [r7, #8]
 800174a:	440a      	add	r2, r1
 800174c:	490a      	ldr	r1, [pc, #40]	; (8001778 <ProcessTimers+0x78>)
 800174e:	f841 2023 	str.w	r2, [r1, r3, lsl #2]
		for (i=0; i<MAX_TIMERS; i++) {
 8001752:	7bfb      	ldrb	r3, [r7, #15]
 8001754:	3301      	adds	r3, #1
 8001756:	73fb      	strb	r3, [r7, #15]
 8001758:	7bfb      	ldrb	r3, [r7, #15]
 800175a:	2b00      	cmp	r3, #0
 800175c:	d0df      	beq.n	800171e <ProcessTimers+0x1e>
			}
#endif
		}
		*tick = 0;
 800175e:	687b      	ldr	r3, [r7, #4]
 8001760:	2200      	movs	r2, #0
 8001762:	601a      	str	r2, [r3, #0]
	}
}
 8001764:	bf00      	nop
 8001766:	3714      	adds	r7, #20
 8001768:	46bd      	mov	sp, r7
 800176a:	bc80      	pop	{r7}
 800176c:	4770      	bx	lr
 800176e:	bf00      	nop
 8001770:	20000908 	.word	0x20000908
 8001774:	20000924 	.word	0x20000924
 8001778:	2000090c 	.word	0x2000090c

0800177c <InitGTimers>:
	Timers[Timer] = 0;
}

#ifdef USE_GLOBAL_TIMERS

void InitGTimers(void) {
 800177c:	b480      	push	{r7}
 800177e:	b083      	sub	sp, #12
 8001780:	af00      	add	r7, sp, #0
	uint8_t i;
	for (i=0; i<MAX_TIMERS; i++) {
 8001782:	2300      	movs	r3, #0
 8001784:	71fb      	strb	r3, [r7, #7]
 8001786:	e007      	b.n	8001798 <InitGTimers+0x1c>
		GTimers[i] = TIMER_STOPPED;
 8001788:	79fb      	ldrb	r3, [r7, #7]
 800178a:	4a08      	ldr	r2, [pc, #32]	; (80017ac <InitGTimers+0x30>)
 800178c:	2100      	movs	r1, #0
 800178e:	f842 1023 	str.w	r1, [r2, r3, lsl #2]
	for (i=0; i<MAX_TIMERS; i++) {
 8001792:	79fb      	ldrb	r3, [r7, #7]
 8001794:	3301      	adds	r3, #1
 8001796:	71fb      	strb	r3, [r7, #7]
 8001798:	79fb      	ldrb	r3, [r7, #7]
 800179a:	2b00      	cmp	r3, #0
 800179c:	d0f4      	beq.n	8001788 <InitGTimers+0xc>
	}
}
 800179e:	bf00      	nop
 80017a0:	bf00      	nop
 80017a2:	370c      	adds	r7, #12
 80017a4:	46bd      	mov	sp, r7
 80017a6:	bc80      	pop	{r7}
 80017a8:	4770      	bx	lr
 80017aa:	bf00      	nop
 80017ac:	2000090c 	.word	0x2000090c

080017b0 <GetGTimer>:

uint32_t  GetGTimer(uint8_t Timer){
 80017b0:	b480      	push	{r7}
 80017b2:	b083      	sub	sp, #12
 80017b4:	af00      	add	r7, sp, #0
 80017b6:	4603      	mov	r3, r0
 80017b8:	71fb      	strb	r3, [r7, #7]
	return GTimers[Timer];
 80017ba:	79fb      	ldrb	r3, [r7, #7]
 80017bc:	4a03      	ldr	r2, [pc, #12]	; (80017cc <GetGTimer+0x1c>)
 80017be:	f852 3023 	ldr.w	r3, [r2, r3, lsl #2]
}
 80017c2:	4618      	mov	r0, r3
 80017c4:	370c      	adds	r7, #12
 80017c6:	46bd      	mov	sp, r7
 80017c8:	bc80      	pop	{r7}
 80017ca:	4770      	bx	lr
 80017cc:	2000090c 	.word	0x2000090c

080017d0 <StartGTimer>:
void StopGTimer(uint8_t Timer){
	GTStates[Timer] = TIMER_STOPPED;
	GTimers[Timer] = 0;//added
}

void StartGTimer(uint8_t Timer){
 80017d0:	b480      	push	{r7}
 80017d2:	b083      	sub	sp, #12
 80017d4:	af00      	add	r7, sp, #0
 80017d6:	4603      	mov	r3, r0
 80017d8:	71fb      	strb	r3, [r7, #7]
		GTimers[Timer] = 0;
 80017da:	79fb      	ldrb	r3, [r7, #7]
 80017dc:	4a06      	ldr	r2, [pc, #24]	; (80017f8 <StartGTimer+0x28>)
 80017de:	2100      	movs	r1, #0
 80017e0:	f842 1023 	str.w	r1, [r2, r3, lsl #2]
		GTStates[Timer] = TIMER_RUNNING;
 80017e4:	79fb      	ldrb	r3, [r7, #7]
 80017e6:	4a05      	ldr	r2, [pc, #20]	; (80017fc <StartGTimer+0x2c>)
 80017e8:	2101      	movs	r1, #1
 80017ea:	54d1      	strb	r1, [r2, r3]
}
 80017ec:	bf00      	nop
 80017ee:	370c      	adds	r7, #12
 80017f0:	46bd      	mov	sp, r7
 80017f2:	bc80      	pop	{r7}
 80017f4:	4770      	bx	lr
 80017f6:	bf00      	nop
 80017f8:	2000090c 	.word	0x2000090c
 80017fc:	20000924 	.word	0x20000924

08001800 <Button_Add>:
 * @param handle handle of button to be registered
 * @retval return button ID (index of button in registred list), return -1 on failure
 * @note adjust MAX_BUTTONS accordingly
 */
int32_t Button_Add(Button_Struct_t *handle)
{
 8001800:	b580      	push	{r7, lr}
 8001802:	b082      	sub	sp, #8
 8001804:	af00      	add	r7, sp, #0
 8001806:	6078      	str	r0, [r7, #4]
    BUTTON_ASSERT(handle, "handle is NULL");
    BUTTON_ASSERT(Button_Count < MAX_BUTTONS, "MAX Button count reached");

    if (Button_Count < MAX_BUTTONS && handle != NULL)
 8001808:	4b18      	ldr	r3, [pc, #96]	; (800186c <Button_Add+0x6c>)
 800180a:	781b      	ldrb	r3, [r3, #0]
 800180c:	2b03      	cmp	r3, #3
 800180e:	d826      	bhi.n	800185e <Button_Add+0x5e>
 8001810:	687b      	ldr	r3, [r7, #4]
 8001812:	2b00      	cmp	r3, #0
 8001814:	d023      	beq.n	800185e <Button_Add+0x5e>
    {
        BUTTON_ASSERT(handle->Button_Read, "Button_Read not defined");

        /* call init function if defined */
        if (handle->Button_Init != NULL)
 8001816:	687b      	ldr	r3, [r7, #4]
 8001818:	691b      	ldr	r3, [r3, #16]
 800181a:	2b00      	cmp	r3, #0
 800181c:	d002      	beq.n	8001824 <Button_Add+0x24>
        {
            handle->Button_Init();
 800181e:	687b      	ldr	r3, [r7, #4]
 8001820:	691b      	ldr	r3, [r3, #16]
 8001822:	4798      	blx	r3
        }
        handle->Button_Event = Button_Idle;
 8001824:	687b      	ldr	r3, [r7, #4]
 8001826:	2200      	movs	r2, #0
 8001828:	701a      	strb	r2, [r3, #0]
        handle->Button_Clicked_Count = 0;
 800182a:	687b      	ldr	r3, [r7, #4]
 800182c:	2200      	movs	r2, #0
 800182e:	731a      	strb	r2, [r3, #12]
        handle->Button_Pressed_Ticks = 0;
 8001830:	687b      	ldr	r3, [r7, #4]
 8001832:	2200      	movs	r2, #0
 8001834:	605a      	str	r2, [r3, #4]
        handle->Button_Released_Ticks = 0;
 8001836:	687b      	ldr	r3, [r7, #4]
 8001838:	2200      	movs	r2, #0
 800183a:	609a      	str	r2, [r3, #8]

        Button_List[Button_Count] = handle;
 800183c:	4b0b      	ldr	r3, [pc, #44]	; (800186c <Button_Add+0x6c>)
 800183e:	781b      	ldrb	r3, [r3, #0]
 8001840:	4619      	mov	r1, r3
 8001842:	4a0b      	ldr	r2, [pc, #44]	; (8001870 <Button_Add+0x70>)
 8001844:	687b      	ldr	r3, [r7, #4]
 8001846:	f842 3021 	str.w	r3, [r2, r1, lsl #2]

        Button_Count++;
 800184a:	4b08      	ldr	r3, [pc, #32]	; (800186c <Button_Add+0x6c>)
 800184c:	781b      	ldrb	r3, [r3, #0]
 800184e:	3301      	adds	r3, #1
 8001850:	b2da      	uxtb	r2, r3
 8001852:	4b06      	ldr	r3, [pc, #24]	; (800186c <Button_Add+0x6c>)
 8001854:	701a      	strb	r2, [r3, #0]

        /** return button ID (index of button in registred list) */
        return Button_Count - 1;
 8001856:	4b05      	ldr	r3, [pc, #20]	; (800186c <Button_Add+0x6c>)
 8001858:	781b      	ldrb	r3, [r3, #0]
 800185a:	3b01      	subs	r3, #1
 800185c:	e001      	b.n	8001862 <Button_Add+0x62>
    }
    /** return error */
    return -1;
 800185e:	f04f 33ff 	mov.w	r3, #4294967295
}
 8001862:	4618      	mov	r0, r3
 8001864:	3708      	adds	r7, #8
 8001866:	46bd      	mov	sp, r7
 8001868:	bd80      	pop	{r7, pc}
 800186a:	bf00      	nop
 800186c:	20000074 	.word	0x20000074
 8001870:	20000064 	.word	0x20000064

08001874 <Button_Loop>:
 * @brief frequently called in main loop or timer ISR. should be called at least every 20ms?
 * @param none
 * @retval none
 */
void Button_Loop(void)
{
 8001874:	b580      	push	{r7, lr}
 8001876:	b082      	sub	sp, #8
 8001878:	af00      	add	r7, sp, #0
    static uint32_t Button_Scan_Time_Stamp = 0;

    /** execute this loop on every BUTTON_SCAN_TICK */
    if (Button_Get_Tick() - Button_Scan_Time_Stamp > BUTTON_SCAN_TICK)
 800187a:	f001 fe5b 	bl	8003534 <Button_Get_Tick>
 800187e:	4602      	mov	r2, r0
 8001880:	4b53      	ldr	r3, [pc, #332]	; (80019d0 <Button_Loop+0x15c>)
 8001882:	681b      	ldr	r3, [r3, #0]
 8001884:	1ad3      	subs	r3, r2, r3
 8001886:	2b0a      	cmp	r3, #10
 8001888:	f240 809d 	bls.w	80019c6 <Button_Loop+0x152>
    {
        Button_Struct_t *handle = NULL;
 800188c:	2300      	movs	r3, #0
 800188e:	603b      	str	r3, [r7, #0]
        Button_Scan_Time_Stamp = Button_Get_Tick();
 8001890:	f001 fe50 	bl	8003534 <Button_Get_Tick>
 8001894:	4603      	mov	r3, r0
 8001896:	4a4e      	ldr	r2, [pc, #312]	; (80019d0 <Button_Loop+0x15c>)
 8001898:	6013      	str	r3, [r2, #0]

        for (uint8_t Index = 0; Index < Button_Count; Index++)
 800189a:	2300      	movs	r3, #0
 800189c:	71fb      	strb	r3, [r7, #7]
 800189e:	e08c      	b.n	80019ba <Button_Loop+0x146>
        {
            /** grab button handle from list */
            handle = Button_List[Index];
 80018a0:	79fb      	ldrb	r3, [r7, #7]
 80018a2:	4a4c      	ldr	r2, [pc, #304]	; (80019d4 <Button_Loop+0x160>)
 80018a4:	f852 3023 	ldr.w	r3, [r2, r3, lsl #2]
 80018a8:	603b      	str	r3, [r7, #0]

            BUTTON_ASSERT(handle, "NULL found in list");

            if (handle != NULL)
 80018aa:	683b      	ldr	r3, [r7, #0]
 80018ac:	2b00      	cmp	r3, #0
 80018ae:	f000 8081 	beq.w	80019b4 <Button_Loop+0x140>
            {
                /** button pressed detected */
                if (handle->Button_Read != NULL && handle->Button_Read())
 80018b2:	683b      	ldr	r3, [r7, #0]
 80018b4:	695b      	ldr	r3, [r3, #20]
 80018b6:	2b00      	cmp	r3, #0
 80018b8:	d038      	beq.n	800192c <Button_Loop+0xb8>
 80018ba:	683b      	ldr	r3, [r7, #0]
 80018bc:	695b      	ldr	r3, [r3, #20]
 80018be:	4798      	blx	r3
 80018c0:	4603      	mov	r3, r0
 80018c2:	2b00      	cmp	r3, #0
 80018c4:	d032      	beq.n	800192c <Button_Loop+0xb8>
                {
                    handle->Button_Pressed_Ticks++;
 80018c6:	683b      	ldr	r3, [r7, #0]
 80018c8:	685b      	ldr	r3, [r3, #4]
 80018ca:	1c5a      	adds	r2, r3, #1
 80018cc:	683b      	ldr	r3, [r7, #0]
 80018ce:	605a      	str	r2, [r3, #4]

                    if (handle->Button_Pressed_Ticks < BUTTON_LONG_PRESSED_TICK)
 80018d0:	683b      	ldr	r3, [r7, #0]
 80018d2:	685b      	ldr	r3, [r3, #4]
 80018d4:	2b63      	cmp	r3, #99	; 0x63
 80018d6:	d80e      	bhi.n	80018f6 <Button_Loop+0x82>
                    {
                        /** button repressed detected */
                        if (handle->Button_Released_Ticks < BUTTON_REPRESSED_TICK)
 80018d8:	683b      	ldr	r3, [r7, #0]
 80018da:	689b      	ldr	r3, [r3, #8]
 80018dc:	2b06      	cmp	r3, #6
 80018de:	d803      	bhi.n	80018e8 <Button_Loop+0x74>
                        {
                            handle->Button_Event = Button_Repressed;
 80018e0:	683b      	ldr	r3, [r7, #0]
 80018e2:	2202      	movs	r2, #2
 80018e4:	701a      	strb	r2, [r3, #0]
 80018e6:	e002      	b.n	80018ee <Button_Loop+0x7a>
                        }
                        else
                        {
                            handle->Button_Event = Button_Pressed;
 80018e8:	683b      	ldr	r3, [r7, #0]
 80018ea:	2201      	movs	r2, #1
 80018ec:	701a      	strb	r2, [r3, #0]
                        }
                        handle->Button_Released_Ticks = 0;
 80018ee:	683b      	ldr	r3, [r7, #0]
 80018f0:	2200      	movs	r2, #0
 80018f2:	609a      	str	r2, [r3, #8]
                    if (handle->Button_Pressed_Ticks < BUTTON_LONG_PRESSED_TICK)
 80018f4:	e05d      	b.n	80019b2 <Button_Loop+0x13e>
                    }
                    else if (handle->Button_Event != Button_Long_Pressed)
 80018f6:	683b      	ldr	r3, [r7, #0]
 80018f8:	781b      	ldrb	r3, [r3, #0]
 80018fa:	2b03      	cmp	r3, #3
 80018fc:	d059      	beq.n	80019b2 <Button_Loop+0x13e>
                    {
                        /** button long pressed detected */
                        handle->Button_Event = Button_Long_Pressed;
 80018fe:	683b      	ldr	r3, [r7, #0]
 8001900:	2203      	movs	r2, #3
 8001902:	701a      	strb	r2, [r3, #0]
                        /** 0xFF for long press */
                        handle->Button_Clicked_Count = 0xFF;
 8001904:	683b      	ldr	r3, [r7, #0]
 8001906:	22ff      	movs	r2, #255	; 0xff
 8001908:	731a      	strb	r2, [r3, #12]
                        handle->Button_Count_Captured = 0xFF;
 800190a:	683b      	ldr	r3, [r7, #0]
 800190c:	22ff      	movs	r2, #255	; 0xff
 800190e:	735a      	strb	r2, [r3, #13]
                        /** if button callback is defined, call it*/
                        if (handle->Callback != NULL)
 8001910:	683b      	ldr	r3, [r7, #0]
 8001912:	699b      	ldr	r3, [r3, #24]
 8001914:	2b00      	cmp	r3, #0
 8001916:	d005      	beq.n	8001924 <Button_Loop+0xb0>
                        {
                            handle->Callback(handle->Button_Clicked_Count);
 8001918:	683b      	ldr	r3, [r7, #0]
 800191a:	699b      	ldr	r3, [r3, #24]
 800191c:	683a      	ldr	r2, [r7, #0]
 800191e:	7b12      	ldrb	r2, [r2, #12]
 8001920:	4610      	mov	r0, r2
 8001922:	4798      	blx	r3
                        }
                        handle->Button_Clicked_Count = 0;
 8001924:	683b      	ldr	r3, [r7, #0]
 8001926:	2200      	movs	r2, #0
 8001928:	731a      	strb	r2, [r3, #12]
                    if (handle->Button_Pressed_Ticks < BUTTON_LONG_PRESSED_TICK)
 800192a:	e042      	b.n	80019b2 <Button_Loop+0x13e>
                    }
                }
                else
                {
                    /** button released detected */
                    handle->Button_Released_Ticks++;
 800192c:	683b      	ldr	r3, [r7, #0]
 800192e:	689b      	ldr	r3, [r3, #8]
 8001930:	1c5a      	adds	r2, r3, #1
 8001932:	683b      	ldr	r3, [r7, #0]
 8001934:	609a      	str	r2, [r3, #8]

                    /** if button was pressed for BUTTON_DEBOUNCE_TICK */
                    if (handle->Button_Pressed_Ticks > BUTTON_DEBOUNCE_TICK)
 8001936:	683b      	ldr	r3, [r7, #0]
 8001938:	685b      	ldr	r3, [r3, #4]
 800193a:	2b05      	cmp	r3, #5
 800193c:	d91c      	bls.n	8001978 <Button_Loop+0x104>
                    {
                        handle->Button_Pressed_Ticks = 0;
 800193e:	683b      	ldr	r3, [r7, #0]
 8001940:	2200      	movs	r2, #0
 8001942:	605a      	str	r2, [r3, #4]

                        if (handle->Button_Event == Button_Repressed)
 8001944:	683b      	ldr	r3, [r7, #0]
 8001946:	781b      	ldrb	r3, [r3, #0]
 8001948:	2b02      	cmp	r3, #2
 800194a:	d106      	bne.n	800195a <Button_Loop+0xe6>
                        {
                            handle->Button_Clicked_Count++;
 800194c:	683b      	ldr	r3, [r7, #0]
 800194e:	7b1b      	ldrb	r3, [r3, #12]
 8001950:	3301      	adds	r3, #1
 8001952:	b2da      	uxtb	r2, r3
 8001954:	683b      	ldr	r3, [r7, #0]
 8001956:	731a      	strb	r2, [r3, #12]
 8001958:	e00e      	b.n	8001978 <Button_Loop+0x104>
                        }
                        else if (handle->Button_Event == Button_Pressed)
 800195a:	683b      	ldr	r3, [r7, #0]
 800195c:	781b      	ldrb	r3, [r3, #0]
 800195e:	2b01      	cmp	r3, #1
 8001960:	d103      	bne.n	800196a <Button_Loop+0xf6>
                        {
                            handle->Button_Clicked_Count = 1;
 8001962:	683b      	ldr	r3, [r7, #0]
 8001964:	2201      	movs	r2, #1
 8001966:	731a      	strb	r2, [r3, #12]
 8001968:	e006      	b.n	8001978 <Button_Loop+0x104>
                        }
                        else if (handle->Button_Event == Button_Long_Pressed)
 800196a:	683b      	ldr	r3, [r7, #0]
 800196c:	781b      	ldrb	r3, [r3, #0]
 800196e:	2b03      	cmp	r3, #3
 8001970:	d102      	bne.n	8001978 <Button_Loop+0x104>
                        {
                            handle->Button_Event = Button_Idle;
 8001972:	683b      	ldr	r3, [r7, #0]
 8001974:	2200      	movs	r2, #0
 8001976:	701a      	strb	r2, [r3, #0]
                        }
                    }

                    /** if button released for BUTTON_CLICKED_TICK */
                    if (handle->Button_Released_Ticks > BUTTON_CLICKED_TICK)
 8001978:	683b      	ldr	r3, [r7, #0]
 800197a:	689b      	ldr	r3, [r3, #8]
 800197c:	2b0f      	cmp	r3, #15
 800197e:	d919      	bls.n	80019b4 <Button_Loop+0x140>
                    {
                        if (handle->Button_Event != Button_Idle)
 8001980:	683b      	ldr	r3, [r7, #0]
 8001982:	781b      	ldrb	r3, [r3, #0]
 8001984:	2b00      	cmp	r3, #0
 8001986:	d015      	beq.n	80019b4 <Button_Loop+0x140>
                        {
                            handle->Button_Event = Button_Idle;
 8001988:	683b      	ldr	r3, [r7, #0]
 800198a:	2200      	movs	r2, #0
 800198c:	701a      	strb	r2, [r3, #0]
                            /** capture the button click so we can read it manually if we want */
                            handle->Button_Count_Captured = handle->Button_Clicked_Count;
 800198e:	683b      	ldr	r3, [r7, #0]
 8001990:	7b1a      	ldrb	r2, [r3, #12]
 8001992:	683b      	ldr	r3, [r7, #0]
 8001994:	735a      	strb	r2, [r3, #13]
                            /** if button callback is defined, call it */
                            if (handle->Callback != NULL)
 8001996:	683b      	ldr	r3, [r7, #0]
 8001998:	699b      	ldr	r3, [r3, #24]
 800199a:	2b00      	cmp	r3, #0
 800199c:	d005      	beq.n	80019aa <Button_Loop+0x136>
                            {
                                handle->Callback(handle->Button_Clicked_Count);
 800199e:	683b      	ldr	r3, [r7, #0]
 80019a0:	699b      	ldr	r3, [r3, #24]
 80019a2:	683a      	ldr	r2, [r7, #0]
 80019a4:	7b12      	ldrb	r2, [r2, #12]
 80019a6:	4610      	mov	r0, r2
 80019a8:	4798      	blx	r3
                            }
                            /** reest click count after callback and start the scan again */
                            handle->Button_Clicked_Count = 0;
 80019aa:	683b      	ldr	r3, [r7, #0]
 80019ac:	2200      	movs	r2, #0
 80019ae:	731a      	strb	r2, [r3, #12]
 80019b0:	e000      	b.n	80019b4 <Button_Loop+0x140>
                    if (handle->Button_Pressed_Ticks < BUTTON_LONG_PRESSED_TICK)
 80019b2:	bf00      	nop
        for (uint8_t Index = 0; Index < Button_Count; Index++)
 80019b4:	79fb      	ldrb	r3, [r7, #7]
 80019b6:	3301      	adds	r3, #1
 80019b8:	71fb      	strb	r3, [r7, #7]
 80019ba:	4b07      	ldr	r3, [pc, #28]	; (80019d8 <Button_Loop+0x164>)
 80019bc:	781b      	ldrb	r3, [r3, #0]
 80019be:	79fa      	ldrb	r2, [r7, #7]
 80019c0:	429a      	cmp	r2, r3
 80019c2:	f4ff af6d 	bcc.w	80018a0 <Button_Loop+0x2c>
                    }
                }
            }
        }
    }
}
 80019c6:	bf00      	nop
 80019c8:	3708      	adds	r7, #8
 80019ca:	46bd      	mov	sp, r7
 80019cc:	bd80      	pop	{r7, pc}
 80019ce:	bf00      	nop
 80019d0:	20000078 	.word	0x20000078
 80019d4:	20000064 	.word	0x20000064
 80019d8:	20000074 	.word	0x20000074

080019dc <Button_Get_Status>:
 * @brief return the current state of button
 * @param handle handle of button
 * @retval return Button_Event
 */
Button_Event_t Button_Get_Status(Button_Struct_t *handle)
{
 80019dc:	b480      	push	{r7}
 80019de:	b083      	sub	sp, #12
 80019e0:	af00      	add	r7, sp, #0
 80019e2:	6078      	str	r0, [r7, #4]
    BUTTON_ASSERT(handle, "handle is NULL");

    if (handle != NULL)
 80019e4:	687b      	ldr	r3, [r7, #4]
 80019e6:	2b00      	cmp	r3, #0
 80019e8:	d002      	beq.n	80019f0 <Button_Get_Status+0x14>
    {
        return handle->Button_Event;
 80019ea:	687b      	ldr	r3, [r7, #4]
 80019ec:	781b      	ldrb	r3, [r3, #0]
 80019ee:	e000      	b.n	80019f2 <Button_Get_Status+0x16>
    }
    /** error*/
    return 0;
 80019f0:	2300      	movs	r3, #0
}
 80019f2:	4618      	mov	r0, r3
 80019f4:	370c      	adds	r7, #12
 80019f6:	46bd      	mov	sp, r7
 80019f8:	bc80      	pop	{r7}
 80019fa:	4770      	bx	lr

080019fc <Button_Get_Clicked_Count>:
 * @brief return the clicked count of button
 * @param handle handle of button
 * @retval return clicked count
 */
uint8_t Button_Get_Clicked_Count(Button_Struct_t *handle)
{
 80019fc:	b480      	push	{r7}
 80019fe:	b085      	sub	sp, #20
 8001a00:	af00      	add	r7, sp, #0
 8001a02:	6078      	str	r0, [r7, #4]
    BUTTON_ASSERT(handle, "handle is NULL");

    uint8_t count = 0;
 8001a04:	2300      	movs	r3, #0
 8001a06:	73fb      	strb	r3, [r7, #15]

    if (handle != NULL)
 8001a08:	687b      	ldr	r3, [r7, #4]
 8001a0a:	2b00      	cmp	r3, #0
 8001a0c:	d00d      	beq.n	8001a2a <Button_Get_Clicked_Count+0x2e>
    {
        if (handle->Button_Event == Button_Idle || handle->Button_Event == Button_Long_Pressed)
 8001a0e:	687b      	ldr	r3, [r7, #4]
 8001a10:	781b      	ldrb	r3, [r3, #0]
 8001a12:	2b00      	cmp	r3, #0
 8001a14:	d003      	beq.n	8001a1e <Button_Get_Clicked_Count+0x22>
 8001a16:	687b      	ldr	r3, [r7, #4]
 8001a18:	781b      	ldrb	r3, [r3, #0]
 8001a1a:	2b03      	cmp	r3, #3
 8001a1c:	d105      	bne.n	8001a2a <Button_Get_Clicked_Count+0x2e>
        {
            count = handle->Button_Count_Captured;
 8001a1e:	687b      	ldr	r3, [r7, #4]
 8001a20:	7b5b      	ldrb	r3, [r3, #13]
 8001a22:	73fb      	strb	r3, [r7, #15]
            handle->Button_Count_Captured = 0;
 8001a24:	687b      	ldr	r3, [r7, #4]
 8001a26:	2200      	movs	r2, #0
 8001a28:	735a      	strb	r2, [r3, #13]
        }
    }

    return count;
 8001a2a:	7bfb      	ldrb	r3, [r7, #15]
}
 8001a2c:	4618      	mov	r0, r3
 8001a2e:	3714      	adds	r7, #20
 8001a30:	46bd      	mov	sp, r7
 8001a32:	bc80      	pop	{r7}
 8001a34:	4770      	bx	lr
	...

08001a38 <main>:
/**
  * @brief  The application entry point.
  * @retval int
  */
int main(void)
{
 8001a38:	b580      	push	{r7, lr}
 8001a3a:	af00      	add	r7, sp, #0
  /* USER CODE END 1 */

  /* MCU Configuration--------------------------------------------------------*/

  /* Reset of all peripherals, Initializes the Flash interface and the Systick. */
  HAL_Init();
 8001a3c:	f004 fdca 	bl	80065d4 <HAL_Init>
  /* USER CODE BEGIN Init */

  /* USER CODE END Init */

  /* Configure the system clock */
  SystemClock_Config();
 8001a40:	f000 f8fc 	bl	8001c3c <SystemClock_Config>
  /* USER CODE BEGIN SysInit */

  /* USER CODE END SysInit */

  /* Initialize all configured peripherals */
  MX_GPIO_Init();
 8001a44:	f000 f9ca 	bl	8001ddc <MX_GPIO_Init>
  MX_USART1_UART_Init();
 8001a48:	f000 f974 	bl	8001d34 <MX_USART1_UART_Init>
  MX_SPI1_Init();
 8001a4c:	f000 f93c 	bl	8001cc8 <MX_SPI1_Init>
  MX_USART3_UART_Init();
 8001a50:	f000 f99a 	bl	8001d88 <MX_USART3_UART_Init>
  /* USER CODE BEGIN 2 */

//FLASH INIT
  	  W25qxx_Init();
 8001a54:	f004 fa42 	bl	8005edc <W25qxx_Init>
	//W25qxx_EraseChip();
	//W25qxx_EraseBlock(0); // 65536 
	//W25qxx_EraseSector(0); // 4096 

//DISPLAY INIT
	u8g2_Setup_st7565_nhd_c12864_f(&u8g2, U8G2_R2, u8x8_byte_4wire_hw_spi,
 8001a58:	4b5e      	ldr	r3, [pc, #376]	; (8001bd4 <main+0x19c>)
 8001a5a:	4a5f      	ldr	r2, [pc, #380]	; (8001bd8 <main+0x1a0>)
 8001a5c:	495f      	ldr	r1, [pc, #380]	; (8001bdc <main+0x1a4>)
 8001a5e:	4860      	ldr	r0, [pc, #384]	; (8001be0 <main+0x1a8>)
 8001a60:	f002 fc4e 	bl	8004300 <u8g2_Setup_st7565_nhd_c12864_f>
			u8g2_gpio_and_delay_stm32);
	u8g2_InitDisplay(&u8g2); 	 // send init sequence to the display, display is in sleep mode after this
 8001a64:	485e      	ldr	r0, [pc, #376]	; (8001be0 <main+0x1a8>)
 8001a66:	f004 f878 	bl	8005b5a <u8x8_InitDisplay>
	u8g2_SetPowerSave(&u8g2, 0); // wake up display
 8001a6a:	2100      	movs	r1, #0
 8001a6c:	485c      	ldr	r0, [pc, #368]	; (8001be0 <main+0x1a8>)
 8001a6e:	f004 f883 	bl	8005b78 <u8x8_SetPowerSave>
	u8g2_SetContrast(&u8g2, 250);
 8001a72:	21fa      	movs	r1, #250	; 0xfa
 8001a74:	485a      	ldr	r0, [pc, #360]	; (8001be0 <main+0x1a8>)
 8001a76:	f004 f890 	bl	8005b9a <u8x8_SetContrast>
	u8g2_ClearDisplay(&u8g2);
 8001a7a:	4859      	ldr	r0, [pc, #356]	; (8001be0 <main+0x1a8>)
 8001a7c:	f002 fc1b 	bl	80042b6 <u8g2_ClearDisplay>
	u8g2_SetFont(&u8g2, u8g2_font_courB18_tr);
 8001a80:	4958      	ldr	r1, [pc, #352]	; (8001be4 <main+0x1ac>)
 8001a82:	4857      	ldr	r0, [pc, #348]	; (8001be0 <main+0x1a8>)
 8001a84:	f003 f9e6 	bl	8004e54 <u8g2_SetFont>
	u8g2_DrawStr(&u8g2, 20, 30, "Hello!");
 8001a88:	4b57      	ldr	r3, [pc, #348]	; (8001be8 <main+0x1b0>)
 8001a8a:	221e      	movs	r2, #30
 8001a8c:	2114      	movs	r1, #20
 8001a8e:	4854      	ldr	r0, [pc, #336]	; (8001be0 <main+0x1a8>)
 8001a90:	f003 f942 	bl	8004d18 <u8g2_DrawStr>
	u8g2_SendBuffer(&u8g2);
 8001a94:	4852      	ldr	r0, [pc, #328]	; (8001be0 <main+0x1a8>)
 8001a96:	f002 fba6 	bl	80041e6 <u8g2_SendBuffer>
	HAL_Delay(1000);
 8001a9a:	f44f 707a 	mov.w	r0, #1000	; 0x3e8
 8001a9e:	f004 fdfb 	bl	8006698 <HAL_Delay>
	display_height = u8g2_GetDisplayHeight(&u8g2);
 8001aa2:	4b4f      	ldr	r3, [pc, #316]	; (8001be0 <main+0x1a8>)
 8001aa4:	f8b3 3046 	ldrh.w	r3, [r3, #70]	; 0x46
 8001aa8:	b2da      	uxtb	r2, r3
 8001aaa:	4b50      	ldr	r3, [pc, #320]	; (8001bec <main+0x1b4>)
 8001aac:	701a      	strb	r2, [r3, #0]
	display_width = u8g2_GetDisplayWidth(&u8g2);
 8001aae:	4b4c      	ldr	r3, [pc, #304]	; (8001be0 <main+0x1a8>)
 8001ab0:	f8b3 3044 	ldrh.w	r3, [r3, #68]	; 0x44
 8001ab4:	b2da      	uxtb	r2, r3
 8001ab6:	4b4e      	ldr	r3, [pc, #312]	; (8001bf0 <main+0x1b8>)
 8001ab8:	701a      	strb	r2, [r3, #0]
	display_num_lines = display_height / (LCD_FONT_HIGHT + LCD_LINE_SPACER);
 8001aba:	4b4c      	ldr	r3, [pc, #304]	; (8001bec <main+0x1b4>)
 8001abc:	781b      	ldrb	r3, [r3, #0]
 8001abe:	4a4d      	ldr	r2, [pc, #308]	; (8001bf4 <main+0x1bc>)
 8001ac0:	fba2 2303 	umull	r2, r3, r2, r3
 8001ac4:	08db      	lsrs	r3, r3, #3
 8001ac6:	b2da      	uxtb	r2, r3
 8001ac8:	4b4b      	ldr	r3, [pc, #300]	; (8001bf8 <main+0x1c0>)
 8001aca:	701a      	strb	r2, [r3, #0]

//BUTTONS INIT
	Button_A.Button_Init = NULL; //  
 8001acc:	4b4b      	ldr	r3, [pc, #300]	; (8001bfc <main+0x1c4>)
 8001ace:	2200      	movs	r2, #0
 8001ad0:	611a      	str	r2, [r3, #16]
	Button_A.Button_Read = Button_A_Read;
 8001ad2:	4b4a      	ldr	r3, [pc, #296]	; (8001bfc <main+0x1c4>)
 8001ad4:	4a4a      	ldr	r2, [pc, #296]	; (8001c00 <main+0x1c8>)
 8001ad6:	615a      	str	r2, [r3, #20]
	Button_A.Callback = NULL; //    NULL; /** without callback */
 8001ad8:	4b48      	ldr	r3, [pc, #288]	; (8001bfc <main+0x1c4>)
 8001ada:	2200      	movs	r2, #0
 8001adc:	619a      	str	r2, [r3, #24]
	Button_Add(&Button_A);
 8001ade:	4847      	ldr	r0, [pc, #284]	; (8001bfc <main+0x1c4>)
 8001ae0:	f7ff fe8e 	bl	8001800 <Button_Add>

	Button_B.Button_Init = NULL;
 8001ae4:	4b47      	ldr	r3, [pc, #284]	; (8001c04 <main+0x1cc>)
 8001ae6:	2200      	movs	r2, #0
 8001ae8:	611a      	str	r2, [r3, #16]
	Button_B.Button_Read = Button_B_Read;
 8001aea:	4b46      	ldr	r3, [pc, #280]	; (8001c04 <main+0x1cc>)
 8001aec:	4a46      	ldr	r2, [pc, #280]	; (8001c08 <main+0x1d0>)
 8001aee:	615a      	str	r2, [r3, #20]
	Button_B.Callback = NULL; //    NULL; /** without callback */
 8001af0:	4b44      	ldr	r3, [pc, #272]	; (8001c04 <main+0x1cc>)
 8001af2:	2200      	movs	r2, #0
 8001af4:	619a      	str	r2, [r3, #24]
	Button_Add(&Button_B);
 8001af6:	4843      	ldr	r0, [pc, #268]	; (8001c04 <main+0x1cc>)
 8001af8:	f7ff fe82 	bl	8001800 <Button_Add>

	Button_C.Button_Init = NULL;
 8001afc:	4b43      	ldr	r3, [pc, #268]	; (8001c0c <main+0x1d4>)
 8001afe:	2200      	movs	r2, #0
 8001b00:	611a      	str	r2, [r3, #16]
	Button_C.Button_Read = Button_C_Read;
 8001b02:	4b42      	ldr	r3, [pc, #264]	; (8001c0c <main+0x1d4>)
 8001b04:	4a42      	ldr	r2, [pc, #264]	; (8001c10 <main+0x1d8>)
 8001b06:	615a      	str	r2, [r3, #20]
	Button_C.Callback = NULL; //    NULL; /** without callback */
 8001b08:	4b40      	ldr	r3, [pc, #256]	; (8001c0c <main+0x1d4>)
 8001b0a:	2200      	movs	r2, #0
 8001b0c:	619a      	str	r2, [r3, #24]
	Button_Add(&Button_C);
 8001b0e:	483f      	ldr	r0, [pc, #252]	; (8001c0c <main+0x1d4>)
 8001b10:	f7ff fe76 	bl	8001800 <Button_Add>

	Button_D.Button_Init = NULL;
 8001b14:	4b3f      	ldr	r3, [pc, #252]	; (8001c14 <main+0x1dc>)
 8001b16:	2200      	movs	r2, #0
 8001b18:	611a      	str	r2, [r3, #16]
	Button_D.Button_Read = Button_D_Read;
 8001b1a:	4b3e      	ldr	r3, [pc, #248]	; (8001c14 <main+0x1dc>)
 8001b1c:	4a3e      	ldr	r2, [pc, #248]	; (8001c18 <main+0x1e0>)
 8001b1e:	615a      	str	r2, [r3, #20]
	Button_D.Callback = NULL; //    NULL; /** without callback */
 8001b20:	4b3c      	ldr	r3, [pc, #240]	; (8001c14 <main+0x1dc>)
 8001b22:	2200      	movs	r2, #0
 8001b24:	619a      	str	r2, [r3, #24]
	Button_Add(&Button_D);
 8001b26:	483b      	ldr	r0, [pc, #236]	; (8001c14 <main+0x1dc>)
 8001b28:	f7ff fe6a 	bl	8001800 <Button_Add>

//READ SETPOINTS FROM FLASH W25Q
	W25qxx_ReadBytes(SetpointsUnion.SetpointsArray, SETPOINTS_FLASH_SECTOR*FLASH_SECTOR_SIZE, MENU_SETPOINTS_NUM_ITEMS);
 8001b2c:	2219      	movs	r2, #25
 8001b2e:	f44f 4120 	mov.w	r1, #40960	; 0xa000
 8001b32:	483a      	ldr	r0, [pc, #232]	; (8001c1c <main+0x1e4>)
 8001b34:	f004 fcce 	bl	80064d4 <W25qxx_ReadBytes>

//ONE WIRE
	get_ROMid();
 8001b38:	f7ff fcc2 	bl	80014c0 <get_ROMid>
	InitGTimers();
 8001b3c:	f7ff fe1e 	bl	800177c <InitGTimers>
	StartGTimer(TIMER_PUMP_OFF);
 8001b40:	2000      	movs	r0, #0
 8001b42:	f7ff fe45 	bl	80017d0 <StartGTimer>
  /* Infinite loop */
  /* USER CODE BEGIN WHILE */
  while (1)
  {

	  if((HAL_GetTick() - time_b) > BLINK_INTERVAL) //  500
 8001b46:	f004 fd9d 	bl	8006684 <HAL_GetTick>
 8001b4a:	4602      	mov	r2, r0
 8001b4c:	4b34      	ldr	r3, [pc, #208]	; (8001c20 <main+0x1e8>)
 8001b4e:	681b      	ldr	r3, [r3, #0]
 8001b50:	1ad3      	subs	r3, r2, r3
 8001b52:	f5b3 7ffa 	cmp.w	r3, #500	; 0x1f4
 8001b56:	d915      	bls.n	8001b84 <main+0x14c>
	   {
		  flag_blink = !flag_blink;
 8001b58:	4b32      	ldr	r3, [pc, #200]	; (8001c24 <main+0x1ec>)
 8001b5a:	781b      	ldrb	r3, [r3, #0]
 8001b5c:	2b00      	cmp	r3, #0
 8001b5e:	bf14      	ite	ne
 8001b60:	2301      	movne	r3, #1
 8001b62:	2300      	moveq	r3, #0
 8001b64:	b2db      	uxtb	r3, r3
 8001b66:	f083 0301 	eor.w	r3, r3, #1
 8001b6a:	b2db      	uxtb	r3, r3
 8001b6c:	f003 0301 	and.w	r3, r3, #1
 8001b70:	b2da      	uxtb	r2, r3
 8001b72:	4b2c      	ldr	r3, [pc, #176]	; (8001c24 <main+0x1ec>)
 8001b74:	701a      	strb	r2, [r3, #0]
		  time_b = HAL_GetTick();
 8001b76:	f004 fd85 	bl	8006684 <HAL_GetTick>
 8001b7a:	4603      	mov	r3, r0
 8001b7c:	4a28      	ldr	r2, [pc, #160]	; (8001c20 <main+0x1e8>)
 8001b7e:	6013      	str	r3, [r2, #0]
		  get_Temperature();
 8001b80:	f7ff fd30 	bl	80015e4 <get_Temperature>
	   }

	  main_data.inside_temperature = Temp[0];
 8001b84:	4b28      	ldr	r3, [pc, #160]	; (8001c28 <main+0x1f0>)
 8001b86:	681b      	ldr	r3, [r3, #0]
 8001b88:	4a28      	ldr	r2, [pc, #160]	; (8001c2c <main+0x1f4>)
 8001b8a:	6053      	str	r3, [r2, #4]
	  main_data.outside_temperature = Temp[1];
 8001b8c:	4b26      	ldr	r3, [pc, #152]	; (8001c28 <main+0x1f0>)
 8001b8e:	685b      	ldr	r3, [r3, #4]
 8001b90:	4a26      	ldr	r2, [pc, #152]	; (8001c2c <main+0x1f4>)
 8001b92:	6013      	str	r3, [r2, #0]

	  fnMenuProcess();
 8001b94:	f001 f9d6 	bl	8002f44 <fnMenuProcess>

	  btn_state = fnGetPressKey();//  
 8001b98:	f001 fc02 	bl	80033a0 <fnGetPressKey>
 8001b9c:	4603      	mov	r3, r0
 8001b9e:	461a      	mov	r2, r3
 8001ba0:	4b23      	ldr	r3, [pc, #140]	; (8001c30 <main+0x1f8>)
 8001ba2:	801a      	strh	r2, [r3, #0]

	  ProcessTimers(&sys_timer);
 8001ba4:	4823      	ldr	r0, [pc, #140]	; (8001c34 <main+0x1fc>)
 8001ba6:	f7ff fdab 	bl	8001700 <ProcessTimers>

	  if (GetGTimer(TIMER_PUMP_OFF) >= SetpointsUnion.setpoints_data.pump_T_off*SEC) {
 8001baa:	2000      	movs	r0, #0
 8001bac:	f7ff fe00 	bl	80017b0 <GetGTimer>
 8001bb0:	4603      	mov	r3, r0
 8001bb2:	4a1a      	ldr	r2, [pc, #104]	; (8001c1c <main+0x1e4>)
 8001bb4:	7812      	ldrb	r2, [r2, #0]
 8001bb6:	4611      	mov	r1, r2
 8001bb8:	f44f 727a 	mov.w	r2, #1000	; 0x3e8
 8001bbc:	fb02 f201 	mul.w	r2, r2, r1
 8001bc0:	4293      	cmp	r3, r2
 8001bc2:	d3c0      	bcc.n	8001b46 <main+0x10e>
		  HAL_GPIO_TogglePin(LED_GPIO_Port, LED_Pin);
 8001bc4:	2102      	movs	r1, #2
 8001bc6:	481c      	ldr	r0, [pc, #112]	; (8001c38 <main+0x200>)
 8001bc8:	f005 f8fb 	bl	8006dc2 <HAL_GPIO_TogglePin>
		  StartGTimer(TIMER_PUMP_OFF);
 8001bcc:	2000      	movs	r0, #0
 8001bce:	f7ff fdff 	bl	80017d0 <StartGTimer>
	  if((HAL_GetTick() - time_b) > BLINK_INTERVAL) //  500
 8001bd2:	e7b8      	b.n	8001b46 <main+0x10e>
 8001bd4:	08001fd5 	.word	0x08001fd5
 8001bd8:	080020e9 	.word	0x080020e9
 8001bdc:	0800acd8 	.word	0x0800acd8
 8001be0:	20000a14 	.word	0x20000a14
 8001be4:	080094b0 	.word	0x080094b0
 8001be8:	08008a24 	.word	0x08008a24
 8001bec:	2000092d 	.word	0x2000092d
 8001bf0:	20000b4c 	.word	0x20000b4c
 8001bf4:	aaaaaaab 	.word	0xaaaaaaab
 8001bf8:	2000092c 	.word	0x2000092c
 8001bfc:	200009f8 	.word	0x200009f8
 8001c00:	08003545 	.word	0x08003545
 8001c04:	200009dc 	.word	0x200009dc
 8001c08:	08003565 	.word	0x08003565
 8001c0c:	200009c0 	.word	0x200009c0
 8001c10:	08003585 	.word	0x08003585
 8001c14:	200009a4 	.word	0x200009a4
 8001c18:	080035a5 	.word	0x080035a5
 8001c1c:	20000aec 	.word	0x20000aec
 8001c20:	20000088 	.word	0x20000088
 8001c24:	2000008c 	.word	0x2000008c
 8001c28:	200008f4 	.word	0x200008f4
 8001c2c:	20000988 	.word	0x20000988
 8001c30:	20000080 	.word	0x20000080
 8001c34:	20000494 	.word	0x20000494
 8001c38:	40010800 	.word	0x40010800

08001c3c <SystemClock_Config>:
/**
  * @brief System Clock Configuration
  * @retval None
  */
void SystemClock_Config(void)
{
 8001c3c:	b580      	push	{r7, lr}
 8001c3e:	b090      	sub	sp, #64	; 0x40
 8001c40:	af00      	add	r7, sp, #0
  RCC_OscInitTypeDef RCC_OscInitStruct = {0};
 8001c42:	f107 0318 	add.w	r3, r7, #24
 8001c46:	2228      	movs	r2, #40	; 0x28
 8001c48:	2100      	movs	r1, #0
 8001c4a:	4618      	mov	r0, r3
 8001c4c:	f006 fecc 	bl	80089e8 <memset>
  RCC_ClkInitTypeDef RCC_ClkInitStruct = {0};
 8001c50:	1d3b      	adds	r3, r7, #4
 8001c52:	2200      	movs	r2, #0
 8001c54:	601a      	str	r2, [r3, #0]
 8001c56:	605a      	str	r2, [r3, #4]
 8001c58:	609a      	str	r2, [r3, #8]
 8001c5a:	60da      	str	r2, [r3, #12]
 8001c5c:	611a      	str	r2, [r3, #16]

  /** Initializes the RCC Oscillators according to the specified parameters
  * in the RCC_OscInitTypeDef structure.
  */
  RCC_OscInitStruct.OscillatorType = RCC_OSCILLATORTYPE_HSE;
 8001c5e:	2301      	movs	r3, #1
 8001c60:	61bb      	str	r3, [r7, #24]
  RCC_OscInitStruct.HSEState = RCC_HSE_ON;
 8001c62:	f44f 3380 	mov.w	r3, #65536	; 0x10000
 8001c66:	61fb      	str	r3, [r7, #28]
  RCC_OscInitStruct.HSEPredivValue = RCC_HSE_PREDIV_DIV1;
 8001c68:	2300      	movs	r3, #0
 8001c6a:	623b      	str	r3, [r7, #32]
  RCC_OscInitStruct.HSIState = RCC_HSI_ON;
 8001c6c:	2301      	movs	r3, #1
 8001c6e:	62bb      	str	r3, [r7, #40]	; 0x28
  RCC_OscInitStruct.PLL.PLLState = RCC_PLL_ON;
 8001c70:	2302      	movs	r3, #2
 8001c72:	637b      	str	r3, [r7, #52]	; 0x34
  RCC_OscInitStruct.PLL.PLLSource = RCC_PLLSOURCE_HSE;
 8001c74:	f44f 3380 	mov.w	r3, #65536	; 0x10000
 8001c78:	63bb      	str	r3, [r7, #56]	; 0x38
  RCC_OscInitStruct.PLL.PLLMUL = RCC_PLL_MUL9;
 8001c7a:	f44f 13e0 	mov.w	r3, #1835008	; 0x1c0000
 8001c7e:	63fb      	str	r3, [r7, #60]	; 0x3c
  if (HAL_RCC_OscConfig(&RCC_OscInitStruct) != HAL_OK)
 8001c80:	f107 0318 	add.w	r3, r7, #24
 8001c84:	4618      	mov	r0, r3
 8001c86:	f005 f8b5 	bl	8006df4 <HAL_RCC_OscConfig>
 8001c8a:	4603      	mov	r3, r0
 8001c8c:	2b00      	cmp	r3, #0
 8001c8e:	d001      	beq.n	8001c94 <SystemClock_Config+0x58>
  {
    Error_Handler();
 8001c90:	f001 fc98 	bl	80035c4 <Error_Handler>
  }
  /** Initializes the CPU, AHB and APB buses clocks
  */
  RCC_ClkInitStruct.ClockType = RCC_CLOCKTYPE_HCLK|RCC_CLOCKTYPE_SYSCLK
 8001c94:	230f      	movs	r3, #15
 8001c96:	607b      	str	r3, [r7, #4]
                              |RCC_CLOCKTYPE_PCLK1|RCC_CLOCKTYPE_PCLK2;
  RCC_ClkInitStruct.SYSCLKSource = RCC_SYSCLKSOURCE_PLLCLK;
 8001c98:	2302      	movs	r3, #2
 8001c9a:	60bb      	str	r3, [r7, #8]
  RCC_ClkInitStruct.AHBCLKDivider = RCC_SYSCLK_DIV1;
 8001c9c:	2300      	movs	r3, #0
 8001c9e:	60fb      	str	r3, [r7, #12]
  RCC_ClkInitStruct.APB1CLKDivider = RCC_HCLK_DIV2;
 8001ca0:	f44f 6380 	mov.w	r3, #1024	; 0x400
 8001ca4:	613b      	str	r3, [r7, #16]
  RCC_ClkInitStruct.APB2CLKDivider = RCC_HCLK_DIV1;
 8001ca6:	2300      	movs	r3, #0
 8001ca8:	617b      	str	r3, [r7, #20]

  if (HAL_RCC_ClockConfig(&RCC_ClkInitStruct, FLASH_LATENCY_2) != HAL_OK)
 8001caa:	1d3b      	adds	r3, r7, #4
 8001cac:	2102      	movs	r1, #2
 8001cae:	4618      	mov	r0, r3
 8001cb0:	f005 fb20 	bl	80072f4 <HAL_RCC_ClockConfig>
 8001cb4:	4603      	mov	r3, r0
 8001cb6:	2b00      	cmp	r3, #0
 8001cb8:	d001      	beq.n	8001cbe <SystemClock_Config+0x82>
  {
    Error_Handler();
 8001cba:	f001 fc83 	bl	80035c4 <Error_Handler>
  }
}
 8001cbe:	bf00      	nop
 8001cc0:	3740      	adds	r7, #64	; 0x40
 8001cc2:	46bd      	mov	sp, r7
 8001cc4:	bd80      	pop	{r7, pc}
	...

08001cc8 <MX_SPI1_Init>:
  * @brief SPI1 Initialization Function
  * @param None
  * @retval None
  */
static void MX_SPI1_Init(void)
{
 8001cc8:	b580      	push	{r7, lr}
 8001cca:	af00      	add	r7, sp, #0

  /* USER CODE BEGIN SPI1_Init 1 */

  /* USER CODE END SPI1_Init 1 */
  /* SPI1 parameter configuration*/
  hspi1.Instance = SPI1;
 8001ccc:	4b17      	ldr	r3, [pc, #92]	; (8001d2c <MX_SPI1_Init+0x64>)
 8001cce:	4a18      	ldr	r2, [pc, #96]	; (8001d30 <MX_SPI1_Init+0x68>)
 8001cd0:	601a      	str	r2, [r3, #0]
  hspi1.Init.Mode = SPI_MODE_MASTER;
 8001cd2:	4b16      	ldr	r3, [pc, #88]	; (8001d2c <MX_SPI1_Init+0x64>)
 8001cd4:	f44f 7282 	mov.w	r2, #260	; 0x104
 8001cd8:	605a      	str	r2, [r3, #4]
  hspi1.Init.Direction = SPI_DIRECTION_2LINES;
 8001cda:	4b14      	ldr	r3, [pc, #80]	; (8001d2c <MX_SPI1_Init+0x64>)
 8001cdc:	2200      	movs	r2, #0
 8001cde:	609a      	str	r2, [r3, #8]
  hspi1.Init.DataSize = SPI_DATASIZE_8BIT;
 8001ce0:	4b12      	ldr	r3, [pc, #72]	; (8001d2c <MX_SPI1_Init+0x64>)
 8001ce2:	2200      	movs	r2, #0
 8001ce4:	60da      	str	r2, [r3, #12]
  hspi1.Init.CLKPolarity = SPI_POLARITY_LOW;
 8001ce6:	4b11      	ldr	r3, [pc, #68]	; (8001d2c <MX_SPI1_Init+0x64>)
 8001ce8:	2200      	movs	r2, #0
 8001cea:	611a      	str	r2, [r3, #16]
  hspi1.Init.CLKPhase = SPI_PHASE_1EDGE;
 8001cec:	4b0f      	ldr	r3, [pc, #60]	; (8001d2c <MX_SPI1_Init+0x64>)
 8001cee:	2200      	movs	r2, #0
 8001cf0:	615a      	str	r2, [r3, #20]
  hspi1.Init.NSS = SPI_NSS_SOFT;
 8001cf2:	4b0e      	ldr	r3, [pc, #56]	; (8001d2c <MX_SPI1_Init+0x64>)
 8001cf4:	f44f 7200 	mov.w	r2, #512	; 0x200
 8001cf8:	619a      	str	r2, [r3, #24]
  hspi1.Init.BaudRatePrescaler = SPI_BAUDRATEPRESCALER_16;
 8001cfa:	4b0c      	ldr	r3, [pc, #48]	; (8001d2c <MX_SPI1_Init+0x64>)
 8001cfc:	2218      	movs	r2, #24
 8001cfe:	61da      	str	r2, [r3, #28]
  hspi1.Init.FirstBit = SPI_FIRSTBIT_MSB;
 8001d00:	4b0a      	ldr	r3, [pc, #40]	; (8001d2c <MX_SPI1_Init+0x64>)
 8001d02:	2200      	movs	r2, #0
 8001d04:	621a      	str	r2, [r3, #32]
  hspi1.Init.TIMode = SPI_TIMODE_DISABLE;
 8001d06:	4b09      	ldr	r3, [pc, #36]	; (8001d2c <MX_SPI1_Init+0x64>)
 8001d08:	2200      	movs	r2, #0
 8001d0a:	625a      	str	r2, [r3, #36]	; 0x24
  hspi1.Init.CRCCalculation = SPI_CRCCALCULATION_DISABLE;
 8001d0c:	4b07      	ldr	r3, [pc, #28]	; (8001d2c <MX_SPI1_Init+0x64>)
 8001d0e:	2200      	movs	r2, #0
 8001d10:	629a      	str	r2, [r3, #40]	; 0x28
  hspi1.Init.CRCPolynomial = 10;
 8001d12:	4b06      	ldr	r3, [pc, #24]	; (8001d2c <MX_SPI1_Init+0x64>)
 8001d14:	220a      	movs	r2, #10
 8001d16:	62da      	str	r2, [r3, #44]	; 0x2c
  if (HAL_SPI_Init(&hspi1) != HAL_OK)
 8001d18:	4804      	ldr	r0, [pc, #16]	; (8001d2c <MX_SPI1_Init+0x64>)
 8001d1a:	f005 fc85 	bl	8007628 <HAL_SPI_Init>
 8001d1e:	4603      	mov	r3, r0
 8001d20:	2b00      	cmp	r3, #0
 8001d22:	d001      	beq.n	8001d28 <MX_SPI1_Init+0x60>
  {
    Error_Handler();
 8001d24:	f001 fc4e 	bl	80035c4 <Error_Handler>
  }
  /* USER CODE BEGIN SPI1_Init 2 */

  /* USER CODE END SPI1_Init 2 */

}
 8001d28:	bf00      	nop
 8001d2a:	bd80      	pop	{r7, pc}
 8001d2c:	20000930 	.word	0x20000930
 8001d30:	40013000 	.word	0x40013000

08001d34 <MX_USART1_UART_Init>:
  * @brief USART1 Initialization Function
  * @param None
  * @retval None
  */
static void MX_USART1_UART_Init(void)
{
 8001d34:	b580      	push	{r7, lr}
 8001d36:	af00      	add	r7, sp, #0
  /* USER CODE END USART1_Init 0 */

  /* USER CODE BEGIN USART1_Init 1 */

  /* USER CODE END USART1_Init 1 */
  huart1.Instance = USART1;
 8001d38:	4b11      	ldr	r3, [pc, #68]	; (8001d80 <MX_USART1_UART_Init+0x4c>)
 8001d3a:	4a12      	ldr	r2, [pc, #72]	; (8001d84 <MX_USART1_UART_Init+0x50>)
 8001d3c:	601a      	str	r2, [r3, #0]
  huart1.Init.BaudRate = 115200;
 8001d3e:	4b10      	ldr	r3, [pc, #64]	; (8001d80 <MX_USART1_UART_Init+0x4c>)
 8001d40:	f44f 32e1 	mov.w	r2, #115200	; 0x1c200
 8001d44:	605a      	str	r2, [r3, #4]
  huart1.Init.WordLength = UART_WORDLENGTH_8B;
 8001d46:	4b0e      	ldr	r3, [pc, #56]	; (8001d80 <MX_USART1_UART_Init+0x4c>)
 8001d48:	2200      	movs	r2, #0
 8001d4a:	609a      	str	r2, [r3, #8]
  huart1.Init.StopBits = UART_STOPBITS_1;
 8001d4c:	4b0c      	ldr	r3, [pc, #48]	; (8001d80 <MX_USART1_UART_Init+0x4c>)
 8001d4e:	2200      	movs	r2, #0
 8001d50:	60da      	str	r2, [r3, #12]
  huart1.Init.Parity = UART_PARITY_NONE;
 8001d52:	4b0b      	ldr	r3, [pc, #44]	; (8001d80 <MX_USART1_UART_Init+0x4c>)
 8001d54:	2200      	movs	r2, #0
 8001d56:	611a      	str	r2, [r3, #16]
  huart1.Init.Mode = UART_MODE_TX_RX;
 8001d58:	4b09      	ldr	r3, [pc, #36]	; (8001d80 <MX_USART1_UART_Init+0x4c>)
 8001d5a:	220c      	movs	r2, #12
 8001d5c:	615a      	str	r2, [r3, #20]
  huart1.Init.HwFlowCtl = UART_HWCONTROL_NONE;
 8001d5e:	4b08      	ldr	r3, [pc, #32]	; (8001d80 <MX_USART1_UART_Init+0x4c>)
 8001d60:	2200      	movs	r2, #0
 8001d62:	619a      	str	r2, [r3, #24]
  huart1.Init.OverSampling = UART_OVERSAMPLING_16;
 8001d64:	4b06      	ldr	r3, [pc, #24]	; (8001d80 <MX_USART1_UART_Init+0x4c>)
 8001d66:	2200      	movs	r2, #0
 8001d68:	61da      	str	r2, [r3, #28]
  if (HAL_UART_Init(&huart1) != HAL_OK)
 8001d6a:	4805      	ldr	r0, [pc, #20]	; (8001d80 <MX_USART1_UART_Init+0x4c>)
 8001d6c:	f006 f9c8 	bl	8008100 <HAL_UART_Init>
 8001d70:	4603      	mov	r3, r0
 8001d72:	2b00      	cmp	r3, #0
 8001d74:	d001      	beq.n	8001d7a <MX_USART1_UART_Init+0x46>
  {
    Error_Handler();
 8001d76:	f001 fc25 	bl	80035c4 <Error_Handler>
  }
  /* USER CODE BEGIN USART1_Init 2 */

  /* USER CODE END USART1_Init 2 */

}
 8001d7a:	bf00      	nop
 8001d7c:	bd80      	pop	{r7, pc}
 8001d7e:	bf00      	nop
 8001d80:	20000aa8 	.word	0x20000aa8
 8001d84:	40013800 	.word	0x40013800

08001d88 <MX_USART3_UART_Init>:
  * @brief USART3 Initialization Function
  * @param None
  * @retval None
  */
static void MX_USART3_UART_Init(void)
{
 8001d88:	b580      	push	{r7, lr}
 8001d8a:	af00      	add	r7, sp, #0
  /* USER CODE END USART3_Init 0 */

  /* USER CODE BEGIN USART3_Init 1 */

  /* USER CODE END USART3_Init 1 */
  huart3.Instance = USART3;
 8001d8c:	4b11      	ldr	r3, [pc, #68]	; (8001dd4 <MX_USART3_UART_Init+0x4c>)
 8001d8e:	4a12      	ldr	r2, [pc, #72]	; (8001dd8 <MX_USART3_UART_Init+0x50>)
 8001d90:	601a      	str	r2, [r3, #0]
  huart3.Init.BaudRate = 115200;
 8001d92:	4b10      	ldr	r3, [pc, #64]	; (8001dd4 <MX_USART3_UART_Init+0x4c>)
 8001d94:	f44f 32e1 	mov.w	r2, #115200	; 0x1c200
 8001d98:	605a      	str	r2, [r3, #4]
  huart3.Init.WordLength = UART_WORDLENGTH_8B;
 8001d9a:	4b0e      	ldr	r3, [pc, #56]	; (8001dd4 <MX_USART3_UART_Init+0x4c>)
 8001d9c:	2200      	movs	r2, #0
 8001d9e:	609a      	str	r2, [r3, #8]
  huart3.Init.StopBits = UART_STOPBITS_1;
 8001da0:	4b0c      	ldr	r3, [pc, #48]	; (8001dd4 <MX_USART3_UART_Init+0x4c>)
 8001da2:	2200      	movs	r2, #0
 8001da4:	60da      	str	r2, [r3, #12]
  huart3.Init.Parity = UART_PARITY_NONE;
 8001da6:	4b0b      	ldr	r3, [pc, #44]	; (8001dd4 <MX_USART3_UART_Init+0x4c>)
 8001da8:	2200      	movs	r2, #0
 8001daa:	611a      	str	r2, [r3, #16]
  huart3.Init.Mode = UART_MODE_TX_RX;
 8001dac:	4b09      	ldr	r3, [pc, #36]	; (8001dd4 <MX_USART3_UART_Init+0x4c>)
 8001dae:	220c      	movs	r2, #12
 8001db0:	615a      	str	r2, [r3, #20]
  huart3.Init.HwFlowCtl = UART_HWCONTROL_NONE;
 8001db2:	4b08      	ldr	r3, [pc, #32]	; (8001dd4 <MX_USART3_UART_Init+0x4c>)
 8001db4:	2200      	movs	r2, #0
 8001db6:	619a      	str	r2, [r3, #24]
  huart3.Init.OverSampling = UART_OVERSAMPLING_16;
 8001db8:	4b06      	ldr	r3, [pc, #24]	; (8001dd4 <MX_USART3_UART_Init+0x4c>)
 8001dba:	2200      	movs	r2, #0
 8001dbc:	61da      	str	r2, [r3, #28]
  if (HAL_HalfDuplex_Init(&huart3) != HAL_OK)
 8001dbe:	4805      	ldr	r0, [pc, #20]	; (8001dd4 <MX_USART3_UART_Init+0x4c>)
 8001dc0:	f006 f9eb 	bl	800819a <HAL_HalfDuplex_Init>
 8001dc4:	4603      	mov	r3, r0
 8001dc6:	2b00      	cmp	r3, #0
 8001dc8:	d001      	beq.n	8001dce <MX_USART3_UART_Init+0x46>
  {
    Error_Handler();
 8001dca:	f001 fbfb 	bl	80035c4 <Error_Handler>
  }
  /* USER CODE BEGIN USART3_Init 2 */

  /* USER CODE END USART3_Init 2 */

}
 8001dce:	bf00      	nop
 8001dd0:	bd80      	pop	{r7, pc}
 8001dd2:	bf00      	nop
 8001dd4:	20000b08 	.word	0x20000b08
 8001dd8:	40004800 	.word	0x40004800

08001ddc <MX_GPIO_Init>:
  * @brief GPIO Initialization Function
  * @param None
  * @retval None
  */
static void MX_GPIO_Init(void)
{
 8001ddc:	b580      	push	{r7, lr}
 8001dde:	b088      	sub	sp, #32
 8001de0:	af00      	add	r7, sp, #0
  GPIO_InitTypeDef GPIO_InitStruct = {0};
 8001de2:	f107 0310 	add.w	r3, r7, #16
 8001de6:	2200      	movs	r2, #0
 8001de8:	601a      	str	r2, [r3, #0]
 8001dea:	605a      	str	r2, [r3, #4]
 8001dec:	609a      	str	r2, [r3, #8]
 8001dee:	60da      	str	r2, [r3, #12]

  /* GPIO Ports Clock Enable */
  __HAL_RCC_GPIOC_CLK_ENABLE();
 8001df0:	4b3f      	ldr	r3, [pc, #252]	; (8001ef0 <MX_GPIO_Init+0x114>)
 8001df2:	699b      	ldr	r3, [r3, #24]
 8001df4:	4a3e      	ldr	r2, [pc, #248]	; (8001ef0 <MX_GPIO_Init+0x114>)
 8001df6:	f043 0310 	orr.w	r3, r3, #16
 8001dfa:	6193      	str	r3, [r2, #24]
 8001dfc:	4b3c      	ldr	r3, [pc, #240]	; (8001ef0 <MX_GPIO_Init+0x114>)
 8001dfe:	699b      	ldr	r3, [r3, #24]
 8001e00:	f003 0310 	and.w	r3, r3, #16
 8001e04:	60fb      	str	r3, [r7, #12]
 8001e06:	68fb      	ldr	r3, [r7, #12]
  __HAL_RCC_GPIOD_CLK_ENABLE();
 8001e08:	4b39      	ldr	r3, [pc, #228]	; (8001ef0 <MX_GPIO_Init+0x114>)
 8001e0a:	699b      	ldr	r3, [r3, #24]
 8001e0c:	4a38      	ldr	r2, [pc, #224]	; (8001ef0 <MX_GPIO_Init+0x114>)
 8001e0e:	f043 0320 	orr.w	r3, r3, #32
 8001e12:	6193      	str	r3, [r2, #24]
 8001e14:	4b36      	ldr	r3, [pc, #216]	; (8001ef0 <MX_GPIO_Init+0x114>)
 8001e16:	699b      	ldr	r3, [r3, #24]
 8001e18:	f003 0320 	and.w	r3, r3, #32
 8001e1c:	60bb      	str	r3, [r7, #8]
 8001e1e:	68bb      	ldr	r3, [r7, #8]
  __HAL_RCC_GPIOA_CLK_ENABLE();
 8001e20:	4b33      	ldr	r3, [pc, #204]	; (8001ef0 <MX_GPIO_Init+0x114>)
 8001e22:	699b      	ldr	r3, [r3, #24]
 8001e24:	4a32      	ldr	r2, [pc, #200]	; (8001ef0 <MX_GPIO_Init+0x114>)
 8001e26:	f043 0304 	orr.w	r3, r3, #4
 8001e2a:	6193      	str	r3, [r2, #24]
 8001e2c:	4b30      	ldr	r3, [pc, #192]	; (8001ef0 <MX_GPIO_Init+0x114>)
 8001e2e:	699b      	ldr	r3, [r3, #24]
 8001e30:	f003 0304 	and.w	r3, r3, #4
 8001e34:	607b      	str	r3, [r7, #4]
 8001e36:	687b      	ldr	r3, [r7, #4]
  __HAL_RCC_GPIOB_CLK_ENABLE();
 8001e38:	4b2d      	ldr	r3, [pc, #180]	; (8001ef0 <MX_GPIO_Init+0x114>)
 8001e3a:	699b      	ldr	r3, [r3, #24]
 8001e3c:	4a2c      	ldr	r2, [pc, #176]	; (8001ef0 <MX_GPIO_Init+0x114>)
 8001e3e:	f043 0308 	orr.w	r3, r3, #8
 8001e42:	6193      	str	r3, [r2, #24]
 8001e44:	4b2a      	ldr	r3, [pc, #168]	; (8001ef0 <MX_GPIO_Init+0x114>)
 8001e46:	699b      	ldr	r3, [r3, #24]
 8001e48:	f003 0308 	and.w	r3, r3, #8
 8001e4c:	603b      	str	r3, [r7, #0]
 8001e4e:	683b      	ldr	r3, [r7, #0]

  /*Configure GPIO pin Output Level */
  HAL_GPIO_WritePin(W25Q_CS_GPIO_Port, W25Q_CS_Pin, GPIO_PIN_RESET);
 8001e50:	2200      	movs	r2, #0
 8001e52:	f44f 5100 	mov.w	r1, #8192	; 0x2000
 8001e56:	4827      	ldr	r0, [pc, #156]	; (8001ef4 <MX_GPIO_Init+0x118>)
 8001e58:	f004 ff9b 	bl	8006d92 <HAL_GPIO_WritePin>

  /*Configure GPIO pin Output Level */
  HAL_GPIO_WritePin(LED_GPIO_Port, LED_Pin, GPIO_PIN_SET);
 8001e5c:	2201      	movs	r2, #1
 8001e5e:	2102      	movs	r1, #2
 8001e60:	4825      	ldr	r0, [pc, #148]	; (8001ef8 <MX_GPIO_Init+0x11c>)
 8001e62:	f004 ff96 	bl	8006d92 <HAL_GPIO_WritePin>

  /*Configure GPIO pin Output Level */
  HAL_GPIO_WritePin(GPIOA, LCD_RESET_Pin|LCD_CS_Pin, GPIO_PIN_RESET);
 8001e66:	2200      	movs	r2, #0
 8001e68:	2118      	movs	r1, #24
 8001e6a:	4823      	ldr	r0, [pc, #140]	; (8001ef8 <MX_GPIO_Init+0x11c>)
 8001e6c:	f004 ff91 	bl	8006d92 <HAL_GPIO_WritePin>

  /*Configure GPIO pin Output Level */
  HAL_GPIO_WritePin(LCD_DC_GPIO_Port, LCD_DC_Pin, GPIO_PIN_RESET);
 8001e70:	2200      	movs	r2, #0
 8001e72:	2101      	movs	r1, #1
 8001e74:	4821      	ldr	r0, [pc, #132]	; (8001efc <MX_GPIO_Init+0x120>)
 8001e76:	f004 ff8c 	bl	8006d92 <HAL_GPIO_WritePin>

  /*Configure GPIO pin : W25Q_CS_Pin */
  GPIO_InitStruct.Pin = W25Q_CS_Pin;
 8001e7a:	f44f 5300 	mov.w	r3, #8192	; 0x2000
 8001e7e:	613b      	str	r3, [r7, #16]
  GPIO_InitStruct.Mode = GPIO_MODE_OUTPUT_PP;
 8001e80:	2301      	movs	r3, #1
 8001e82:	617b      	str	r3, [r7, #20]
  GPIO_InitStruct.Pull = GPIO_NOPULL;
 8001e84:	2300      	movs	r3, #0
 8001e86:	61bb      	str	r3, [r7, #24]
  GPIO_InitStruct.Speed = GPIO_SPEED_FREQ_LOW;
 8001e88:	2302      	movs	r3, #2
 8001e8a:	61fb      	str	r3, [r7, #28]
  HAL_GPIO_Init(W25Q_CS_GPIO_Port, &GPIO_InitStruct);
 8001e8c:	f107 0310 	add.w	r3, r7, #16
 8001e90:	4619      	mov	r1, r3
 8001e92:	4818      	ldr	r0, [pc, #96]	; (8001ef4 <MX_GPIO_Init+0x118>)
 8001e94:	f004 fde2 	bl	8006a5c <HAL_GPIO_Init>

  /*Configure GPIO pins : LED_Pin LCD_RESET_Pin LCD_CS_Pin */
  GPIO_InitStruct.Pin = LED_Pin|LCD_RESET_Pin|LCD_CS_Pin;
 8001e98:	231a      	movs	r3, #26
 8001e9a:	613b      	str	r3, [r7, #16]
  GPIO_InitStruct.Mode = GPIO_MODE_OUTPUT_PP;
 8001e9c:	2301      	movs	r3, #1
 8001e9e:	617b      	str	r3, [r7, #20]
  GPIO_InitStruct.Pull = GPIO_NOPULL;
 8001ea0:	2300      	movs	r3, #0
 8001ea2:	61bb      	str	r3, [r7, #24]
  GPIO_InitStruct.Speed = GPIO_SPEED_FREQ_LOW;
 8001ea4:	2302      	movs	r3, #2
 8001ea6:	61fb      	str	r3, [r7, #28]
  HAL_GPIO_Init(GPIOA, &GPIO_InitStruct);
 8001ea8:	f107 0310 	add.w	r3, r7, #16
 8001eac:	4619      	mov	r1, r3
 8001eae:	4812      	ldr	r0, [pc, #72]	; (8001ef8 <MX_GPIO_Init+0x11c>)
 8001eb0:	f004 fdd4 	bl	8006a5c <HAL_GPIO_Init>

  /*Configure GPIO pin : LCD_DC_Pin */
  GPIO_InitStruct.Pin = LCD_DC_Pin;
 8001eb4:	2301      	movs	r3, #1
 8001eb6:	613b      	str	r3, [r7, #16]
  GPIO_InitStruct.Mode = GPIO_MODE_OUTPUT_PP;
 8001eb8:	2301      	movs	r3, #1
 8001eba:	617b      	str	r3, [r7, #20]
  GPIO_InitStruct.Pull = GPIO_NOPULL;
 8001ebc:	2300      	movs	r3, #0
 8001ebe:	61bb      	str	r3, [r7, #24]
  GPIO_InitStruct.Speed = GPIO_SPEED_FREQ_LOW;
 8001ec0:	2302      	movs	r3, #2
 8001ec2:	61fb      	str	r3, [r7, #28]
  HAL_GPIO_Init(LCD_DC_GPIO_Port, &GPIO_InitStruct);
 8001ec4:	f107 0310 	add.w	r3, r7, #16
 8001ec8:	4619      	mov	r1, r3
 8001eca:	480c      	ldr	r0, [pc, #48]	; (8001efc <MX_GPIO_Init+0x120>)
 8001ecc:	f004 fdc6 	bl	8006a5c <HAL_GPIO_Init>

  /*Configure GPIO pins : BUTTON_ENTER_Pin BUTTON_ESC_Pin BUTTON_UP_Pin BUTTON_DOWN_Pin */
  GPIO_InitStruct.Pin = BUTTON_ENTER_Pin|BUTTON_ESC_Pin|BUTTON_UP_Pin|BUTTON_DOWN_Pin;
 8001ed0:	2378      	movs	r3, #120	; 0x78
 8001ed2:	613b      	str	r3, [r7, #16]
  GPIO_InitStruct.Mode = GPIO_MODE_INPUT;
 8001ed4:	2300      	movs	r3, #0
 8001ed6:	617b      	str	r3, [r7, #20]
  GPIO_InitStruct.Pull = GPIO_PULLUP;
 8001ed8:	2301      	movs	r3, #1
 8001eda:	61bb      	str	r3, [r7, #24]
  HAL_GPIO_Init(GPIOB, &GPIO_InitStruct);
 8001edc:	f107 0310 	add.w	r3, r7, #16
 8001ee0:	4619      	mov	r1, r3
 8001ee2:	4806      	ldr	r0, [pc, #24]	; (8001efc <MX_GPIO_Init+0x120>)
 8001ee4:	f004 fdba 	bl	8006a5c <HAL_GPIO_Init>

}
 8001ee8:	bf00      	nop
 8001eea:	3720      	adds	r7, #32
 8001eec:	46bd      	mov	sp, r7
 8001eee:	bd80      	pop	{r7, pc}
 8001ef0:	40021000 	.word	0x40021000
 8001ef4:	40011000 	.word	0x40011000
 8001ef8:	40010800 	.word	0x40010800
 8001efc:	40010c00 	.word	0x40010c00

08001f00 <u8g_port_delay_ns>:


//****************************************************************************

//     
void u8g_port_delay_ns(uint8_t ns) {
 8001f00:	b480      	push	{r7}
 8001f02:	b085      	sub	sp, #20
 8001f04:	af00      	add	r7, sp, #0
 8001f06:	4603      	mov	r3, r0
 8001f08:	71fb      	strb	r3, [r7, #7]
	// Core @72 MHZ: 14ns per instruction.
	// __NOP(); is direct "nop;" instruction to cpu.
	// Divide ns / 28 (extra instruction for jump back to beginning of the loop) for loop cycles.
	for (uint8_t i = 0; i < (ns / 28); i++) {
 8001f0a:	2300      	movs	r3, #0
 8001f0c:	73fb      	strb	r3, [r7, #15]
 8001f0e:	e003      	b.n	8001f18 <u8g_port_delay_ns+0x18>
		__NOP();
 8001f10:	bf00      	nop
	for (uint8_t i = 0; i < (ns / 28); i++) {
 8001f12:	7bfb      	ldrb	r3, [r7, #15]
 8001f14:	3301      	adds	r3, #1
 8001f16:	73fb      	strb	r3, [r7, #15]
 8001f18:	79fb      	ldrb	r3, [r7, #7]
 8001f1a:	089b      	lsrs	r3, r3, #2
 8001f1c:	4a06      	ldr	r2, [pc, #24]	; (8001f38 <u8g_port_delay_ns+0x38>)
 8001f1e:	fba2 2303 	umull	r2, r3, r2, r3
 8001f22:	b2db      	uxtb	r3, r3
 8001f24:	7bfa      	ldrb	r2, [r7, #15]
 8001f26:	429a      	cmp	r2, r3
 8001f28:	d3f2      	bcc.n	8001f10 <u8g_port_delay_ns+0x10>
	}
}
 8001f2a:	bf00      	nop
 8001f2c:	bf00      	nop
 8001f2e:	3714      	adds	r7, #20
 8001f30:	46bd      	mov	sp, r7
 8001f32:	bc80      	pop	{r7}
 8001f34:	4770      	bx	lr
 8001f36:	bf00      	nop
 8001f38:	24924925 	.word	0x24924925
 8001f3c:	00000000 	.word	0x00000000

08001f40 <u8g_port_delay_100ns>:

void u8g_port_delay_100ns(uint8_t ns) {
 8001f40:	b5b0      	push	{r4, r5, r7, lr}
 8001f42:	b084      	sub	sp, #16
 8001f44:	af00      	add	r7, sp, #0
 8001f46:	4603      	mov	r3, r0
 8001f48:	71fb      	strb	r3, [r7, #7]
	// Same as in u8g_hw_port_delay_ns function.
	// 100 / 28 = 3.57;
	for (uint16_t i = 0; i < (ns * 3.57); i++) {
 8001f4a:	2300      	movs	r3, #0
 8001f4c:	81fb      	strh	r3, [r7, #14]
 8001f4e:	e003      	b.n	8001f58 <u8g_port_delay_100ns+0x18>
		__NOP();
 8001f50:	bf00      	nop
	for (uint16_t i = 0; i < (ns * 3.57); i++) {
 8001f52:	89fb      	ldrh	r3, [r7, #14]
 8001f54:	3301      	adds	r3, #1
 8001f56:	81fb      	strh	r3, [r7, #14]
 8001f58:	89fb      	ldrh	r3, [r7, #14]
 8001f5a:	4618      	mov	r0, r3
 8001f5c:	f7fe fb7e 	bl	800065c <__aeabi_i2d>
 8001f60:	4604      	mov	r4, r0
 8001f62:	460d      	mov	r5, r1
 8001f64:	79fb      	ldrb	r3, [r7, #7]
 8001f66:	4618      	mov	r0, r3
 8001f68:	f7fe fb78 	bl	800065c <__aeabi_i2d>
 8001f6c:	a30a      	add	r3, pc, #40	; (adr r3, 8001f98 <u8g_port_delay_100ns+0x58>)
 8001f6e:	e9d3 2300 	ldrd	r2, r3, [r3]
 8001f72:	f7fe f8f7 	bl	8000164 <__aeabi_dmul>
 8001f76:	4602      	mov	r2, r0
 8001f78:	460b      	mov	r3, r1
 8001f7a:	4620      	mov	r0, r4
 8001f7c:	4629      	mov	r1, r5
 8001f7e:	f7fe fc37 	bl	80007f0 <__aeabi_dcmplt>
 8001f82:	4603      	mov	r3, r0
 8001f84:	2b00      	cmp	r3, #0
 8001f86:	d1e3      	bne.n	8001f50 <u8g_port_delay_100ns+0x10>
	}
}
 8001f88:	bf00      	nop
 8001f8a:	bf00      	nop
 8001f8c:	3710      	adds	r7, #16
 8001f8e:	46bd      	mov	sp, r7
 8001f90:	bdb0      	pop	{r4, r5, r7, pc}
 8001f92:	bf00      	nop
 8001f94:	f3af 8000 	nop.w
 8001f98:	28f5c28f 	.word	0x28f5c28f
 8001f9c:	400c8f5c 	.word	0x400c8f5c

08001fa0 <u8g_port_delay_10us>:

void u8g_port_delay_10us(uint8_t us) {
 8001fa0:	b480      	push	{r7}
 8001fa2:	b085      	sub	sp, #20
 8001fa4:	af00      	add	r7, sp, #0
 8001fa6:	4603      	mov	r3, r0
 8001fa8:	71fb      	strb	r3, [r7, #7]
	// Same as in u8g_hw_port_delay_ns function.
	// 3.57 * 100 ? 357;
	for (uint16_t i = 0; i < (us * 357); i++) {
 8001faa:	2300      	movs	r3, #0
 8001fac:	81fb      	strh	r3, [r7, #14]
 8001fae:	e003      	b.n	8001fb8 <u8g_port_delay_10us+0x18>
		__NOP();
 8001fb0:	bf00      	nop
	for (uint16_t i = 0; i < (us * 357); i++) {
 8001fb2:	89fb      	ldrh	r3, [r7, #14]
 8001fb4:	3301      	adds	r3, #1
 8001fb6:	81fb      	strh	r3, [r7, #14]
 8001fb8:	89fa      	ldrh	r2, [r7, #14]
 8001fba:	79fb      	ldrb	r3, [r7, #7]
 8001fbc:	f240 1165 	movw	r1, #357	; 0x165
 8001fc0:	fb01 f303 	mul.w	r3, r1, r3
 8001fc4:	429a      	cmp	r2, r3
 8001fc6:	dbf3      	blt.n	8001fb0 <u8g_port_delay_10us+0x10>
	}
}
 8001fc8:	bf00      	nop
 8001fca:	bf00      	nop
 8001fcc:	3714      	adds	r7, #20
 8001fce:	46bd      	mov	sp, r7
 8001fd0:	bc80      	pop	{r7}
 8001fd2:	4770      	bx	lr

08001fd4 <u8g2_gpio_and_delay_stm32>:
//************************************************************************

//      gpio    
uint8_t u8g2_gpio_and_delay_stm32(U8X8_UNUSED u8x8_t *u8x8,
		U8X8_UNUSED uint8_t msg, U8X8_UNUSED uint8_t arg_int,
		U8X8_UNUSED void *arg_ptr) {
 8001fd4:	b580      	push	{r7, lr}
 8001fd6:	b084      	sub	sp, #16
 8001fd8:	af00      	add	r7, sp, #0
 8001fda:	60f8      	str	r0, [r7, #12]
 8001fdc:	607b      	str	r3, [r7, #4]
 8001fde:	460b      	mov	r3, r1
 8001fe0:	72fb      	strb	r3, [r7, #11]
 8001fe2:	4613      	mov	r3, r2
 8001fe4:	72bb      	strb	r3, [r7, #10]

	switch (msg) {
 8001fe6:	7afb      	ldrb	r3, [r7, #11]
 8001fe8:	3b28      	subs	r3, #40	; 0x28
 8001fea:	2b23      	cmp	r3, #35	; 0x23
 8001fec:	d873      	bhi.n	80020d6 <u8g2_gpio_and_delay_stm32+0x102>
 8001fee:	a201      	add	r2, pc, #4	; (adr r2, 8001ff4 <u8g2_gpio_and_delay_stm32+0x20>)
 8001ff0:	f852 f023 	ldr.w	pc, [r2, r3, lsl #2]
 8001ff4:	08002085 	.word	0x08002085
 8001ff8:	080020af 	.word	0x080020af
 8001ffc:	080020a5 	.word	0x080020a5
 8002000:	0800209b 	.word	0x0800209b
 8002004:	08002091 	.word	0x08002091
 8002008:	080020d7 	.word	0x080020d7
 800200c:	080020d7 	.word	0x080020d7
 8002010:	080020d7 	.word	0x080020d7
 8002014:	080020d7 	.word	0x080020d7
 8002018:	080020d7 	.word	0x080020d7
 800201c:	080020d7 	.word	0x080020d7
 8002020:	080020d7 	.word	0x080020d7
 8002024:	080020d7 	.word	0x080020d7
 8002028:	080020d7 	.word	0x080020d7
 800202c:	080020d7 	.word	0x080020d7
 8002030:	080020d7 	.word	0x080020d7
 8002034:	080020d7 	.word	0x080020d7
 8002038:	080020d7 	.word	0x080020d7
 800203c:	080020d7 	.word	0x080020d7
 8002040:	080020d7 	.word	0x080020d7
 8002044:	080020d7 	.word	0x080020d7
 8002048:	080020d7 	.word	0x080020d7
 800204c:	080020d7 	.word	0x080020d7
 8002050:	080020d7 	.word	0x080020d7
 8002054:	080020d7 	.word	0x080020d7
 8002058:	080020d7 	.word	0x080020d7
 800205c:	080020d7 	.word	0x080020d7
 8002060:	080020d7 	.word	0x080020d7
 8002064:	080020d7 	.word	0x080020d7
 8002068:	080020d7 	.word	0x080020d7
 800206c:	080020d7 	.word	0x080020d7
 8002070:	080020d7 	.word	0x080020d7
 8002074:	080020d7 	.word	0x080020d7
 8002078:	080020d7 	.word	0x080020d7
 800207c:	080020d7 	.word	0x080020d7
 8002080:	080020b9 	.word	0x080020b9

		case U8X8_MSG_GPIO_AND_DELAY_INIT:
		HAL_GPIO_WritePin(LCD_CS_GPIO_Port, LCD_CS_Pin, RESET);
 8002084:	2200      	movs	r2, #0
 8002086:	2110      	movs	r1, #16
 8002088:	4816      	ldr	r0, [pc, #88]	; (80020e4 <u8g2_gpio_and_delay_stm32+0x110>)
 800208a:	f004 fe82 	bl	8006d92 <HAL_GPIO_WritePin>
		break;
 800208e:	e024      	b.n	80020da <u8g2_gpio_and_delay_stm32+0x106>

		case U8X8_MSG_DELAY_NANO:
		u8g_port_delay_ns(arg_int);
 8002090:	7abb      	ldrb	r3, [r7, #10]
 8002092:	4618      	mov	r0, r3
 8002094:	f7ff ff34 	bl	8001f00 <u8g_port_delay_ns>
		break;
 8002098:	e01f      	b.n	80020da <u8g2_gpio_and_delay_stm32+0x106>

		case U8X8_MSG_DELAY_100NANO:
		u8g_port_delay_100ns(arg_int);
 800209a:	7abb      	ldrb	r3, [r7, #10]
 800209c:	4618      	mov	r0, r3
 800209e:	f7ff ff4f 	bl	8001f40 <u8g_port_delay_100ns>
		break;
 80020a2:	e01a      	b.n	80020da <u8g2_gpio_and_delay_stm32+0x106>

		case U8X8_MSG_DELAY_10MICRO:
		u8g_port_delay_10us(arg_int);
 80020a4:	7abb      	ldrb	r3, [r7, #10]
 80020a6:	4618      	mov	r0, r3
 80020a8:	f7ff ff7a 	bl	8001fa0 <u8g_port_delay_10us>
		break;
 80020ac:	e015      	b.n	80020da <u8g2_gpio_and_delay_stm32+0x106>

		case U8X8_MSG_DELAY_MILLI:
		HAL_Delay(arg_int);
 80020ae:	7abb      	ldrb	r3, [r7, #10]
 80020b0:	4618      	mov	r0, r3
 80020b2:	f004 faf1 	bl	8006698 <HAL_Delay>
		break;
 80020b6:	e010      	b.n	80020da <u8g2_gpio_and_delay_stm32+0x106>

		case U8X8_MSG_GPIO_RESET:
		if (arg_int)
 80020b8:	7abb      	ldrb	r3, [r7, #10]
 80020ba:	2b00      	cmp	r3, #0
 80020bc:	d005      	beq.n	80020ca <u8g2_gpio_and_delay_stm32+0xf6>
		HAL_GPIO_WritePin(LCD_RESET_GPIO_Port, LCD_RESET_Pin, SET);
 80020be:	2201      	movs	r2, #1
 80020c0:	2108      	movs	r1, #8
 80020c2:	4808      	ldr	r0, [pc, #32]	; (80020e4 <u8g2_gpio_and_delay_stm32+0x110>)
 80020c4:	f004 fe65 	bl	8006d92 <HAL_GPIO_WritePin>
		else
		HAL_GPIO_WritePin(LCD_RESET_GPIO_Port, LCD_RESET_Pin, RESET);
		break;
 80020c8:	e007      	b.n	80020da <u8g2_gpio_and_delay_stm32+0x106>
		HAL_GPIO_WritePin(LCD_RESET_GPIO_Port, LCD_RESET_Pin, RESET);
 80020ca:	2200      	movs	r2, #0
 80020cc:	2108      	movs	r1, #8
 80020ce:	4805      	ldr	r0, [pc, #20]	; (80020e4 <u8g2_gpio_and_delay_stm32+0x110>)
 80020d0:	f004 fe5f 	bl	8006d92 <HAL_GPIO_WritePin>
		break;
 80020d4:	e001      	b.n	80020da <u8g2_gpio_and_delay_stm32+0x106>
		default:
		return 0;//A message was received which is not implemented, return 0 to indicate an error
 80020d6:	2300      	movs	r3, #0
 80020d8:	e000      	b.n	80020dc <u8g2_gpio_and_delay_stm32+0x108>
	}

	return 1; // command processed successfully.
 80020da:	2301      	movs	r3, #1
}
 80020dc:	4618      	mov	r0, r3
 80020de:	3710      	adds	r7, #16
 80020e0:	46bd      	mov	sp, r7
 80020e2:	bd80      	pop	{r7, pc}
 80020e4:	40010800 	.word	0x40010800

080020e8 <u8x8_byte_4wire_hw_spi>:
//***************************************************************************************************

//       SPI
uint8_t u8x8_byte_4wire_hw_spi(u8x8_t *u8x8, uint8_t msg, uint8_t arg_int,
		void *arg_ptr) {
 80020e8:	b580      	push	{r7, lr}
 80020ea:	b084      	sub	sp, #16
 80020ec:	af00      	add	r7, sp, #0
 80020ee:	60f8      	str	r0, [r7, #12]
 80020f0:	607b      	str	r3, [r7, #4]
 80020f2:	460b      	mov	r3, r1
 80020f4:	72fb      	strb	r3, [r7, #11]
 80020f6:	4613      	mov	r3, r2
 80020f8:	72bb      	strb	r3, [r7, #10]

	switch (msg) {
 80020fa:	7afb      	ldrb	r3, [r7, #11]
 80020fc:	3b14      	subs	r3, #20
 80020fe:	2b0c      	cmp	r3, #12
 8002100:	d837      	bhi.n	8002172 <u8x8_byte_4wire_hw_spi+0x8a>
 8002102:	a201      	add	r2, pc, #4	; (adr r2, 8002108 <u8x8_byte_4wire_hw_spi+0x20>)
 8002104:	f852 f023 	ldr.w	pc, [r2, r3, lsl #2]
 8002108:	08002177 	.word	0x08002177
 800210c:	08002173 	.word	0x08002173
 8002110:	08002173 	.word	0x08002173
 8002114:	0800213d 	.word	0x0800213d
 8002118:	0800215b 	.word	0x0800215b
 800211c:	08002167 	.word	0x08002167
 8002120:	08002173 	.word	0x08002173
 8002124:	08002173 	.word	0x08002173
 8002128:	08002173 	.word	0x08002173
 800212c:	08002173 	.word	0x08002173
 8002130:	08002173 	.word	0x08002173
 8002134:	08002173 	.word	0x08002173
 8002138:	0800214d 	.word	0x0800214d
	case U8X8_MSG_BYTE_SEND:
		HAL_SPI_Transmit(&hspi1, (uint8_t*) arg_ptr, arg_int, 100);
 800213c:	7abb      	ldrb	r3, [r7, #10]
 800213e:	b29a      	uxth	r2, r3
 8002140:	2364      	movs	r3, #100	; 0x64
 8002142:	6879      	ldr	r1, [r7, #4]
 8002144:	480f      	ldr	r0, [pc, #60]	; (8002184 <u8x8_byte_4wire_hw_spi+0x9c>)
 8002146:	f005 faf3 	bl	8007730 <HAL_SPI_Transmit>
		break;
 800214a:	e015      	b.n	8002178 <u8x8_byte_4wire_hw_spi+0x90>

	case U8X8_MSG_BYTE_INIT:
		break;

	case U8X8_MSG_BYTE_SET_DC:
		 HAL_GPIO_WritePin(LCD_DC_GPIO_Port, LCD_DC_Pin, arg_int);
 800214c:	7abb      	ldrb	r3, [r7, #10]
 800214e:	461a      	mov	r2, r3
 8002150:	2101      	movs	r1, #1
 8002152:	480d      	ldr	r0, [pc, #52]	; (8002188 <u8x8_byte_4wire_hw_spi+0xa0>)
 8002154:	f004 fe1d 	bl	8006d92 <HAL_GPIO_WritePin>
		break;
 8002158:	e00e      	b.n	8002178 <u8x8_byte_4wire_hw_spi+0x90>

	case U8X8_MSG_BYTE_START_TRANSFER:
		HAL_GPIO_WritePin(LCD_CS_GPIO_Port, LCD_CS_Pin, RESET);
 800215a:	2200      	movs	r2, #0
 800215c:	2110      	movs	r1, #16
 800215e:	480b      	ldr	r0, [pc, #44]	; (800218c <u8x8_byte_4wire_hw_spi+0xa4>)
 8002160:	f004 fe17 	bl	8006d92 <HAL_GPIO_WritePin>
		break;
 8002164:	e008      	b.n	8002178 <u8x8_byte_4wire_hw_spi+0x90>

	case U8X8_MSG_BYTE_END_TRANSFER:
		HAL_GPIO_WritePin(LCD_CS_GPIO_Port, LCD_CS_Pin, SET);
 8002166:	2201      	movs	r2, #1
 8002168:	2110      	movs	r1, #16
 800216a:	4808      	ldr	r0, [pc, #32]	; (800218c <u8x8_byte_4wire_hw_spi+0xa4>)
 800216c:	f004 fe11 	bl	8006d92 <HAL_GPIO_WritePin>
		break;
 8002170:	e002      	b.n	8002178 <u8x8_byte_4wire_hw_spi+0x90>

	default:
		return 0;
 8002172:	2300      	movs	r3, #0
 8002174:	e001      	b.n	800217a <u8x8_byte_4wire_hw_spi+0x92>
		break;
 8002176:	bf00      	nop
	}
	return 1;
 8002178:	2301      	movs	r3, #1
}
 800217a:	4618      	mov	r0, r3
 800217c:	3710      	adds	r7, #16
 800217e:	46bd      	mov	sp, r7
 8002180:	bd80      	pop	{r7, pc}
 8002182:	bf00      	nop
 8002184:	20000930 	.word	0x20000930
 8002188:	40010c00 	.word	0x40010c00
 800218c:	40010800 	.word	0x40010800

08002190 <fnPrintMenuItemName>:
//*****************************************************************************************

//      progmem (   ) --------------
void fnPrintMenuItemName(uint8_t _num_item, uint8_t _num_line, const char* const* _names) {
 8002190:	b580      	push	{r7, lr}
 8002192:	b08c      	sub	sp, #48	; 0x30
 8002194:	af00      	add	r7, sp, #0
 8002196:	4603      	mov	r3, r0
 8002198:	603a      	str	r2, [r7, #0]
 800219a:	71fb      	strb	r3, [r7, #7]
 800219c:	460b      	mov	r3, r1
 800219e:	71bb      	strb	r3, [r7, #6]

  char buffer[32] = {0,};                            //    
 80021a0:	2300      	movs	r3, #0
 80021a2:	60bb      	str	r3, [r7, #8]
 80021a4:	f107 030c 	add.w	r3, r7, #12
 80021a8:	2200      	movs	r2, #0
 80021aa:	601a      	str	r2, [r3, #0]
 80021ac:	605a      	str	r2, [r3, #4]
 80021ae:	609a      	str	r2, [r3, #8]
 80021b0:	60da      	str	r2, [r3, #12]
 80021b2:	611a      	str	r2, [r3, #16]
 80021b4:	615a      	str	r2, [r3, #20]
 80021b6:	619a      	str	r2, [r3, #24]
  uint8_t i = 0;                                     //  - 
 80021b8:	2300      	movs	r3, #0
 80021ba:	f887 302f 	strb.w	r3, [r7, #47]	; 0x2f

  const char * ptr = _names[_num_item];			//      
 80021be:	79fb      	ldrb	r3, [r7, #7]
 80021c0:	009b      	lsls	r3, r3, #2
 80021c2:	683a      	ldr	r2, [r7, #0]
 80021c4:	4413      	add	r3, r2
 80021c6:	681b      	ldr	r3, [r3, #0]
 80021c8:	62bb      	str	r3, [r7, #40]	; 0x28


  do {                                            //  
    buffer[i] = *ptr;        					  //       PGM     1
 80021ca:	f897 302f 	ldrb.w	r3, [r7, #47]	; 0x2f
 80021ce:	6aba      	ldr	r2, [r7, #40]	; 0x28
 80021d0:	7812      	ldrb	r2, [r2, #0]
 80021d2:	f107 0130 	add.w	r1, r7, #48	; 0x30
 80021d6:	440b      	add	r3, r1
 80021d8:	f803 2c28 	strb.w	r2, [r3, #-40]
    i++;
 80021dc:	f897 302f 	ldrb.w	r3, [r7, #47]	; 0x2f
 80021e0:	3301      	adds	r3, #1
 80021e2:	f887 302f 	strb.w	r3, [r7, #47]	; 0x2f
    ptr++;
 80021e6:	6abb      	ldr	r3, [r7, #40]	; 0x28
 80021e8:	3301      	adds	r3, #1
 80021ea:	62bb      	str	r3, [r7, #40]	; 0x28
  } while (i<ITEM_MAX_CHARS);                     //      -    
 80021ec:	f897 302f 	ldrb.w	r3, [r7, #47]	; 0x2f
 80021f0:	2b10      	cmp	r3, #16
 80021f2:	d9ea      	bls.n	80021ca <fnPrintMenuItemName+0x3a>
      buffer[i++] = (char)(pgm_read_byte(ptr));   // 
      ptr++;                                      //  
    }
 */

  u8g2_SetFont(&u8g2,u8g2_font_6x12_tr);
 80021f4:	490d      	ldr	r1, [pc, #52]	; (800222c <fnPrintMenuItemName+0x9c>)
 80021f6:	480e      	ldr	r0, [pc, #56]	; (8002230 <fnPrintMenuItemName+0xa0>)
 80021f8:	f002 fe2c 	bl	8004e54 <u8g2_SetFont>
  u8g2_DrawStr(&u8g2,3,(_num_line*12)-1,buffer); //   
 80021fc:	79bb      	ldrb	r3, [r7, #6]
 80021fe:	b29b      	uxth	r3, r3
 8002200:	461a      	mov	r2, r3
 8002202:	0052      	lsls	r2, r2, #1
 8002204:	4413      	add	r3, r2
 8002206:	009b      	lsls	r3, r3, #2
 8002208:	b29b      	uxth	r3, r3
 800220a:	3b01      	subs	r3, #1
 800220c:	b29a      	uxth	r2, r3
 800220e:	f107 0308 	add.w	r3, r7, #8
 8002212:	2103      	movs	r1, #3
 8002214:	4806      	ldr	r0, [pc, #24]	; (8002230 <fnPrintMenuItemName+0xa0>)
 8002216:	f002 fd7f 	bl	8004d18 <u8g2_DrawStr>
  u8g2_SetFont(&u8g2,u8g2_font_ncenB08_tr);
 800221a:	4906      	ldr	r1, [pc, #24]	; (8002234 <fnPrintMenuItemName+0xa4>)
 800221c:	4804      	ldr	r0, [pc, #16]	; (8002230 <fnPrintMenuItemName+0xa0>)
 800221e:	f002 fe19 	bl	8004e54 <u8g2_SetFont>

}
 8002222:	bf00      	nop
 8002224:	3730      	adds	r7, #48	; 0x30
 8002226:	46bd      	mov	sp, r7
 8002228:	bd80      	pop	{r7, pc}
 800222a:	bf00      	nop
 800222c:	080090e4 	.word	0x080090e4
 8002230:	20000a14 	.word	0x20000a14
 8002234:	08009d74 	.word	0x08009d74

08002238 <fnPrintSelectionFrame>:
//*******************************************************************************************************************

//-----------       -------------------
void fnPrintSelectionFrame(uint8_t item_pointer) {
 8002238:	b580      	push	{r7, lr}
 800223a:	b086      	sub	sp, #24
 800223c:	af02      	add	r7, sp, #8
 800223e:	4603      	mov	r3, r0
 8002240:	71fb      	strb	r3, [r7, #7]

  uint8_t n = 0;
 8002242:	2300      	movs	r3, #0
 8002244:	73fb      	strb	r3, [r7, #15]


  if(item_pointer < display_num_lines)n = item_pointer;
 8002246:	4b31      	ldr	r3, [pc, #196]	; (800230c <fnPrintSelectionFrame+0xd4>)
 8002248:	781b      	ldrb	r3, [r3, #0]
 800224a:	79fa      	ldrb	r2, [r7, #7]
 800224c:	429a      	cmp	r2, r3
 800224e:	d202      	bcs.n	8002256 <fnPrintSelectionFrame+0x1e>
 8002250:	79fb      	ldrb	r3, [r7, #7]
 8002252:	73fb      	strb	r3, [r7, #15]
 8002254:	e008      	b.n	8002268 <fnPrintSelectionFrame+0x30>
  else n = item_pointer % display_num_lines;
 8002256:	4b2d      	ldr	r3, [pc, #180]	; (800230c <fnPrintSelectionFrame+0xd4>)
 8002258:	781a      	ldrb	r2, [r3, #0]
 800225a:	79fb      	ldrb	r3, [r7, #7]
 800225c:	fbb3 f1f2 	udiv	r1, r3, r2
 8002260:	fb02 f201 	mul.w	r2, r2, r1
 8002264:	1a9b      	subs	r3, r3, r2
 8002266:	73fb      	strb	r3, [r7, #15]

  if(menu_mode == MENU_SETPOINTS_EDIT_MODE){
 8002268:	4b29      	ldr	r3, [pc, #164]	; (8002310 <fnPrintSelectionFrame+0xd8>)
 800226a:	781b      	ldrb	r3, [r3, #0]
 800226c:	2b03      	cmp	r3, #3
 800226e:	d135      	bne.n	80022dc <fnPrintSelectionFrame+0xa4>


    if(flag_blink)u8g2_DrawFrame(&u8g2,0, n*(LCD_FONT_HIGHT + LCD_LINE_SPACER)+2, display_width-2, (LCD_FONT_HIGHT + LCD_LINE_SPACER));
 8002270:	4b28      	ldr	r3, [pc, #160]	; (8002314 <fnPrintSelectionFrame+0xdc>)
 8002272:	781b      	ldrb	r3, [r3, #0]
 8002274:	2b00      	cmp	r3, #0
 8002276:	d014      	beq.n	80022a2 <fnPrintSelectionFrame+0x6a>
 8002278:	7bfb      	ldrb	r3, [r7, #15]
 800227a:	b29b      	uxth	r3, r3
 800227c:	461a      	mov	r2, r3
 800227e:	0052      	lsls	r2, r2, #1
 8002280:	4413      	add	r3, r2
 8002282:	009b      	lsls	r3, r3, #2
 8002284:	b29b      	uxth	r3, r3
 8002286:	3302      	adds	r3, #2
 8002288:	b29a      	uxth	r2, r3
 800228a:	4b23      	ldr	r3, [pc, #140]	; (8002318 <fnPrintSelectionFrame+0xe0>)
 800228c:	781b      	ldrb	r3, [r3, #0]
 800228e:	b29b      	uxth	r3, r3
 8002290:	3b02      	subs	r3, #2
 8002292:	b29b      	uxth	r3, r3
 8002294:	210c      	movs	r1, #12
 8002296:	9100      	str	r1, [sp, #0]
 8002298:	2100      	movs	r1, #0
 800229a:	4820      	ldr	r0, [pc, #128]	; (800231c <fnPrintSelectionFrame+0xe4>)
 800229c:	f001 fed3 	bl	8004046 <u8g2_DrawFrame>
  }
  else{
	  u8g2_DrawFrame(&u8g2,0, n*(LCD_FONT_HIGHT + LCD_LINE_SPACER)+2, display_width-2, (LCD_FONT_HIGHT + LCD_LINE_SPACER));
  }

}
 80022a0:	e030      	b.n	8002304 <fnPrintSelectionFrame+0xcc>
      u8g2_SetDrawColor(&u8g2,0);
 80022a2:	2100      	movs	r1, #0
 80022a4:	481d      	ldr	r0, [pc, #116]	; (800231c <fnPrintSelectionFrame+0xe4>)
 80022a6:	f002 ff01 	bl	80050ac <u8g2_SetDrawColor>
      u8g2_DrawFrame(&u8g2,0, n*(LCD_FONT_HIGHT + LCD_LINE_SPACER)+2, display_width-2, (LCD_FONT_HIGHT + LCD_LINE_SPACER));
 80022aa:	7bfb      	ldrb	r3, [r7, #15]
 80022ac:	b29b      	uxth	r3, r3
 80022ae:	461a      	mov	r2, r3
 80022b0:	0052      	lsls	r2, r2, #1
 80022b2:	4413      	add	r3, r2
 80022b4:	009b      	lsls	r3, r3, #2
 80022b6:	b29b      	uxth	r3, r3
 80022b8:	3302      	adds	r3, #2
 80022ba:	b29a      	uxth	r2, r3
 80022bc:	4b16      	ldr	r3, [pc, #88]	; (8002318 <fnPrintSelectionFrame+0xe0>)
 80022be:	781b      	ldrb	r3, [r3, #0]
 80022c0:	b29b      	uxth	r3, r3
 80022c2:	3b02      	subs	r3, #2
 80022c4:	b29b      	uxth	r3, r3
 80022c6:	210c      	movs	r1, #12
 80022c8:	9100      	str	r1, [sp, #0]
 80022ca:	2100      	movs	r1, #0
 80022cc:	4813      	ldr	r0, [pc, #76]	; (800231c <fnPrintSelectionFrame+0xe4>)
 80022ce:	f001 feba 	bl	8004046 <u8g2_DrawFrame>
      u8g2_SetDrawColor(&u8g2,1);
 80022d2:	2101      	movs	r1, #1
 80022d4:	4811      	ldr	r0, [pc, #68]	; (800231c <fnPrintSelectionFrame+0xe4>)
 80022d6:	f002 fee9 	bl	80050ac <u8g2_SetDrawColor>
}
 80022da:	e013      	b.n	8002304 <fnPrintSelectionFrame+0xcc>
	  u8g2_DrawFrame(&u8g2,0, n*(LCD_FONT_HIGHT + LCD_LINE_SPACER)+2, display_width-2, (LCD_FONT_HIGHT + LCD_LINE_SPACER));
 80022dc:	7bfb      	ldrb	r3, [r7, #15]
 80022de:	b29b      	uxth	r3, r3
 80022e0:	461a      	mov	r2, r3
 80022e2:	0052      	lsls	r2, r2, #1
 80022e4:	4413      	add	r3, r2
 80022e6:	009b      	lsls	r3, r3, #2
 80022e8:	b29b      	uxth	r3, r3
 80022ea:	3302      	adds	r3, #2
 80022ec:	b29a      	uxth	r2, r3
 80022ee:	4b0a      	ldr	r3, [pc, #40]	; (8002318 <fnPrintSelectionFrame+0xe0>)
 80022f0:	781b      	ldrb	r3, [r3, #0]
 80022f2:	b29b      	uxth	r3, r3
 80022f4:	3b02      	subs	r3, #2
 80022f6:	b29b      	uxth	r3, r3
 80022f8:	210c      	movs	r1, #12
 80022fa:	9100      	str	r1, [sp, #0]
 80022fc:	2100      	movs	r1, #0
 80022fe:	4807      	ldr	r0, [pc, #28]	; (800231c <fnPrintSelectionFrame+0xe4>)
 8002300:	f001 fea1 	bl	8004046 <u8g2_DrawFrame>
}
 8002304:	bf00      	nop
 8002306:	3710      	adds	r7, #16
 8002308:	46bd      	mov	sp, r7
 800230a:	bd80      	pop	{r7, pc}
 800230c:	2000092c 	.word	0x2000092c
 8002310:	2000007e 	.word	0x2000007e
 8002314:	2000008c 	.word	0x2000008c
 8002318:	20000b4c 	.word	0x20000b4c
 800231c:	20000a14 	.word	0x20000a14

08002320 <printMenuSetpoints>:
//********************************************************************************************************************

//---------     ------------------------------------------------
void printMenuSetpoints(void){
 8002320:	b580      	push	{r7, lr}
 8002322:	b082      	sub	sp, #8
 8002324:	af00      	add	r7, sp, #0

  u8g2_ClearBuffer(&u8g2);				//
 8002326:	482d      	ldr	r0, [pc, #180]	; (80023dc <printMenuSetpoints+0xbc>)
 8002328:	f001 feea 	bl	8004100 <u8g2_ClearBuffer>
  u8g2_SetFont(&u8g2,u8g2_font_ncenB08_tr);
 800232c:	492c      	ldr	r1, [pc, #176]	; (80023e0 <printMenuSetpoints+0xc0>)
 800232e:	482b      	ldr	r0, [pc, #172]	; (80023dc <printMenuSetpoints+0xbc>)
 8002330:	f002 fd90 	bl	8004e54 <u8g2_SetFont>

  for (uint8_t i = 0; i < display_num_lines; i++) {   // ,    
 8002334:	2300      	movs	r3, #0
 8002336:	71fb      	strb	r3, [r7, #7]
 8002338:	e024      	b.n	8002384 <printMenuSetpoints+0x64>

    fnPrintMenuItemName(i+(menu_current_page*display_num_lines), i+1, setpoints_menu_names); //   
 800233a:	4b2a      	ldr	r3, [pc, #168]	; (80023e4 <printMenuSetpoints+0xc4>)
 800233c:	781b      	ldrb	r3, [r3, #0]
 800233e:	4a2a      	ldr	r2, [pc, #168]	; (80023e8 <printMenuSetpoints+0xc8>)
 8002340:	7812      	ldrb	r2, [r2, #0]
 8002342:	fb02 f303 	mul.w	r3, r2, r3
 8002346:	b2da      	uxtb	r2, r3
 8002348:	79fb      	ldrb	r3, [r7, #7]
 800234a:	4413      	add	r3, r2
 800234c:	b2d8      	uxtb	r0, r3
 800234e:	79fb      	ldrb	r3, [r7, #7]
 8002350:	3301      	adds	r3, #1
 8002352:	b2db      	uxtb	r3, r3
 8002354:	4a25      	ldr	r2, [pc, #148]	; (80023ec <printMenuSetpoints+0xcc>)
 8002356:	4619      	mov	r1, r3
 8002358:	f7ff ff1a 	bl	8002190 <fnPrintMenuItemName>
    fnPrintMenuSetpointsItemVal(i+(menu_current_page*display_num_lines), i+1); //     
 800235c:	4b21      	ldr	r3, [pc, #132]	; (80023e4 <printMenuSetpoints+0xc4>)
 800235e:	781b      	ldrb	r3, [r3, #0]
 8002360:	4a21      	ldr	r2, [pc, #132]	; (80023e8 <printMenuSetpoints+0xc8>)
 8002362:	7812      	ldrb	r2, [r2, #0]
 8002364:	fb02 f303 	mul.w	r3, r2, r3
 8002368:	b2da      	uxtb	r2, r3
 800236a:	79fb      	ldrb	r3, [r7, #7]
 800236c:	4413      	add	r3, r2
 800236e:	b2da      	uxtb	r2, r3
 8002370:	79fb      	ldrb	r3, [r7, #7]
 8002372:	3301      	adds	r3, #1
 8002374:	b2db      	uxtb	r3, r3
 8002376:	4619      	mov	r1, r3
 8002378:	4610      	mov	r0, r2
 800237a:	f000 f83d 	bl	80023f8 <fnPrintMenuSetpointsItemVal>
  for (uint8_t i = 0; i < display_num_lines; i++) {   // ,    
 800237e:	79fb      	ldrb	r3, [r7, #7]
 8002380:	3301      	adds	r3, #1
 8002382:	71fb      	strb	r3, [r7, #7]
 8002384:	4b18      	ldr	r3, [pc, #96]	; (80023e8 <printMenuSetpoints+0xc8>)
 8002386:	781b      	ldrb	r3, [r3, #0]
 8002388:	79fa      	ldrb	r2, [r7, #7]
 800238a:	429a      	cmp	r2, r3
 800238c:	d3d5      	bcc.n	800233a <printMenuSetpoints+0x1a>
  }

  // 
  fnPrintSelectionFrame(menu_current_item);
 800238e:	4b18      	ldr	r3, [pc, #96]	; (80023f0 <printMenuSetpoints+0xd0>)
 8002390:	781b      	ldrb	r3, [r3, #0]
 8002392:	4618      	mov	r0, r3
 8002394:	f7ff ff50 	bl	8002238 <fnPrintSelectionFrame>

  //   
  uint8_t scroll_bar_height = display_height/(MENU_SETPOINTS_NUM_ITEMS/display_num_lines);
 8002398:	4b16      	ldr	r3, [pc, #88]	; (80023f4 <printMenuSetpoints+0xd4>)
 800239a:	781b      	ldrb	r3, [r3, #0]
 800239c:	461a      	mov	r2, r3
 800239e:	4b12      	ldr	r3, [pc, #72]	; (80023e8 <printMenuSetpoints+0xc8>)
 80023a0:	781b      	ldrb	r3, [r3, #0]
 80023a2:	4619      	mov	r1, r3
 80023a4:	2319      	movs	r3, #25
 80023a6:	fb93 f3f1 	sdiv	r3, r3, r1
 80023aa:	fb92 f3f3 	sdiv	r3, r2, r3
 80023ae:	71bb      	strb	r3, [r7, #6]
  u8g2_DrawVLine(&u8g2,127, menu_current_page*scroll_bar_height, scroll_bar_height);
 80023b0:	4b0c      	ldr	r3, [pc, #48]	; (80023e4 <printMenuSetpoints+0xc4>)
 80023b2:	781b      	ldrb	r3, [r3, #0]
 80023b4:	b29b      	uxth	r3, r3
 80023b6:	79ba      	ldrb	r2, [r7, #6]
 80023b8:	b292      	uxth	r2, r2
 80023ba:	fb02 f303 	mul.w	r3, r2, r3
 80023be:	b29a      	uxth	r2, r3
 80023c0:	79bb      	ldrb	r3, [r7, #6]
 80023c2:	b29b      	uxth	r3, r3
 80023c4:	217f      	movs	r1, #127	; 0x7f
 80023c6:	4805      	ldr	r0, [pc, #20]	; (80023dc <printMenuSetpoints+0xbc>)
 80023c8:	f002 fe57 	bl	800507a <u8g2_DrawVLine>

  u8g2_SendBuffer(&u8g2);
 80023cc:	4803      	ldr	r0, [pc, #12]	; (80023dc <printMenuSetpoints+0xbc>)
 80023ce:	f001 ff0a 	bl	80041e6 <u8g2_SendBuffer>
}
 80023d2:	bf00      	nop
 80023d4:	3708      	adds	r7, #8
 80023d6:	46bd      	mov	sp, r7
 80023d8:	bd80      	pop	{r7, pc}
 80023da:	bf00      	nop
 80023dc:	20000a14 	.word	0x20000a14
 80023e0:	08009d74 	.word	0x08009d74
 80023e4:	2000007d 	.word	0x2000007d
 80023e8:	2000092c 	.word	0x2000092c
 80023ec:	08008d1c 	.word	0x08008d1c
 80023f0:	2000007c 	.word	0x2000007c
 80023f4:	2000092d 	.word	0x2000092d

080023f8 <fnPrintMenuSetpointsItemVal>:
//*************************************************************************************************************

//      ---------------------------------
void fnPrintMenuSetpointsItemVal(uint8_t num_item, uint8_t num_line){
 80023f8:	b580      	push	{r7, lr}
 80023fa:	b088      	sub	sp, #32
 80023fc:	af02      	add	r7, sp, #8
 80023fe:	4603      	mov	r3, r0
 8002400:	460a      	mov	r2, r1
 8002402:	71fb      	strb	r3, [r7, #7]
 8002404:	4613      	mov	r3, r2
 8002406:	71bb      	strb	r3, [r7, #6]

  //         
  //snprintf(buffer,sizeof(buffer), "%d", SetpointsUnion.SetpointsArray[num_item]);
  //u8g2_DrawStr(&u8g2,98,(num_line*12)-2,buffer);

  char buffer[10] = {0,};
 8002408:	2300      	movs	r3, #0
 800240a:	60fb      	str	r3, [r7, #12]
 800240c:	f107 0310 	add.w	r3, r7, #16
 8002410:	2200      	movs	r2, #0
 8002412:	601a      	str	r2, [r3, #0]
 8002414:	809a      	strh	r2, [r3, #4]
  uint8_t float_m, float_n; //         

	switch (num_item) {
 8002416:	79fb      	ldrb	r3, [r7, #7]
 8002418:	2b18      	cmp	r3, #24
 800241a:	f200 81f3 	bhi.w	8002804 <fnPrintMenuSetpointsItemVal+0x40c>
 800241e:	a201      	add	r2, pc, #4	; (adr r2, 8002424 <fnPrintMenuSetpointsItemVal+0x2c>)
 8002420:	f852 f023 	ldr.w	pc, [r2, r3, lsl #2]
 8002424:	08002489 	.word	0x08002489
 8002428:	0800249d 	.word	0x0800249d
 800242c:	080024e9 	.word	0x080024e9
 8002430:	08002529 	.word	0x08002529
 8002434:	0800253d 	.word	0x0800253d
 8002438:	0800257d 	.word	0x0800257d
 800243c:	08002591 	.word	0x08002591
 8002440:	080025dd 	.word	0x080025dd
 8002444:	0800261d 	.word	0x0800261d
 8002448:	08002631 	.word	0x08002631
 800244c:	08002671 	.word	0x08002671
 8002450:	08002685 	.word	0x08002685
 8002454:	08002699 	.word	0x08002699
 8002458:	080026ad 	.word	0x080026ad
 800245c:	080026f9 	.word	0x080026f9
 8002460:	0800270d 	.word	0x0800270d
 8002464:	08002721 	.word	0x08002721
 8002468:	08002735 	.word	0x08002735
 800246c:	08002779 	.word	0x08002779
 8002470:	0800278d 	.word	0x0800278d
 8002474:	080027a1 	.word	0x080027a1
 8002478:	080027b5 	.word	0x080027b5
 800247c:	080027c9 	.word	0x080027c9
 8002480:	080027dd 	.word	0x080027dd
 8002484:	080027f1 	.word	0x080027f1
	case 0:
		snprintf(buffer, sizeof(buffer), "%ds",
				SetpointsUnion.SetpointsArray[num_item]);
 8002488:	79fb      	ldrb	r3, [r7, #7]
 800248a:	4aaf      	ldr	r2, [pc, #700]	; (8002748 <fnPrintMenuSetpointsItemVal+0x350>)
 800248c:	5cd3      	ldrb	r3, [r2, r3]
		snprintf(buffer, sizeof(buffer), "%ds",
 800248e:	f107 000c 	add.w	r0, r7, #12
 8002492:	4aae      	ldr	r2, [pc, #696]	; (800274c <fnPrintMenuSetpointsItemVal+0x354>)
 8002494:	210a      	movs	r1, #10
 8002496:	f001 fb93 	bl	8003bc0 <mini_snprintf>
		break;
 800249a:	e1b4      	b.n	8002806 <fnPrintMenuSetpointsItemVal+0x40e>

	case 1:

		switch (SetpointsUnion.SetpointsArray[num_item]) {
 800249c:	79fb      	ldrb	r3, [r7, #7]
 800249e:	4aaa      	ldr	r2, [pc, #680]	; (8002748 <fnPrintMenuSetpointsItemVal+0x350>)
 80024a0:	5cd3      	ldrb	r3, [r2, r3]
 80024a2:	2b02      	cmp	r3, #2
 80024a4:	d00e      	beq.n	80024c4 <fnPrintMenuSetpointsItemVal+0xcc>
 80024a6:	2b02      	cmp	r3, #2
 80024a8:	dc1c      	bgt.n	80024e4 <fnPrintMenuSetpointsItemVal+0xec>
 80024aa:	2b00      	cmp	r3, #0
 80024ac:	d002      	beq.n	80024b4 <fnPrintMenuSetpointsItemVal+0xbc>
 80024ae:	2b01      	cmp	r3, #1
 80024b0:	d010      	beq.n	80024d4 <fnPrintMenuSetpointsItemVal+0xdc>
			break;
		case AUTO_MODE:
			snprintf(buffer, sizeof(buffer), "auto");
			break;
		default:
			break;
 80024b2:	e017      	b.n	80024e4 <fnPrintMenuSetpointsItemVal+0xec>
			snprintf(buffer, sizeof(buffer), "off");
 80024b4:	f107 030c 	add.w	r3, r7, #12
 80024b8:	4aa5      	ldr	r2, [pc, #660]	; (8002750 <fnPrintMenuSetpointsItemVal+0x358>)
 80024ba:	210a      	movs	r1, #10
 80024bc:	4618      	mov	r0, r3
 80024be:	f001 fb7f 	bl	8003bc0 <mini_snprintf>
			break;
 80024c2:	e010      	b.n	80024e6 <fnPrintMenuSetpointsItemVal+0xee>
			snprintf(buffer, sizeof(buffer), "on");
 80024c4:	f107 030c 	add.w	r3, r7, #12
 80024c8:	4aa2      	ldr	r2, [pc, #648]	; (8002754 <fnPrintMenuSetpointsItemVal+0x35c>)
 80024ca:	210a      	movs	r1, #10
 80024cc:	4618      	mov	r0, r3
 80024ce:	f001 fb77 	bl	8003bc0 <mini_snprintf>
			break;
 80024d2:	e008      	b.n	80024e6 <fnPrintMenuSetpointsItemVal+0xee>
			snprintf(buffer, sizeof(buffer), "auto");
 80024d4:	f107 030c 	add.w	r3, r7, #12
 80024d8:	4a9f      	ldr	r2, [pc, #636]	; (8002758 <fnPrintMenuSetpointsItemVal+0x360>)
 80024da:	210a      	movs	r1, #10
 80024dc:	4618      	mov	r0, r3
 80024de:	f001 fb6f 	bl	8003bc0 <mini_snprintf>
			break;
 80024e2:	e000      	b.n	80024e6 <fnPrintMenuSetpointsItemVal+0xee>
			break;
 80024e4:	bf00      	nop
		}

		break;
 80024e6:	e18e      	b.n	8002806 <fnPrintMenuSetpointsItemVal+0x40e>

	case 2:
		float_m = SetpointsUnion.SetpointsArray[num_item];
 80024e8:	79fb      	ldrb	r3, [r7, #7]
 80024ea:	4a97      	ldr	r2, [pc, #604]	; (8002748 <fnPrintMenuSetpointsItemVal+0x350>)
 80024ec:	5cd3      	ldrb	r3, [r2, r3]
 80024ee:	75fb      	strb	r3, [r7, #23]
		float_n = float_m % 10;
 80024f0:	7dfa      	ldrb	r2, [r7, #23]
 80024f2:	4b9a      	ldr	r3, [pc, #616]	; (800275c <fnPrintMenuSetpointsItemVal+0x364>)
 80024f4:	fba3 1302 	umull	r1, r3, r3, r2
 80024f8:	08d9      	lsrs	r1, r3, #3
 80024fa:	460b      	mov	r3, r1
 80024fc:	009b      	lsls	r3, r3, #2
 80024fe:	440b      	add	r3, r1
 8002500:	005b      	lsls	r3, r3, #1
 8002502:	1ad3      	subs	r3, r2, r3
 8002504:	75bb      	strb	r3, [r7, #22]
		float_m = float_m / 10;
 8002506:	7dfb      	ldrb	r3, [r7, #23]
 8002508:	4a94      	ldr	r2, [pc, #592]	; (800275c <fnPrintMenuSetpointsItemVal+0x364>)
 800250a:	fba2 2303 	umull	r2, r3, r2, r3
 800250e:	08db      	lsrs	r3, r3, #3
 8002510:	75fb      	strb	r3, [r7, #23]
		snprintf(buffer, sizeof(buffer), "%d.%d", float_m, float_n);
 8002512:	7dfa      	ldrb	r2, [r7, #23]
 8002514:	7dbb      	ldrb	r3, [r7, #22]
 8002516:	f107 000c 	add.w	r0, r7, #12
 800251a:	9300      	str	r3, [sp, #0]
 800251c:	4613      	mov	r3, r2
 800251e:	4a90      	ldr	r2, [pc, #576]	; (8002760 <fnPrintMenuSetpointsItemVal+0x368>)
 8002520:	210a      	movs	r1, #10
 8002522:	f001 fb4d 	bl	8003bc0 <mini_snprintf>
		break;
 8002526:	e16e      	b.n	8002806 <fnPrintMenuSetpointsItemVal+0x40e>

	case 3:
		snprintf(buffer, sizeof(buffer), "%ds",
				SetpointsUnion.SetpointsArray[num_item]);
 8002528:	79fb      	ldrb	r3, [r7, #7]
 800252a:	4a87      	ldr	r2, [pc, #540]	; (8002748 <fnPrintMenuSetpointsItemVal+0x350>)
 800252c:	5cd3      	ldrb	r3, [r2, r3]
		snprintf(buffer, sizeof(buffer), "%ds",
 800252e:	f107 000c 	add.w	r0, r7, #12
 8002532:	4a86      	ldr	r2, [pc, #536]	; (800274c <fnPrintMenuSetpointsItemVal+0x354>)
 8002534:	210a      	movs	r1, #10
 8002536:	f001 fb43 	bl	8003bc0 <mini_snprintf>
		break;
 800253a:	e164      	b.n	8002806 <fnPrintMenuSetpointsItemVal+0x40e>

	case 4:
		float_m = SetpointsUnion.SetpointsArray[num_item];
 800253c:	79fb      	ldrb	r3, [r7, #7]
 800253e:	4a82      	ldr	r2, [pc, #520]	; (8002748 <fnPrintMenuSetpointsItemVal+0x350>)
 8002540:	5cd3      	ldrb	r3, [r2, r3]
 8002542:	75fb      	strb	r3, [r7, #23]
		float_n = float_m % 10;
 8002544:	7dfa      	ldrb	r2, [r7, #23]
 8002546:	4b85      	ldr	r3, [pc, #532]	; (800275c <fnPrintMenuSetpointsItemVal+0x364>)
 8002548:	fba3 1302 	umull	r1, r3, r3, r2
 800254c:	08d9      	lsrs	r1, r3, #3
 800254e:	460b      	mov	r3, r1
 8002550:	009b      	lsls	r3, r3, #2
 8002552:	440b      	add	r3, r1
 8002554:	005b      	lsls	r3, r3, #1
 8002556:	1ad3      	subs	r3, r2, r3
 8002558:	75bb      	strb	r3, [r7, #22]
		float_m = float_m / 10;
 800255a:	7dfb      	ldrb	r3, [r7, #23]
 800255c:	4a7f      	ldr	r2, [pc, #508]	; (800275c <fnPrintMenuSetpointsItemVal+0x364>)
 800255e:	fba2 2303 	umull	r2, r3, r2, r3
 8002562:	08db      	lsrs	r3, r3, #3
 8002564:	75fb      	strb	r3, [r7, #23]
		snprintf(buffer, sizeof(buffer), "%d.%d", float_m, float_n);
 8002566:	7dfa      	ldrb	r2, [r7, #23]
 8002568:	7dbb      	ldrb	r3, [r7, #22]
 800256a:	f107 000c 	add.w	r0, r7, #12
 800256e:	9300      	str	r3, [sp, #0]
 8002570:	4613      	mov	r3, r2
 8002572:	4a7b      	ldr	r2, [pc, #492]	; (8002760 <fnPrintMenuSetpointsItemVal+0x368>)
 8002574:	210a      	movs	r1, #10
 8002576:	f001 fb23 	bl	8003bc0 <mini_snprintf>
		break;
 800257a:	e144      	b.n	8002806 <fnPrintMenuSetpointsItemVal+0x40e>

	case 5:
		snprintf(buffer, sizeof(buffer), "%dm",
				SetpointsUnion.SetpointsArray[num_item]);
 800257c:	79fb      	ldrb	r3, [r7, #7]
 800257e:	4a72      	ldr	r2, [pc, #456]	; (8002748 <fnPrintMenuSetpointsItemVal+0x350>)
 8002580:	5cd3      	ldrb	r3, [r2, r3]
		snprintf(buffer, sizeof(buffer), "%dm",
 8002582:	f107 000c 	add.w	r0, r7, #12
 8002586:	4a77      	ldr	r2, [pc, #476]	; (8002764 <fnPrintMenuSetpointsItemVal+0x36c>)
 8002588:	210a      	movs	r1, #10
 800258a:	f001 fb19 	bl	8003bc0 <mini_snprintf>
		break;
 800258e:	e13a      	b.n	8002806 <fnPrintMenuSetpointsItemVal+0x40e>

	case 6:
		switch (SetpointsUnion.SetpointsArray[num_item]) {
 8002590:	79fb      	ldrb	r3, [r7, #7]
 8002592:	4a6d      	ldr	r2, [pc, #436]	; (8002748 <fnPrintMenuSetpointsItemVal+0x350>)
 8002594:	5cd3      	ldrb	r3, [r2, r3]
 8002596:	2b02      	cmp	r3, #2
 8002598:	d00e      	beq.n	80025b8 <fnPrintMenuSetpointsItemVal+0x1c0>
 800259a:	2b02      	cmp	r3, #2
 800259c:	dc1c      	bgt.n	80025d8 <fnPrintMenuSetpointsItemVal+0x1e0>
 800259e:	2b00      	cmp	r3, #0
 80025a0:	d002      	beq.n	80025a8 <fnPrintMenuSetpointsItemVal+0x1b0>
 80025a2:	2b01      	cmp	r3, #1
 80025a4:	d010      	beq.n	80025c8 <fnPrintMenuSetpointsItemVal+0x1d0>
			break;
		case AUTO_MODE:
			snprintf(buffer, sizeof(buffer), "auto");
			break;
		default:
			break;
 80025a6:	e017      	b.n	80025d8 <fnPrintMenuSetpointsItemVal+0x1e0>
			snprintf(buffer, sizeof(buffer), "off");
 80025a8:	f107 030c 	add.w	r3, r7, #12
 80025ac:	4a68      	ldr	r2, [pc, #416]	; (8002750 <fnPrintMenuSetpointsItemVal+0x358>)
 80025ae:	210a      	movs	r1, #10
 80025b0:	4618      	mov	r0, r3
 80025b2:	f001 fb05 	bl	8003bc0 <mini_snprintf>
			break;
 80025b6:	e010      	b.n	80025da <fnPrintMenuSetpointsItemVal+0x1e2>
			snprintf(buffer, sizeof(buffer), "on");
 80025b8:	f107 030c 	add.w	r3, r7, #12
 80025bc:	4a65      	ldr	r2, [pc, #404]	; (8002754 <fnPrintMenuSetpointsItemVal+0x35c>)
 80025be:	210a      	movs	r1, #10
 80025c0:	4618      	mov	r0, r3
 80025c2:	f001 fafd 	bl	8003bc0 <mini_snprintf>
			break;
 80025c6:	e008      	b.n	80025da <fnPrintMenuSetpointsItemVal+0x1e2>
			snprintf(buffer, sizeof(buffer), "auto");
 80025c8:	f107 030c 	add.w	r3, r7, #12
 80025cc:	4a62      	ldr	r2, [pc, #392]	; (8002758 <fnPrintMenuSetpointsItemVal+0x360>)
 80025ce:	210a      	movs	r1, #10
 80025d0:	4618      	mov	r0, r3
 80025d2:	f001 faf5 	bl	8003bc0 <mini_snprintf>
			break;
 80025d6:	e000      	b.n	80025da <fnPrintMenuSetpointsItemVal+0x1e2>
			break;
 80025d8:	bf00      	nop
		}
		break;
 80025da:	e114      	b.n	8002806 <fnPrintMenuSetpointsItemVal+0x40e>

	case 7:
		float_m = SetpointsUnion.SetpointsArray[num_item];
 80025dc:	79fb      	ldrb	r3, [r7, #7]
 80025de:	4a5a      	ldr	r2, [pc, #360]	; (8002748 <fnPrintMenuSetpointsItemVal+0x350>)
 80025e0:	5cd3      	ldrb	r3, [r2, r3]
 80025e2:	75fb      	strb	r3, [r7, #23]
		float_n = float_m % 10;
 80025e4:	7dfa      	ldrb	r2, [r7, #23]
 80025e6:	4b5d      	ldr	r3, [pc, #372]	; (800275c <fnPrintMenuSetpointsItemVal+0x364>)
 80025e8:	fba3 1302 	umull	r1, r3, r3, r2
 80025ec:	08d9      	lsrs	r1, r3, #3
 80025ee:	460b      	mov	r3, r1
 80025f0:	009b      	lsls	r3, r3, #2
 80025f2:	440b      	add	r3, r1
 80025f4:	005b      	lsls	r3, r3, #1
 80025f6:	1ad3      	subs	r3, r2, r3
 80025f8:	75bb      	strb	r3, [r7, #22]
		float_m = float_m / 10;
 80025fa:	7dfb      	ldrb	r3, [r7, #23]
 80025fc:	4a57      	ldr	r2, [pc, #348]	; (800275c <fnPrintMenuSetpointsItemVal+0x364>)
 80025fe:	fba2 2303 	umull	r2, r3, r2, r3
 8002602:	08db      	lsrs	r3, r3, #3
 8002604:	75fb      	strb	r3, [r7, #23]
		snprintf(buffer, sizeof(buffer), "%d.%d", float_m, float_n);
 8002606:	7dfa      	ldrb	r2, [r7, #23]
 8002608:	7dbb      	ldrb	r3, [r7, #22]
 800260a:	f107 000c 	add.w	r0, r7, #12
 800260e:	9300      	str	r3, [sp, #0]
 8002610:	4613      	mov	r3, r2
 8002612:	4a53      	ldr	r2, [pc, #332]	; (8002760 <fnPrintMenuSetpointsItemVal+0x368>)
 8002614:	210a      	movs	r1, #10
 8002616:	f001 fad3 	bl	8003bc0 <mini_snprintf>
		break;
 800261a:	e0f4      	b.n	8002806 <fnPrintMenuSetpointsItemVal+0x40e>

	case 8:
	  	snprintf(buffer,sizeof(buffer), "%ds", SetpointsUnion.SetpointsArray[num_item]);
 800261c:	79fb      	ldrb	r3, [r7, #7]
 800261e:	4a4a      	ldr	r2, [pc, #296]	; (8002748 <fnPrintMenuSetpointsItemVal+0x350>)
 8002620:	5cd3      	ldrb	r3, [r2, r3]
 8002622:	f107 000c 	add.w	r0, r7, #12
 8002626:	4a49      	ldr	r2, [pc, #292]	; (800274c <fnPrintMenuSetpointsItemVal+0x354>)
 8002628:	210a      	movs	r1, #10
 800262a:	f001 fac9 	bl	8003bc0 <mini_snprintf>
	  	break;
 800262e:	e0ea      	b.n	8002806 <fnPrintMenuSetpointsItemVal+0x40e>

	case 9:
		float_m = SetpointsUnion.SetpointsArray[num_item];
 8002630:	79fb      	ldrb	r3, [r7, #7]
 8002632:	4a45      	ldr	r2, [pc, #276]	; (8002748 <fnPrintMenuSetpointsItemVal+0x350>)
 8002634:	5cd3      	ldrb	r3, [r2, r3]
 8002636:	75fb      	strb	r3, [r7, #23]
		float_n = float_m % 10;
 8002638:	7dfa      	ldrb	r2, [r7, #23]
 800263a:	4b48      	ldr	r3, [pc, #288]	; (800275c <fnPrintMenuSetpointsItemVal+0x364>)
 800263c:	fba3 1302 	umull	r1, r3, r3, r2
 8002640:	08d9      	lsrs	r1, r3, #3
 8002642:	460b      	mov	r3, r1
 8002644:	009b      	lsls	r3, r3, #2
 8002646:	440b      	add	r3, r1
 8002648:	005b      	lsls	r3, r3, #1
 800264a:	1ad3      	subs	r3, r2, r3
 800264c:	75bb      	strb	r3, [r7, #22]
		float_m = float_m / 10;
 800264e:	7dfb      	ldrb	r3, [r7, #23]
 8002650:	4a42      	ldr	r2, [pc, #264]	; (800275c <fnPrintMenuSetpointsItemVal+0x364>)
 8002652:	fba2 2303 	umull	r2, r3, r2, r3
 8002656:	08db      	lsrs	r3, r3, #3
 8002658:	75fb      	strb	r3, [r7, #23]
		snprintf(buffer, sizeof(buffer), "%d.%d", float_m, float_n);
 800265a:	7dfa      	ldrb	r2, [r7, #23]
 800265c:	7dbb      	ldrb	r3, [r7, #22]
 800265e:	f107 000c 	add.w	r0, r7, #12
 8002662:	9300      	str	r3, [sp, #0]
 8002664:	4613      	mov	r3, r2
 8002666:	4a3e      	ldr	r2, [pc, #248]	; (8002760 <fnPrintMenuSetpointsItemVal+0x368>)
 8002668:	210a      	movs	r1, #10
 800266a:	f001 faa9 	bl	8003bc0 <mini_snprintf>
		break;
 800266e:	e0ca      	b.n	8002806 <fnPrintMenuSetpointsItemVal+0x40e>

	case 10:
	  	snprintf(buffer,sizeof(buffer), "%dm", SetpointsUnion.SetpointsArray[num_item]);
 8002670:	79fb      	ldrb	r3, [r7, #7]
 8002672:	4a35      	ldr	r2, [pc, #212]	; (8002748 <fnPrintMenuSetpointsItemVal+0x350>)
 8002674:	5cd3      	ldrb	r3, [r2, r3]
 8002676:	f107 000c 	add.w	r0, r7, #12
 800267a:	4a3a      	ldr	r2, [pc, #232]	; (8002764 <fnPrintMenuSetpointsItemVal+0x36c>)
 800267c:	210a      	movs	r1, #10
 800267e:	f001 fa9f 	bl	8003bc0 <mini_snprintf>
	      break;
 8002682:	e0c0      	b.n	8002806 <fnPrintMenuSetpointsItemVal+0x40e>

	case 11:
	  	snprintf(buffer,sizeof(buffer), "%dC", SetpointsUnion.SetpointsArray[num_item]);
 8002684:	79fb      	ldrb	r3, [r7, #7]
 8002686:	4a30      	ldr	r2, [pc, #192]	; (8002748 <fnPrintMenuSetpointsItemVal+0x350>)
 8002688:	5cd3      	ldrb	r3, [r2, r3]
 800268a:	f107 000c 	add.w	r0, r7, #12
 800268e:	4a36      	ldr	r2, [pc, #216]	; (8002768 <fnPrintMenuSetpointsItemVal+0x370>)
 8002690:	210a      	movs	r1, #10
 8002692:	f001 fa95 	bl	8003bc0 <mini_snprintf>
	    break;
 8002696:	e0b6      	b.n	8002806 <fnPrintMenuSetpointsItemVal+0x40e>

	case 12:
	  	snprintf(buffer,sizeof(buffer), "%dC", SetpointsUnion.SetpointsArray[num_item]);
 8002698:	79fb      	ldrb	r3, [r7, #7]
 800269a:	4a2b      	ldr	r2, [pc, #172]	; (8002748 <fnPrintMenuSetpointsItemVal+0x350>)
 800269c:	5cd3      	ldrb	r3, [r2, r3]
 800269e:	f107 000c 	add.w	r0, r7, #12
 80026a2:	4a31      	ldr	r2, [pc, #196]	; (8002768 <fnPrintMenuSetpointsItemVal+0x370>)
 80026a4:	210a      	movs	r1, #10
 80026a6:	f001 fa8b 	bl	8003bc0 <mini_snprintf>
	    break;
 80026aa:	e0ac      	b.n	8002806 <fnPrintMenuSetpointsItemVal+0x40e>

	case 13:
		switch (SetpointsUnion.SetpointsArray[num_item]) {
 80026ac:	79fb      	ldrb	r3, [r7, #7]
 80026ae:	4a26      	ldr	r2, [pc, #152]	; (8002748 <fnPrintMenuSetpointsItemVal+0x350>)
 80026b0:	5cd3      	ldrb	r3, [r2, r3]
 80026b2:	2b02      	cmp	r3, #2
 80026b4:	d00e      	beq.n	80026d4 <fnPrintMenuSetpointsItemVal+0x2dc>
 80026b6:	2b02      	cmp	r3, #2
 80026b8:	dc1c      	bgt.n	80026f4 <fnPrintMenuSetpointsItemVal+0x2fc>
 80026ba:	2b00      	cmp	r3, #0
 80026bc:	d002      	beq.n	80026c4 <fnPrintMenuSetpointsItemVal+0x2cc>
 80026be:	2b01      	cmp	r3, #1
 80026c0:	d010      	beq.n	80026e4 <fnPrintMenuSetpointsItemVal+0x2ec>
			break;
		case AUTO_MODE:
			snprintf(buffer, sizeof(buffer), "auto");
			break;
		default:
			break;
 80026c2:	e017      	b.n	80026f4 <fnPrintMenuSetpointsItemVal+0x2fc>
			snprintf(buffer, sizeof(buffer), "off");
 80026c4:	f107 030c 	add.w	r3, r7, #12
 80026c8:	4a21      	ldr	r2, [pc, #132]	; (8002750 <fnPrintMenuSetpointsItemVal+0x358>)
 80026ca:	210a      	movs	r1, #10
 80026cc:	4618      	mov	r0, r3
 80026ce:	f001 fa77 	bl	8003bc0 <mini_snprintf>
			break;
 80026d2:	e010      	b.n	80026f6 <fnPrintMenuSetpointsItemVal+0x2fe>
			snprintf(buffer, sizeof(buffer), "on");
 80026d4:	f107 030c 	add.w	r3, r7, #12
 80026d8:	4a1e      	ldr	r2, [pc, #120]	; (8002754 <fnPrintMenuSetpointsItemVal+0x35c>)
 80026da:	210a      	movs	r1, #10
 80026dc:	4618      	mov	r0, r3
 80026de:	f001 fa6f 	bl	8003bc0 <mini_snprintf>
			break;
 80026e2:	e008      	b.n	80026f6 <fnPrintMenuSetpointsItemVal+0x2fe>
			snprintf(buffer, sizeof(buffer), "auto");
 80026e4:	f107 030c 	add.w	r3, r7, #12
 80026e8:	4a1b      	ldr	r2, [pc, #108]	; (8002758 <fnPrintMenuSetpointsItemVal+0x360>)
 80026ea:	210a      	movs	r1, #10
 80026ec:	4618      	mov	r0, r3
 80026ee:	f001 fa67 	bl	8003bc0 <mini_snprintf>
			break;
 80026f2:	e000      	b.n	80026f6 <fnPrintMenuSetpointsItemVal+0x2fe>
			break;
 80026f4:	bf00      	nop
		}
	    break;
 80026f6:	e086      	b.n	8002806 <fnPrintMenuSetpointsItemVal+0x40e>

	case 14:
		snprintf(buffer,sizeof(buffer), "%dR", SetpointsUnion.SetpointsArray[num_item]);
 80026f8:	79fb      	ldrb	r3, [r7, #7]
 80026fa:	4a13      	ldr	r2, [pc, #76]	; (8002748 <fnPrintMenuSetpointsItemVal+0x350>)
 80026fc:	5cd3      	ldrb	r3, [r2, r3]
 80026fe:	f107 000c 	add.w	r0, r7, #12
 8002702:	4a1a      	ldr	r2, [pc, #104]	; (800276c <fnPrintMenuSetpointsItemVal+0x374>)
 8002704:	210a      	movs	r1, #10
 8002706:	f001 fa5b 	bl	8003bc0 <mini_snprintf>
		break;
 800270a:	e07c      	b.n	8002806 <fnPrintMenuSetpointsItemVal+0x40e>

	case 15:
	  	snprintf(buffer,sizeof(buffer), "%dR", SetpointsUnion.SetpointsArray[num_item]);
 800270c:	79fb      	ldrb	r3, [r7, #7]
 800270e:	4a0e      	ldr	r2, [pc, #56]	; (8002748 <fnPrintMenuSetpointsItemVal+0x350>)
 8002710:	5cd3      	ldrb	r3, [r2, r3]
 8002712:	f107 000c 	add.w	r0, r7, #12
 8002716:	4a15      	ldr	r2, [pc, #84]	; (800276c <fnPrintMenuSetpointsItemVal+0x374>)
 8002718:	210a      	movs	r1, #10
 800271a:	f001 fa51 	bl	8003bc0 <mini_snprintf>
	    break;
 800271e:	e072      	b.n	8002806 <fnPrintMenuSetpointsItemVal+0x40e>

	case 16:
	  	snprintf(buffer,sizeof(buffer), "%d", SetpointsUnion.SetpointsArray[num_item]);
 8002720:	79fb      	ldrb	r3, [r7, #7]
 8002722:	4a09      	ldr	r2, [pc, #36]	; (8002748 <fnPrintMenuSetpointsItemVal+0x350>)
 8002724:	5cd3      	ldrb	r3, [r2, r3]
 8002726:	f107 000c 	add.w	r0, r7, #12
 800272a:	4a11      	ldr	r2, [pc, #68]	; (8002770 <fnPrintMenuSetpointsItemVal+0x378>)
 800272c:	210a      	movs	r1, #10
 800272e:	f001 fa47 	bl	8003bc0 <mini_snprintf>
	    break;
 8002732:	e068      	b.n	8002806 <fnPrintMenuSetpointsItemVal+0x40e>

	case 17:
	  	snprintf(buffer,sizeof(buffer), "%dL", SetpointsUnion.SetpointsArray[num_item]);
 8002734:	79fb      	ldrb	r3, [r7, #7]
 8002736:	4a04      	ldr	r2, [pc, #16]	; (8002748 <fnPrintMenuSetpointsItemVal+0x350>)
 8002738:	5cd3      	ldrb	r3, [r2, r3]
 800273a:	f107 000c 	add.w	r0, r7, #12
 800273e:	4a0d      	ldr	r2, [pc, #52]	; (8002774 <fnPrintMenuSetpointsItemVal+0x37c>)
 8002740:	210a      	movs	r1, #10
 8002742:	f001 fa3d 	bl	8003bc0 <mini_snprintf>
	    break;
 8002746:	e05e      	b.n	8002806 <fnPrintMenuSetpointsItemVal+0x40e>
 8002748:	20000aec 	.word	0x20000aec
 800274c:	08008a2c 	.word	0x08008a2c
 8002750:	08008a30 	.word	0x08008a30
 8002754:	08008a34 	.word	0x08008a34
 8002758:	08008a38 	.word	0x08008a38
 800275c:	cccccccd 	.word	0xcccccccd
 8002760:	08008a40 	.word	0x08008a40
 8002764:	08008a48 	.word	0x08008a48
 8002768:	08008a4c 	.word	0x08008a4c
 800276c:	08008a50 	.word	0x08008a50
 8002770:	08008a54 	.word	0x08008a54
 8002774:	08008a58 	.word	0x08008a58

	case 18:
	  	snprintf(buffer,sizeof(buffer), "%dh", SetpointsUnion.SetpointsArray[num_item]);
 8002778:	79fb      	ldrb	r3, [r7, #7]
 800277a:	4a2b      	ldr	r2, [pc, #172]	; (8002828 <fnPrintMenuSetpointsItemVal+0x430>)
 800277c:	5cd3      	ldrb	r3, [r2, r3]
 800277e:	f107 000c 	add.w	r0, r7, #12
 8002782:	4a2a      	ldr	r2, [pc, #168]	; (800282c <fnPrintMenuSetpointsItemVal+0x434>)
 8002784:	210a      	movs	r1, #10
 8002786:	f001 fa1b 	bl	8003bc0 <mini_snprintf>
	    break;
 800278a:	e03c      	b.n	8002806 <fnPrintMenuSetpointsItemVal+0x40e>

	case 19:
	  	snprintf(buffer,sizeof(buffer), "%d", SetpointsUnion.SetpointsArray[num_item]);
 800278c:	79fb      	ldrb	r3, [r7, #7]
 800278e:	4a26      	ldr	r2, [pc, #152]	; (8002828 <fnPrintMenuSetpointsItemVal+0x430>)
 8002790:	5cd3      	ldrb	r3, [r2, r3]
 8002792:	f107 000c 	add.w	r0, r7, #12
 8002796:	4a26      	ldr	r2, [pc, #152]	; (8002830 <fnPrintMenuSetpointsItemVal+0x438>)
 8002798:	210a      	movs	r1, #10
 800279a:	f001 fa11 	bl	8003bc0 <mini_snprintf>
	    break;
 800279e:	e032      	b.n	8002806 <fnPrintMenuSetpointsItemVal+0x40e>

	case 20:
	  	snprintf(buffer,sizeof(buffer), "%d", SetpointsUnion.SetpointsArray[num_item]);
 80027a0:	79fb      	ldrb	r3, [r7, #7]
 80027a2:	4a21      	ldr	r2, [pc, #132]	; (8002828 <fnPrintMenuSetpointsItemVal+0x430>)
 80027a4:	5cd3      	ldrb	r3, [r2, r3]
 80027a6:	f107 000c 	add.w	r0, r7, #12
 80027aa:	4a21      	ldr	r2, [pc, #132]	; (8002830 <fnPrintMenuSetpointsItemVal+0x438>)
 80027ac:	210a      	movs	r1, #10
 80027ae:	f001 fa07 	bl	8003bc0 <mini_snprintf>
	    break;
 80027b2:	e028      	b.n	8002806 <fnPrintMenuSetpointsItemVal+0x40e>

	case 21:
	  	snprintf(buffer,sizeof(buffer), "%d", SetpointsUnion.SetpointsArray[num_item]);
 80027b4:	79fb      	ldrb	r3, [r7, #7]
 80027b6:	4a1c      	ldr	r2, [pc, #112]	; (8002828 <fnPrintMenuSetpointsItemVal+0x430>)
 80027b8:	5cd3      	ldrb	r3, [r2, r3]
 80027ba:	f107 000c 	add.w	r0, r7, #12
 80027be:	4a1c      	ldr	r2, [pc, #112]	; (8002830 <fnPrintMenuSetpointsItemVal+0x438>)
 80027c0:	210a      	movs	r1, #10
 80027c2:	f001 f9fd 	bl	8003bc0 <mini_snprintf>
	    break;
 80027c6:	e01e      	b.n	8002806 <fnPrintMenuSetpointsItemVal+0x40e>

	case 22:
	  	snprintf(buffer,sizeof(buffer), "%d", SetpointsUnion.SetpointsArray[num_item]);
 80027c8:	79fb      	ldrb	r3, [r7, #7]
 80027ca:	4a17      	ldr	r2, [pc, #92]	; (8002828 <fnPrintMenuSetpointsItemVal+0x430>)
 80027cc:	5cd3      	ldrb	r3, [r2, r3]
 80027ce:	f107 000c 	add.w	r0, r7, #12
 80027d2:	4a17      	ldr	r2, [pc, #92]	; (8002830 <fnPrintMenuSetpointsItemVal+0x438>)
 80027d4:	210a      	movs	r1, #10
 80027d6:	f001 f9f3 	bl	8003bc0 <mini_snprintf>
	    break;
 80027da:	e014      	b.n	8002806 <fnPrintMenuSetpointsItemVal+0x40e>

	case 23:
	  	snprintf(buffer,sizeof(buffer), "%d", SetpointsUnion.SetpointsArray[num_item]);
 80027dc:	79fb      	ldrb	r3, [r7, #7]
 80027de:	4a12      	ldr	r2, [pc, #72]	; (8002828 <fnPrintMenuSetpointsItemVal+0x430>)
 80027e0:	5cd3      	ldrb	r3, [r2, r3]
 80027e2:	f107 000c 	add.w	r0, r7, #12
 80027e6:	4a12      	ldr	r2, [pc, #72]	; (8002830 <fnPrintMenuSetpointsItemVal+0x438>)
 80027e8:	210a      	movs	r1, #10
 80027ea:	f001 f9e9 	bl	8003bc0 <mini_snprintf>
	    break;
 80027ee:	e00a      	b.n	8002806 <fnPrintMenuSetpointsItemVal+0x40e>

	case 24:
	  	snprintf(buffer,sizeof(buffer), "%d", SetpointsUnion.SetpointsArray[num_item]);
 80027f0:	79fb      	ldrb	r3, [r7, #7]
 80027f2:	4a0d      	ldr	r2, [pc, #52]	; (8002828 <fnPrintMenuSetpointsItemVal+0x430>)
 80027f4:	5cd3      	ldrb	r3, [r2, r3]
 80027f6:	f107 000c 	add.w	r0, r7, #12
 80027fa:	4a0d      	ldr	r2, [pc, #52]	; (8002830 <fnPrintMenuSetpointsItemVal+0x438>)
 80027fc:	210a      	movs	r1, #10
 80027fe:	f001 f9df 	bl	8003bc0 <mini_snprintf>
	    break;
 8002802:	e000      	b.n	8002806 <fnPrintMenuSetpointsItemVal+0x40e>

	default:
		break;
 8002804:	bf00      	nop
	}

   u8g2_DrawStr(&u8g2,102,(num_line*12),buffer);
 8002806:	79bb      	ldrb	r3, [r7, #6]
 8002808:	b29b      	uxth	r3, r3
 800280a:	461a      	mov	r2, r3
 800280c:	0052      	lsls	r2, r2, #1
 800280e:	4413      	add	r3, r2
 8002810:	009b      	lsls	r3, r3, #2
 8002812:	b29a      	uxth	r2, r3
 8002814:	f107 030c 	add.w	r3, r7, #12
 8002818:	2166      	movs	r1, #102	; 0x66
 800281a:	4806      	ldr	r0, [pc, #24]	; (8002834 <fnPrintMenuSetpointsItemVal+0x43c>)
 800281c:	f002 fa7c 	bl	8004d18 <u8g2_DrawStr>

 }
 8002820:	bf00      	nop
 8002822:	3718      	adds	r7, #24
 8002824:	46bd      	mov	sp, r7
 8002826:	bd80      	pop	{r7, pc}
 8002828:	20000aec 	.word	0x20000aec
 800282c:	08008a5c 	.word	0x08008a5c
 8002830:	08008a54 	.word	0x08008a54
 8002834:	20000a14 	.word	0x20000a14

08002838 <fnPrintMenuParamItemVal>:
//*********************************************************************************************************************


//       ------------------------------
void fnPrintMenuParamItemVal(uint8_t num_item, uint8_t num_line){
 8002838:	b580      	push	{r7, lr}
 800283a:	b08a      	sub	sp, #40	; 0x28
 800283c:	af02      	add	r7, sp, #8
 800283e:	4603      	mov	r3, r0
 8002840:	460a      	mov	r2, r1
 8002842:	71fb      	strb	r3, [r7, #7]
 8002844:	4613      	mov	r3, r2
 8002846:	71bb      	strb	r3, [r7, #6]

  char buffer[10] = {0,};
 8002848:	2300      	movs	r3, #0
 800284a:	60fb      	str	r3, [r7, #12]
 800284c:	f107 0310 	add.w	r3, r7, #16
 8002850:	2200      	movs	r2, #0
 8002852:	601a      	str	r2, [r3, #0]
 8002854:	809a      	strh	r2, [r3, #4]
  int float_m, float_n; //         

  switch (num_item)
 8002856:	79fb      	ldrb	r3, [r7, #7]
 8002858:	2b0e      	cmp	r3, #14
 800285a:	f200 814d 	bhi.w	8002af8 <fnPrintMenuParamItemVal+0x2c0>
 800285e:	a201      	add	r2, pc, #4	; (adr r2, 8002864 <fnPrintMenuParamItemVal+0x2c>)
 8002860:	f852 f023 	ldr.w	pc, [r2, r3, lsl #2]
 8002864:	080028a1 	.word	0x080028a1
 8002868:	080028ef 	.word	0x080028ef
 800286c:	08002901 	.word	0x08002901
 8002870:	08002957 	.word	0x08002957
 8002874:	080029ad 	.word	0x080029ad
 8002878:	08002a03 	.word	0x08002a03
 800287c:	08002a51 	.word	0x08002a51
 8002880:	08002a7b 	.word	0x08002a7b
 8002884:	08002a8d 	.word	0x08002a8d
 8002888:	08002a9f 	.word	0x08002a9f
 800288c:	08002ab1 	.word	0x08002ab1
 8002890:	08002ac3 	.word	0x08002ac3
 8002894:	08002ad5 	.word	0x08002ad5
 8002898:	08002ae7 	.word	0x08002ae7
 800289c:	08002af9 	.word	0x08002af9
  {
  case 0:
    float_m = (int)(main_data.battery_voltage * 10);
 80028a0:	4b9e      	ldr	r3, [pc, #632]	; (8002b1c <fnPrintMenuParamItemVal+0x2e4>)
 80028a2:	7b9b      	ldrb	r3, [r3, #14]
 80028a4:	461a      	mov	r2, r3
 80028a6:	4613      	mov	r3, r2
 80028a8:	009b      	lsls	r3, r3, #2
 80028aa:	4413      	add	r3, r2
 80028ac:	005b      	lsls	r3, r3, #1
 80028ae:	61fb      	str	r3, [r7, #28]
    float_n = float_m%10;
 80028b0:	69fa      	ldr	r2, [r7, #28]
 80028b2:	4b9b      	ldr	r3, [pc, #620]	; (8002b20 <fnPrintMenuParamItemVal+0x2e8>)
 80028b4:	fb83 1302 	smull	r1, r3, r3, r2
 80028b8:	1099      	asrs	r1, r3, #2
 80028ba:	17d3      	asrs	r3, r2, #31
 80028bc:	1ac9      	subs	r1, r1, r3
 80028be:	460b      	mov	r3, r1
 80028c0:	009b      	lsls	r3, r3, #2
 80028c2:	440b      	add	r3, r1
 80028c4:	005b      	lsls	r3, r3, #1
 80028c6:	1ad3      	subs	r3, r2, r3
 80028c8:	61bb      	str	r3, [r7, #24]
    float_m = float_m/10;
 80028ca:	69fb      	ldr	r3, [r7, #28]
 80028cc:	4a94      	ldr	r2, [pc, #592]	; (8002b20 <fnPrintMenuParamItemVal+0x2e8>)
 80028ce:	fb82 1203 	smull	r1, r2, r2, r3
 80028d2:	1092      	asrs	r2, r2, #2
 80028d4:	17db      	asrs	r3, r3, #31
 80028d6:	1ad3      	subs	r3, r2, r3
 80028d8:	61fb      	str	r3, [r7, #28]
    snprintf(buffer,sizeof(buffer),"%d.%dv",float_m, float_n);
 80028da:	f107 000c 	add.w	r0, r7, #12
 80028de:	69bb      	ldr	r3, [r7, #24]
 80028e0:	9300      	str	r3, [sp, #0]
 80028e2:	69fb      	ldr	r3, [r7, #28]
 80028e4:	4a8f      	ldr	r2, [pc, #572]	; (8002b24 <fnPrintMenuParamItemVal+0x2ec>)
 80028e6:	210a      	movs	r1, #10
 80028e8:	f001 f96a 	bl	8003bc0 <mini_snprintf>
    break;
 80028ec:	e105      	b.n	8002afa <fnPrintMenuParamItemVal+0x2c2>

  case 1:
    snprintf(buffer,sizeof(buffer),"%uL", main_data.water_level_liter);
 80028ee:	4b8b      	ldr	r3, [pc, #556]	; (8002b1c <fnPrintMenuParamItemVal+0x2e4>)
 80028f0:	7c1b      	ldrb	r3, [r3, #16]
 80028f2:	f107 000c 	add.w	r0, r7, #12
 80028f6:	4a8c      	ldr	r2, [pc, #560]	; (8002b28 <fnPrintMenuParamItemVal+0x2f0>)
 80028f8:	210a      	movs	r1, #10
 80028fa:	f001 f961 	bl	8003bc0 <mini_snprintf>
    break;
 80028fe:	e0fc      	b.n	8002afa <fnPrintMenuParamItemVal+0x2c2>

  case 2:
    float_m = (int)(main_data.outside_temperature * 10);
 8002900:	4b86      	ldr	r3, [pc, #536]	; (8002b1c <fnPrintMenuParamItemVal+0x2e4>)
 8002902:	681b      	ldr	r3, [r3, #0]
 8002904:	4989      	ldr	r1, [pc, #548]	; (8002b2c <fnPrintMenuParamItemVal+0x2f4>)
 8002906:	4618      	mov	r0, r3
 8002908:	f7fe f8a8 	bl	8000a5c <__aeabi_fmul>
 800290c:	4603      	mov	r3, r0
 800290e:	4618      	mov	r0, r3
 8002910:	f7fe f9f4 	bl	8000cfc <__aeabi_f2iz>
 8002914:	4603      	mov	r3, r0
 8002916:	61fb      	str	r3, [r7, #28]
    float_n = float_m%10;
 8002918:	69fa      	ldr	r2, [r7, #28]
 800291a:	4b81      	ldr	r3, [pc, #516]	; (8002b20 <fnPrintMenuParamItemVal+0x2e8>)
 800291c:	fb83 1302 	smull	r1, r3, r3, r2
 8002920:	1099      	asrs	r1, r3, #2
 8002922:	17d3      	asrs	r3, r2, #31
 8002924:	1ac9      	subs	r1, r1, r3
 8002926:	460b      	mov	r3, r1
 8002928:	009b      	lsls	r3, r3, #2
 800292a:	440b      	add	r3, r1
 800292c:	005b      	lsls	r3, r3, #1
 800292e:	1ad3      	subs	r3, r2, r3
 8002930:	61bb      	str	r3, [r7, #24]
    float_m = float_m/10;
 8002932:	69fb      	ldr	r3, [r7, #28]
 8002934:	4a7a      	ldr	r2, [pc, #488]	; (8002b20 <fnPrintMenuParamItemVal+0x2e8>)
 8002936:	fb82 1203 	smull	r1, r2, r2, r3
 800293a:	1092      	asrs	r2, r2, #2
 800293c:	17db      	asrs	r3, r3, #31
 800293e:	1ad3      	subs	r3, r2, r3
 8002940:	61fb      	str	r3, [r7, #28]
    snprintf(buffer,sizeof(buffer),"%d.%dC",float_m, float_n);
 8002942:	f107 000c 	add.w	r0, r7, #12
 8002946:	69bb      	ldr	r3, [r7, #24]
 8002948:	9300      	str	r3, [sp, #0]
 800294a:	69fb      	ldr	r3, [r7, #28]
 800294c:	4a78      	ldr	r2, [pc, #480]	; (8002b30 <fnPrintMenuParamItemVal+0x2f8>)
 800294e:	210a      	movs	r1, #10
 8002950:	f001 f936 	bl	8003bc0 <mini_snprintf>
    break;
 8002954:	e0d1      	b.n	8002afa <fnPrintMenuParamItemVal+0x2c2>

  case 3:
    float_m = (int)(main_data.inside_temperature * 10);
 8002956:	4b71      	ldr	r3, [pc, #452]	; (8002b1c <fnPrintMenuParamItemVal+0x2e4>)
 8002958:	685b      	ldr	r3, [r3, #4]
 800295a:	4974      	ldr	r1, [pc, #464]	; (8002b2c <fnPrintMenuParamItemVal+0x2f4>)
 800295c:	4618      	mov	r0, r3
 800295e:	f7fe f87d 	bl	8000a5c <__aeabi_fmul>
 8002962:	4603      	mov	r3, r0
 8002964:	4618      	mov	r0, r3
 8002966:	f7fe f9c9 	bl	8000cfc <__aeabi_f2iz>
 800296a:	4603      	mov	r3, r0
 800296c:	61fb      	str	r3, [r7, #28]
    float_n = float_m%10;
 800296e:	69fa      	ldr	r2, [r7, #28]
 8002970:	4b6b      	ldr	r3, [pc, #428]	; (8002b20 <fnPrintMenuParamItemVal+0x2e8>)
 8002972:	fb83 1302 	smull	r1, r3, r3, r2
 8002976:	1099      	asrs	r1, r3, #2
 8002978:	17d3      	asrs	r3, r2, #31
 800297a:	1ac9      	subs	r1, r1, r3
 800297c:	460b      	mov	r3, r1
 800297e:	009b      	lsls	r3, r3, #2
 8002980:	440b      	add	r3, r1
 8002982:	005b      	lsls	r3, r3, #1
 8002984:	1ad3      	subs	r3, r2, r3
 8002986:	61bb      	str	r3, [r7, #24]
    float_m = float_m/10;
 8002988:	69fb      	ldr	r3, [r7, #28]
 800298a:	4a65      	ldr	r2, [pc, #404]	; (8002b20 <fnPrintMenuParamItemVal+0x2e8>)
 800298c:	fb82 1203 	smull	r1, r2, r2, r3
 8002990:	1092      	asrs	r2, r2, #2
 8002992:	17db      	asrs	r3, r3, #31
 8002994:	1ad3      	subs	r3, r2, r3
 8002996:	61fb      	str	r3, [r7, #28]
    snprintf(buffer,sizeof(buffer),"%d.%dC",float_m, float_n);
 8002998:	f107 000c 	add.w	r0, r7, #12
 800299c:	69bb      	ldr	r3, [r7, #24]
 800299e:	9300      	str	r3, [sp, #0]
 80029a0:	69fb      	ldr	r3, [r7, #28]
 80029a2:	4a63      	ldr	r2, [pc, #396]	; (8002b30 <fnPrintMenuParamItemVal+0x2f8>)
 80029a4:	210a      	movs	r1, #10
 80029a6:	f001 f90b 	bl	8003bc0 <mini_snprintf>
    break;
 80029aa:	e0a6      	b.n	8002afa <fnPrintMenuParamItemVal+0x2c2>

  case 4:
    float_m = (int)(main_data.fridge_temperature * 10);
 80029ac:	4b5b      	ldr	r3, [pc, #364]	; (8002b1c <fnPrintMenuParamItemVal+0x2e4>)
 80029ae:	689b      	ldr	r3, [r3, #8]
 80029b0:	495e      	ldr	r1, [pc, #376]	; (8002b2c <fnPrintMenuParamItemVal+0x2f4>)
 80029b2:	4618      	mov	r0, r3
 80029b4:	f7fe f852 	bl	8000a5c <__aeabi_fmul>
 80029b8:	4603      	mov	r3, r0
 80029ba:	4618      	mov	r0, r3
 80029bc:	f7fe f99e 	bl	8000cfc <__aeabi_f2iz>
 80029c0:	4603      	mov	r3, r0
 80029c2:	61fb      	str	r3, [r7, #28]
    float_n = float_m%10;
 80029c4:	69fa      	ldr	r2, [r7, #28]
 80029c6:	4b56      	ldr	r3, [pc, #344]	; (8002b20 <fnPrintMenuParamItemVal+0x2e8>)
 80029c8:	fb83 1302 	smull	r1, r3, r3, r2
 80029cc:	1099      	asrs	r1, r3, #2
 80029ce:	17d3      	asrs	r3, r2, #31
 80029d0:	1ac9      	subs	r1, r1, r3
 80029d2:	460b      	mov	r3, r1
 80029d4:	009b      	lsls	r3, r3, #2
 80029d6:	440b      	add	r3, r1
 80029d8:	005b      	lsls	r3, r3, #1
 80029da:	1ad3      	subs	r3, r2, r3
 80029dc:	61bb      	str	r3, [r7, #24]
    float_m = float_m/10;
 80029de:	69fb      	ldr	r3, [r7, #28]
 80029e0:	4a4f      	ldr	r2, [pc, #316]	; (8002b20 <fnPrintMenuParamItemVal+0x2e8>)
 80029e2:	fb82 1203 	smull	r1, r2, r2, r3
 80029e6:	1092      	asrs	r2, r2, #2
 80029e8:	17db      	asrs	r3, r3, #31
 80029ea:	1ad3      	subs	r3, r2, r3
 80029ec:	61fb      	str	r3, [r7, #28]
    snprintf(buffer,sizeof(buffer),"%d.%dC",float_m, float_n);
 80029ee:	f107 000c 	add.w	r0, r7, #12
 80029f2:	69bb      	ldr	r3, [r7, #24]
 80029f4:	9300      	str	r3, [sp, #0]
 80029f6:	69fb      	ldr	r3, [r7, #28]
 80029f8:	4a4d      	ldr	r2, [pc, #308]	; (8002b30 <fnPrintMenuParamItemVal+0x2f8>)
 80029fa:	210a      	movs	r1, #10
 80029fc:	f001 f8e0 	bl	8003bc0 <mini_snprintf>
    break;
 8002a00:	e07b      	b.n	8002afa <fnPrintMenuParamItemVal+0x2c2>

  case 5:
    float_m = (int)(main_data.sensors_supply_voltage * 10);
 8002a02:	4b46      	ldr	r3, [pc, #280]	; (8002b1c <fnPrintMenuParamItemVal+0x2e4>)
 8002a04:	7bdb      	ldrb	r3, [r3, #15]
 8002a06:	461a      	mov	r2, r3
 8002a08:	4613      	mov	r3, r2
 8002a0a:	009b      	lsls	r3, r3, #2
 8002a0c:	4413      	add	r3, r2
 8002a0e:	005b      	lsls	r3, r3, #1
 8002a10:	61fb      	str	r3, [r7, #28]
    float_n = float_m%10;
 8002a12:	69fa      	ldr	r2, [r7, #28]
 8002a14:	4b42      	ldr	r3, [pc, #264]	; (8002b20 <fnPrintMenuParamItemVal+0x2e8>)
 8002a16:	fb83 1302 	smull	r1, r3, r3, r2
 8002a1a:	1099      	asrs	r1, r3, #2
 8002a1c:	17d3      	asrs	r3, r2, #31
 8002a1e:	1ac9      	subs	r1, r1, r3
 8002a20:	460b      	mov	r3, r1
 8002a22:	009b      	lsls	r3, r3, #2
 8002a24:	440b      	add	r3, r1
 8002a26:	005b      	lsls	r3, r3, #1
 8002a28:	1ad3      	subs	r3, r2, r3
 8002a2a:	61bb      	str	r3, [r7, #24]
    float_m = float_m/10;
 8002a2c:	69fb      	ldr	r3, [r7, #28]
 8002a2e:	4a3c      	ldr	r2, [pc, #240]	; (8002b20 <fnPrintMenuParamItemVal+0x2e8>)
 8002a30:	fb82 1203 	smull	r1, r2, r2, r3
 8002a34:	1092      	asrs	r2, r2, #2
 8002a36:	17db      	asrs	r3, r3, #31
 8002a38:	1ad3      	subs	r3, r2, r3
 8002a3a:	61fb      	str	r3, [r7, #28]
    snprintf(buffer,sizeof(buffer),"%d.%dv",float_m, float_n);
 8002a3c:	f107 000c 	add.w	r0, r7, #12
 8002a40:	69bb      	ldr	r3, [r7, #24]
 8002a42:	9300      	str	r3, [sp, #0]
 8002a44:	69fb      	ldr	r3, [r7, #28]
 8002a46:	4a37      	ldr	r2, [pc, #220]	; (8002b24 <fnPrintMenuParamItemVal+0x2ec>)
 8002a48:	210a      	movs	r1, #10
 8002a4a:	f001 f8b9 	bl	8003bc0 <mini_snprintf>
    break;
 8002a4e:	e054      	b.n	8002afa <fnPrintMenuParamItemVal+0x2c2>

  case 6:
    if(main_data.res_sensor_resistance <= MAX_RESISTANCE)snprintf(buffer,sizeof(buffer),"%d",main_data.res_sensor_resistance);
 8002a50:	4b32      	ldr	r3, [pc, #200]	; (8002b1c <fnPrintMenuParamItemVal+0x2e4>)
 8002a52:	899b      	ldrh	r3, [r3, #12]
 8002a54:	2bf0      	cmp	r3, #240	; 0xf0
 8002a56:	d808      	bhi.n	8002a6a <fnPrintMenuParamItemVal+0x232>
 8002a58:	4b30      	ldr	r3, [pc, #192]	; (8002b1c <fnPrintMenuParamItemVal+0x2e4>)
 8002a5a:	899b      	ldrh	r3, [r3, #12]
 8002a5c:	f107 000c 	add.w	r0, r7, #12
 8002a60:	4a34      	ldr	r2, [pc, #208]	; (8002b34 <fnPrintMenuParamItemVal+0x2fc>)
 8002a62:	210a      	movs	r1, #10
 8002a64:	f001 f8ac 	bl	8003bc0 <mini_snprintf>
    else snprintf(buffer,sizeof(buffer),"xxx");
    break;
 8002a68:	e047      	b.n	8002afa <fnPrintMenuParamItemVal+0x2c2>
    else snprintf(buffer,sizeof(buffer),"xxx");
 8002a6a:	f107 030c 	add.w	r3, r7, #12
 8002a6e:	4a32      	ldr	r2, [pc, #200]	; (8002b38 <fnPrintMenuParamItemVal+0x300>)
 8002a70:	210a      	movs	r1, #10
 8002a72:	4618      	mov	r0, r3
 8002a74:	f001 f8a4 	bl	8003bc0 <mini_snprintf>
    break;
 8002a78:	e03f      	b.n	8002afa <fnPrintMenuParamItemVal+0x2c2>

  case 7:
    snprintf(buffer,sizeof(buffer),"%1u", main_data.door_switch_state);
 8002a7a:	4b28      	ldr	r3, [pc, #160]	; (8002b1c <fnPrintMenuParamItemVal+0x2e4>)
 8002a7c:	7c9b      	ldrb	r3, [r3, #18]
 8002a7e:	f107 000c 	add.w	r0, r7, #12
 8002a82:	4a2e      	ldr	r2, [pc, #184]	; (8002b3c <fnPrintMenuParamItemVal+0x304>)
 8002a84:	210a      	movs	r1, #10
 8002a86:	f001 f89b 	bl	8003bc0 <mini_snprintf>

    break;
 8002a8a:	e036      	b.n	8002afa <fnPrintMenuParamItemVal+0x2c2>

  case 8:
    snprintf(buffer,sizeof(buffer),"%1u", main_data.proximity_sensor_state);
 8002a8c:	4b23      	ldr	r3, [pc, #140]	; (8002b1c <fnPrintMenuParamItemVal+0x2e4>)
 8002a8e:	7cdb      	ldrb	r3, [r3, #19]
 8002a90:	f107 000c 	add.w	r0, r7, #12
 8002a94:	4a29      	ldr	r2, [pc, #164]	; (8002b3c <fnPrintMenuParamItemVal+0x304>)
 8002a96:	210a      	movs	r1, #10
 8002a98:	f001 f892 	bl	8003bc0 <mini_snprintf>
    break;
 8002a9c:	e02d      	b.n	8002afa <fnPrintMenuParamItemVal+0x2c2>
  case 9:
    snprintf(buffer,sizeof(buffer),"%1u", main_data.ignition_switch_state);
 8002a9e:	4b1f      	ldr	r3, [pc, #124]	; (8002b1c <fnPrintMenuParamItemVal+0x2e4>)
 8002aa0:	7d1b      	ldrb	r3, [r3, #20]
 8002aa2:	f107 000c 	add.w	r0, r7, #12
 8002aa6:	4a25      	ldr	r2, [pc, #148]	; (8002b3c <fnPrintMenuParamItemVal+0x304>)
 8002aa8:	210a      	movs	r1, #10
 8002aaa:	f001 f889 	bl	8003bc0 <mini_snprintf>
    break;
 8002aae:	e024      	b.n	8002afa <fnPrintMenuParamItemVal+0x2c2>

  case 10:
	snprintf(buffer,sizeof(buffer),"%1u", main_data.converter_output_state);
 8002ab0:	4b1a      	ldr	r3, [pc, #104]	; (8002b1c <fnPrintMenuParamItemVal+0x2e4>)
 8002ab2:	7d5b      	ldrb	r3, [r3, #21]
 8002ab4:	f107 000c 	add.w	r0, r7, #12
 8002ab8:	4a20      	ldr	r2, [pc, #128]	; (8002b3c <fnPrintMenuParamItemVal+0x304>)
 8002aba:	210a      	movs	r1, #10
 8002abc:	f001 f880 	bl	8003bc0 <mini_snprintf>
    break;
 8002ac0:	e01b      	b.n	8002afa <fnPrintMenuParamItemVal+0x2c2>

  case 11:
    snprintf(buffer,sizeof(buffer),"%1u", main_data.fridge_output_state);
 8002ac2:	4b16      	ldr	r3, [pc, #88]	; (8002b1c <fnPrintMenuParamItemVal+0x2e4>)
 8002ac4:	7d9b      	ldrb	r3, [r3, #22]
 8002ac6:	f107 000c 	add.w	r0, r7, #12
 8002aca:	4a1c      	ldr	r2, [pc, #112]	; (8002b3c <fnPrintMenuParamItemVal+0x304>)
 8002acc:	210a      	movs	r1, #10
 8002ace:	f001 f877 	bl	8003bc0 <mini_snprintf>
    break;
 8002ad2:	e012      	b.n	8002afa <fnPrintMenuParamItemVal+0x2c2>

  case 12:
    snprintf(buffer,sizeof(buffer),"%1u", main_data.pump_output_state);
 8002ad4:	4b11      	ldr	r3, [pc, #68]	; (8002b1c <fnPrintMenuParamItemVal+0x2e4>)
 8002ad6:	7ddb      	ldrb	r3, [r3, #23]
 8002ad8:	f107 000c 	add.w	r0, r7, #12
 8002adc:	4a17      	ldr	r2, [pc, #92]	; (8002b3c <fnPrintMenuParamItemVal+0x304>)
 8002ade:	210a      	movs	r1, #10
 8002ae0:	f001 f86e 	bl	8003bc0 <mini_snprintf>
    break;
 8002ae4:	e009      	b.n	8002afa <fnPrintMenuParamItemVal+0x2c2>

  case 13:
	snprintf(buffer,sizeof(buffer),"%1u", main_data.error_code);
 8002ae6:	4b0d      	ldr	r3, [pc, #52]	; (8002b1c <fnPrintMenuParamItemVal+0x2e4>)
 8002ae8:	7c5b      	ldrb	r3, [r3, #17]
 8002aea:	f107 000c 	add.w	r0, r7, #12
 8002aee:	4a13      	ldr	r2, [pc, #76]	; (8002b3c <fnPrintMenuParamItemVal+0x304>)
 8002af0:	210a      	movs	r1, #10
 8002af2:	f001 f865 	bl	8003bc0 <mini_snprintf>
    break;
 8002af6:	e000      	b.n	8002afa <fnPrintMenuParamItemVal+0x2c2>
  case 14:

    break;

  default:
    break;
 8002af8:	bf00      	nop
  }

  u8g2_DrawStr(&u8g2,98,(num_line*12),buffer);
 8002afa:	79bb      	ldrb	r3, [r7, #6]
 8002afc:	b29b      	uxth	r3, r3
 8002afe:	461a      	mov	r2, r3
 8002b00:	0052      	lsls	r2, r2, #1
 8002b02:	4413      	add	r3, r2
 8002b04:	009b      	lsls	r3, r3, #2
 8002b06:	b29a      	uxth	r2, r3
 8002b08:	f107 030c 	add.w	r3, r7, #12
 8002b0c:	2162      	movs	r1, #98	; 0x62
 8002b0e:	480c      	ldr	r0, [pc, #48]	; (8002b40 <fnPrintMenuParamItemVal+0x308>)
 8002b10:	f002 f902 	bl	8004d18 <u8g2_DrawStr>
}
 8002b14:	bf00      	nop
 8002b16:	3720      	adds	r7, #32
 8002b18:	46bd      	mov	sp, r7
 8002b1a:	bd80      	pop	{r7, pc}
 8002b1c:	20000988 	.word	0x20000988
 8002b20:	66666667 	.word	0x66666667
 8002b24:	08008a60 	.word	0x08008a60
 8002b28:	08008a68 	.word	0x08008a68
 8002b2c:	41200000 	.word	0x41200000
 8002b30:	08008a6c 	.word	0x08008a6c
 8002b34:	08008a54 	.word	0x08008a54
 8002b38:	08008a74 	.word	0x08008a74
 8002b3c:	08008a78 	.word	0x08008a78
 8002b40:	20000a14 	.word	0x20000a14

08002b44 <fnPrintMenuParamView>:
//*************************************************************************************************************

//     ---------------------------------------------
void fnPrintMenuParamView(void){
 8002b44:	b580      	push	{r7, lr}
 8002b46:	b082      	sub	sp, #8
 8002b48:	af00      	add	r7, sp, #0

	u8g2_ClearBuffer(&u8g2);				//
 8002b4a:	482a      	ldr	r0, [pc, #168]	; (8002bf4 <fnPrintMenuParamView+0xb0>)
 8002b4c:	f001 fad8 	bl	8004100 <u8g2_ClearBuffer>
	u8g2_SetFont(&u8g2,u8g2_font_ncenB08_tr);
 8002b50:	4929      	ldr	r1, [pc, #164]	; (8002bf8 <fnPrintMenuParamView+0xb4>)
 8002b52:	4828      	ldr	r0, [pc, #160]	; (8002bf4 <fnPrintMenuParamView+0xb0>)
 8002b54:	f002 f97e 	bl	8004e54 <u8g2_SetFont>

  for (uint8_t i = 0; i < display_num_lines; i++) {   // ,    
 8002b58:	2300      	movs	r3, #0
 8002b5a:	71fb      	strb	r3, [r7, #7]
 8002b5c:	e024      	b.n	8002ba8 <fnPrintMenuParamView+0x64>

    fnPrintMenuItemName(i+(menu_current_page*display_num_lines), i+1, parameters_names); //   
 8002b5e:	4b27      	ldr	r3, [pc, #156]	; (8002bfc <fnPrintMenuParamView+0xb8>)
 8002b60:	781b      	ldrb	r3, [r3, #0]
 8002b62:	4a27      	ldr	r2, [pc, #156]	; (8002c00 <fnPrintMenuParamView+0xbc>)
 8002b64:	7812      	ldrb	r2, [r2, #0]
 8002b66:	fb02 f303 	mul.w	r3, r2, r3
 8002b6a:	b2da      	uxtb	r2, r3
 8002b6c:	79fb      	ldrb	r3, [r7, #7]
 8002b6e:	4413      	add	r3, r2
 8002b70:	b2d8      	uxtb	r0, r3
 8002b72:	79fb      	ldrb	r3, [r7, #7]
 8002b74:	3301      	adds	r3, #1
 8002b76:	b2db      	uxtb	r3, r3
 8002b78:	4a22      	ldr	r2, [pc, #136]	; (8002c04 <fnPrintMenuParamView+0xc0>)
 8002b7a:	4619      	mov	r1, r3
 8002b7c:	f7ff fb08 	bl	8002190 <fnPrintMenuItemName>
    fnPrintMenuParamItemVal(i+(menu_current_page*display_num_lines), i+1); //     
 8002b80:	4b1e      	ldr	r3, [pc, #120]	; (8002bfc <fnPrintMenuParamView+0xb8>)
 8002b82:	781b      	ldrb	r3, [r3, #0]
 8002b84:	4a1e      	ldr	r2, [pc, #120]	; (8002c00 <fnPrintMenuParamView+0xbc>)
 8002b86:	7812      	ldrb	r2, [r2, #0]
 8002b88:	fb02 f303 	mul.w	r3, r2, r3
 8002b8c:	b2da      	uxtb	r2, r3
 8002b8e:	79fb      	ldrb	r3, [r7, #7]
 8002b90:	4413      	add	r3, r2
 8002b92:	b2da      	uxtb	r2, r3
 8002b94:	79fb      	ldrb	r3, [r7, #7]
 8002b96:	3301      	adds	r3, #1
 8002b98:	b2db      	uxtb	r3, r3
 8002b9a:	4619      	mov	r1, r3
 8002b9c:	4610      	mov	r0, r2
 8002b9e:	f7ff fe4b 	bl	8002838 <fnPrintMenuParamItemVal>
  for (uint8_t i = 0; i < display_num_lines; i++) {   // ,    
 8002ba2:	79fb      	ldrb	r3, [r7, #7]
 8002ba4:	3301      	adds	r3, #1
 8002ba6:	71fb      	strb	r3, [r7, #7]
 8002ba8:	4b15      	ldr	r3, [pc, #84]	; (8002c00 <fnPrintMenuParamView+0xbc>)
 8002baa:	781b      	ldrb	r3, [r3, #0]
 8002bac:	79fa      	ldrb	r2, [r7, #7]
 8002bae:	429a      	cmp	r2, r3
 8002bb0:	d3d5      	bcc.n	8002b5e <fnPrintMenuParamView+0x1a>
  }

  //   
    uint8_t scroll_bar_height = display_height/(MENU_PARAM_VIEW_NUM_ITEMS/display_num_lines);
 8002bb2:	4b15      	ldr	r3, [pc, #84]	; (8002c08 <fnPrintMenuParamView+0xc4>)
 8002bb4:	781b      	ldrb	r3, [r3, #0]
 8002bb6:	461a      	mov	r2, r3
 8002bb8:	4b11      	ldr	r3, [pc, #68]	; (8002c00 <fnPrintMenuParamView+0xbc>)
 8002bba:	781b      	ldrb	r3, [r3, #0]
 8002bbc:	4619      	mov	r1, r3
 8002bbe:	230f      	movs	r3, #15
 8002bc0:	fb93 f3f1 	sdiv	r3, r3, r1
 8002bc4:	fb92 f3f3 	sdiv	r3, r2, r3
 8002bc8:	71bb      	strb	r3, [r7, #6]
    u8g2_DrawVLine(&u8g2,127, menu_current_page*scroll_bar_height, scroll_bar_height);
 8002bca:	4b0c      	ldr	r3, [pc, #48]	; (8002bfc <fnPrintMenuParamView+0xb8>)
 8002bcc:	781b      	ldrb	r3, [r3, #0]
 8002bce:	b29b      	uxth	r3, r3
 8002bd0:	79ba      	ldrb	r2, [r7, #6]
 8002bd2:	b292      	uxth	r2, r2
 8002bd4:	fb02 f303 	mul.w	r3, r2, r3
 8002bd8:	b29a      	uxth	r2, r3
 8002bda:	79bb      	ldrb	r3, [r7, #6]
 8002bdc:	b29b      	uxth	r3, r3
 8002bde:	217f      	movs	r1, #127	; 0x7f
 8002be0:	4804      	ldr	r0, [pc, #16]	; (8002bf4 <fnPrintMenuParamView+0xb0>)
 8002be2:	f002 fa4a 	bl	800507a <u8g2_DrawVLine>

    u8g2_SendBuffer(&u8g2);
 8002be6:	4803      	ldr	r0, [pc, #12]	; (8002bf4 <fnPrintMenuParamView+0xb0>)
 8002be8:	f001 fafd 	bl	80041e6 <u8g2_SendBuffer>

}
 8002bec:	bf00      	nop
 8002bee:	3708      	adds	r7, #8
 8002bf0:	46bd      	mov	sp, r7
 8002bf2:	bd80      	pop	{r7, pc}
 8002bf4:	20000a14 	.word	0x20000a14
 8002bf8:	08009d74 	.word	0x08009d74
 8002bfc:	2000007d 	.word	0x2000007d
 8002c00:	2000092c 	.word	0x2000092c
 8002c04:	08008b74 	.word	0x08008b74
 8002c08:	2000092d 	.word	0x2000092d

08002c0c <fnPrintMainView>:
//*******************************************************************************************************************

//    -----------------------------------------------
void fnPrintMainView(void){
 8002c0c:	b580      	push	{r7, lr}
 8002c0e:	b088      	sub	sp, #32
 8002c10:	af02      	add	r7, sp, #8

  char buffer[20] = {0,};
 8002c12:	2300      	movs	r3, #0
 8002c14:	603b      	str	r3, [r7, #0]
 8002c16:	1d3b      	adds	r3, r7, #4
 8002c18:	2200      	movs	r2, #0
 8002c1a:	601a      	str	r2, [r3, #0]
 8002c1c:	605a      	str	r2, [r3, #4]
 8002c1e:	609a      	str	r2, [r3, #8]
 8002c20:	60da      	str	r2, [r3, #12]
  uint8_t float_m, float_n; //         

  u8g2_ClearBuffer(&u8g2);					//
 8002c22:	48b8      	ldr	r0, [pc, #736]	; (8002f04 <fnPrintMainView+0x2f8>)
 8002c24:	f001 fa6c 	bl	8004100 <u8g2_ClearBuffer>


  u8g2_SetFont(&u8g2,u8g2_font_5x7_tr);
 8002c28:	49b7      	ldr	r1, [pc, #732]	; (8002f08 <fnPrintMainView+0x2fc>)
 8002c2a:	48b6      	ldr	r0, [pc, #728]	; (8002f04 <fnPrintMainView+0x2f8>)
 8002c2c:	f002 f912 	bl	8004e54 <u8g2_SetFont>

  u8g2_DrawBox(&u8g2,98,1,31,8);
 8002c30:	2308      	movs	r3, #8
 8002c32:	9300      	str	r3, [sp, #0]
 8002c34:	231f      	movs	r3, #31
 8002c36:	2201      	movs	r2, #1
 8002c38:	2162      	movs	r1, #98	; 0x62
 8002c3a:	48b2      	ldr	r0, [pc, #712]	; (8002f04 <fnPrintMainView+0x2f8>)
 8002c3c:	f001 f9cd 	bl	8003fda <u8g2_DrawBox>
  u8g2_DrawBox(&u8g2,98,11,31,8);
 8002c40:	2308      	movs	r3, #8
 8002c42:	9300      	str	r3, [sp, #0]
 8002c44:	231f      	movs	r3, #31
 8002c46:	220b      	movs	r2, #11
 8002c48:	2162      	movs	r1, #98	; 0x62
 8002c4a:	48ae      	ldr	r0, [pc, #696]	; (8002f04 <fnPrintMainView+0x2f8>)
 8002c4c:	f001 f9c5 	bl	8003fda <u8g2_DrawBox>
  u8g2_DrawBox(&u8g2,98,21,31,8);
 8002c50:	2308      	movs	r3, #8
 8002c52:	9300      	str	r3, [sp, #0]
 8002c54:	231f      	movs	r3, #31
 8002c56:	2215      	movs	r2, #21
 8002c58:	2162      	movs	r1, #98	; 0x62
 8002c5a:	48aa      	ldr	r0, [pc, #680]	; (8002f04 <fnPrintMainView+0x2f8>)
 8002c5c:	f001 f9bd 	bl	8003fda <u8g2_DrawBox>

  u8g2_SetDrawColor(&u8g2,0);
 8002c60:	2100      	movs	r1, #0
 8002c62:	48a8      	ldr	r0, [pc, #672]	; (8002f04 <fnPrintMainView+0x2f8>)
 8002c64:	f002 fa22 	bl	80050ac <u8g2_SetDrawColor>

  float_m = (uint8_t)(main_data.battery_voltage * 10);
 8002c68:	4ba8      	ldr	r3, [pc, #672]	; (8002f0c <fnPrintMainView+0x300>)
 8002c6a:	7b9b      	ldrb	r3, [r3, #14]
 8002c6c:	461a      	mov	r2, r3
 8002c6e:	0092      	lsls	r2, r2, #2
 8002c70:	4413      	add	r3, r2
 8002c72:	005b      	lsls	r3, r3, #1
 8002c74:	75fb      	strb	r3, [r7, #23]
  float_n = float_m%10;
 8002c76:	7dfa      	ldrb	r2, [r7, #23]
 8002c78:	4ba5      	ldr	r3, [pc, #660]	; (8002f10 <fnPrintMainView+0x304>)
 8002c7a:	fba3 1302 	umull	r1, r3, r3, r2
 8002c7e:	08d9      	lsrs	r1, r3, #3
 8002c80:	460b      	mov	r3, r1
 8002c82:	009b      	lsls	r3, r3, #2
 8002c84:	440b      	add	r3, r1
 8002c86:	005b      	lsls	r3, r3, #1
 8002c88:	1ad3      	subs	r3, r2, r3
 8002c8a:	75bb      	strb	r3, [r7, #22]
  float_m = float_m/10;
 8002c8c:	7dfb      	ldrb	r3, [r7, #23]
 8002c8e:	4aa0      	ldr	r2, [pc, #640]	; (8002f10 <fnPrintMainView+0x304>)
 8002c90:	fba2 2303 	umull	r2, r3, r2, r3
 8002c94:	08db      	lsrs	r3, r3, #3
 8002c96:	75fb      	strb	r3, [r7, #23]
  snprintf(buffer,sizeof(buffer),"%d.%dv",float_m, float_n);
 8002c98:	7dfa      	ldrb	r2, [r7, #23]
 8002c9a:	7dbb      	ldrb	r3, [r7, #22]
 8002c9c:	4638      	mov	r0, r7
 8002c9e:	9300      	str	r3, [sp, #0]
 8002ca0:	4613      	mov	r3, r2
 8002ca2:	4a9c      	ldr	r2, [pc, #624]	; (8002f14 <fnPrintMainView+0x308>)
 8002ca4:	2114      	movs	r1, #20
 8002ca6:	f000 ff8b 	bl	8003bc0 <mini_snprintf>
  u8g2_DrawStr(&u8g2,102, 8, buffer);
 8002caa:	463b      	mov	r3, r7
 8002cac:	2208      	movs	r2, #8
 8002cae:	2166      	movs	r1, #102	; 0x66
 8002cb0:	4894      	ldr	r0, [pc, #592]	; (8002f04 <fnPrintMainView+0x2f8>)
 8002cb2:	f002 f831 	bl	8004d18 <u8g2_DrawStr>

  snprintf(buffer,sizeof(buffer),"> %dC", (int)main_data.inside_temperature);
 8002cb6:	4b95      	ldr	r3, [pc, #596]	; (8002f0c <fnPrintMainView+0x300>)
 8002cb8:	685b      	ldr	r3, [r3, #4]
 8002cba:	4618      	mov	r0, r3
 8002cbc:	f7fe f81e 	bl	8000cfc <__aeabi_f2iz>
 8002cc0:	4603      	mov	r3, r0
 8002cc2:	4638      	mov	r0, r7
 8002cc4:	4a94      	ldr	r2, [pc, #592]	; (8002f18 <fnPrintMainView+0x30c>)
 8002cc6:	2114      	movs	r1, #20
 8002cc8:	f000 ff7a 	bl	8003bc0 <mini_snprintf>
  u8g2_DrawStr(&u8g2, 98, 18, buffer);
 8002ccc:	463b      	mov	r3, r7
 8002cce:	2212      	movs	r2, #18
 8002cd0:	2162      	movs	r1, #98	; 0x62
 8002cd2:	488c      	ldr	r0, [pc, #560]	; (8002f04 <fnPrintMainView+0x2f8>)
 8002cd4:	f002 f820 	bl	8004d18 <u8g2_DrawStr>

  snprintf(buffer,sizeof(buffer),"< %dC", (int)main_data.outside_temperature);
 8002cd8:	4b8c      	ldr	r3, [pc, #560]	; (8002f0c <fnPrintMainView+0x300>)
 8002cda:	681b      	ldr	r3, [r3, #0]
 8002cdc:	4618      	mov	r0, r3
 8002cde:	f7fe f80d 	bl	8000cfc <__aeabi_f2iz>
 8002ce2:	4603      	mov	r3, r0
 8002ce4:	4638      	mov	r0, r7
 8002ce6:	4a8d      	ldr	r2, [pc, #564]	; (8002f1c <fnPrintMainView+0x310>)
 8002ce8:	2114      	movs	r1, #20
 8002cea:	f000 ff69 	bl	8003bc0 <mini_snprintf>
  u8g2_DrawStr(&u8g2, 98, 28, buffer);
 8002cee:	463b      	mov	r3, r7
 8002cf0:	221c      	movs	r2, #28
 8002cf2:	2162      	movs	r1, #98	; 0x62
 8002cf4:	4883      	ldr	r0, [pc, #524]	; (8002f04 <fnPrintMainView+0x2f8>)
 8002cf6:	f002 f80f 	bl	8004d18 <u8g2_DrawStr>

  u8g2_SetDrawColor(&u8g2,1);
 8002cfa:	2101      	movs	r1, #1
 8002cfc:	4881      	ldr	r0, [pc, #516]	; (8002f04 <fnPrintMainView+0x2f8>)
 8002cfe:	f002 f9d5 	bl	80050ac <u8g2_SetDrawColor>

  if(main_data.pump_output_state){
 8002d02:	4b82      	ldr	r3, [pc, #520]	; (8002f0c <fnPrintMainView+0x300>)
 8002d04:	7ddb      	ldrb	r3, [r3, #23]
 8002d06:	2b00      	cmp	r3, #0
 8002d08:	d016      	beq.n	8002d38 <fnPrintMainView+0x12c>
	u8g2_DrawBox(&u8g2,64,1,21,8);
 8002d0a:	2308      	movs	r3, #8
 8002d0c:	9300      	str	r3, [sp, #0]
 8002d0e:	2315      	movs	r3, #21
 8002d10:	2201      	movs	r2, #1
 8002d12:	2140      	movs	r1, #64	; 0x40
 8002d14:	487b      	ldr	r0, [pc, #492]	; (8002f04 <fnPrintMainView+0x2f8>)
 8002d16:	f001 f960 	bl	8003fda <u8g2_DrawBox>
	u8g2_SetDrawColor(&u8g2,0);
 8002d1a:	2100      	movs	r1, #0
 8002d1c:	4879      	ldr	r0, [pc, #484]	; (8002f04 <fnPrintMainView+0x2f8>)
 8002d1e:	f002 f9c5 	bl	80050ac <u8g2_SetDrawColor>
	u8g2_DrawStr(&u8g2,65, 8, "PUMP");
 8002d22:	4b7f      	ldr	r3, [pc, #508]	; (8002f20 <fnPrintMainView+0x314>)
 8002d24:	2208      	movs	r2, #8
 8002d26:	2141      	movs	r1, #65	; 0x41
 8002d28:	4876      	ldr	r0, [pc, #472]	; (8002f04 <fnPrintMainView+0x2f8>)
 8002d2a:	f001 fff5 	bl	8004d18 <u8g2_DrawStr>
	u8g2_SetDrawColor(&u8g2,1);
 8002d2e:	2101      	movs	r1, #1
 8002d30:	4874      	ldr	r0, [pc, #464]	; (8002f04 <fnPrintMainView+0x2f8>)
 8002d32:	f002 f9bb 	bl	80050ac <u8g2_SetDrawColor>
 8002d36:	e00f      	b.n	8002d58 <fnPrintMainView+0x14c>
  }
  else{
	u8g2_SetDrawColor(&u8g2,0);
 8002d38:	2100      	movs	r1, #0
 8002d3a:	4872      	ldr	r0, [pc, #456]	; (8002f04 <fnPrintMainView+0x2f8>)
 8002d3c:	f002 f9b6 	bl	80050ac <u8g2_SetDrawColor>
	u8g2_DrawBox(&u8g2,64,1,21,8);
 8002d40:	2308      	movs	r3, #8
 8002d42:	9300      	str	r3, [sp, #0]
 8002d44:	2315      	movs	r3, #21
 8002d46:	2201      	movs	r2, #1
 8002d48:	2140      	movs	r1, #64	; 0x40
 8002d4a:	486e      	ldr	r0, [pc, #440]	; (8002f04 <fnPrintMainView+0x2f8>)
 8002d4c:	f001 f945 	bl	8003fda <u8g2_DrawBox>
	u8g2_SetDrawColor(&u8g2,0);
 8002d50:	2100      	movs	r1, #0
 8002d52:	486c      	ldr	r0, [pc, #432]	; (8002f04 <fnPrintMainView+0x2f8>)
 8002d54:	f002 f9aa 	bl	80050ac <u8g2_SetDrawColor>
  }

  if(main_data.converter_output_state){
 8002d58:	4b6c      	ldr	r3, [pc, #432]	; (8002f0c <fnPrintMainView+0x300>)
 8002d5a:	7d5b      	ldrb	r3, [r3, #21]
 8002d5c:	2b00      	cmp	r3, #0
 8002d5e:	d016      	beq.n	8002d8e <fnPrintMainView+0x182>
	u8g2_DrawBox(&u8g2,64,11,21,8);
 8002d60:	2308      	movs	r3, #8
 8002d62:	9300      	str	r3, [sp, #0]
 8002d64:	2315      	movs	r3, #21
 8002d66:	220b      	movs	r2, #11
 8002d68:	2140      	movs	r1, #64	; 0x40
 8002d6a:	4866      	ldr	r0, [pc, #408]	; (8002f04 <fnPrintMainView+0x2f8>)
 8002d6c:	f001 f935 	bl	8003fda <u8g2_DrawBox>
	u8g2_SetDrawColor(&u8g2,0);
 8002d70:	2100      	movs	r1, #0
 8002d72:	4864      	ldr	r0, [pc, #400]	; (8002f04 <fnPrintMainView+0x2f8>)
 8002d74:	f002 f99a 	bl	80050ac <u8g2_SetDrawColor>
	u8g2_DrawStr(&u8g2,65, 18, "CONV");
 8002d78:	4b6a      	ldr	r3, [pc, #424]	; (8002f24 <fnPrintMainView+0x318>)
 8002d7a:	2212      	movs	r2, #18
 8002d7c:	2141      	movs	r1, #65	; 0x41
 8002d7e:	4861      	ldr	r0, [pc, #388]	; (8002f04 <fnPrintMainView+0x2f8>)
 8002d80:	f001 ffca 	bl	8004d18 <u8g2_DrawStr>
	u8g2_SetDrawColor(&u8g2,1);
 8002d84:	2101      	movs	r1, #1
 8002d86:	485f      	ldr	r0, [pc, #380]	; (8002f04 <fnPrintMainView+0x2f8>)
 8002d88:	f002 f990 	bl	80050ac <u8g2_SetDrawColor>
 8002d8c:	e00f      	b.n	8002dae <fnPrintMainView+0x1a2>
  }
  else{
	u8g2_SetDrawColor(&u8g2,0);
 8002d8e:	2100      	movs	r1, #0
 8002d90:	485c      	ldr	r0, [pc, #368]	; (8002f04 <fnPrintMainView+0x2f8>)
 8002d92:	f002 f98b 	bl	80050ac <u8g2_SetDrawColor>
	u8g2_DrawBox(&u8g2,64,11,21,8);
 8002d96:	2308      	movs	r3, #8
 8002d98:	9300      	str	r3, [sp, #0]
 8002d9a:	2315      	movs	r3, #21
 8002d9c:	220b      	movs	r2, #11
 8002d9e:	2140      	movs	r1, #64	; 0x40
 8002da0:	4858      	ldr	r0, [pc, #352]	; (8002f04 <fnPrintMainView+0x2f8>)
 8002da2:	f001 f91a 	bl	8003fda <u8g2_DrawBox>
	u8g2_SetDrawColor(&u8g2,1);
 8002da6:	2101      	movs	r1, #1
 8002da8:	4856      	ldr	r0, [pc, #344]	; (8002f04 <fnPrintMainView+0x2f8>)
 8002daa:	f002 f97f 	bl	80050ac <u8g2_SetDrawColor>
  }

  if(main_data.fridge_output_state){
 8002dae:	4b57      	ldr	r3, [pc, #348]	; (8002f0c <fnPrintMainView+0x300>)
 8002db0:	7d9b      	ldrb	r3, [r3, #22]
 8002db2:	2b00      	cmp	r3, #0
 8002db4:	d016      	beq.n	8002de4 <fnPrintMainView+0x1d8>
	u8g2_DrawBox(&u8g2,64,21,21,8);
 8002db6:	2308      	movs	r3, #8
 8002db8:	9300      	str	r3, [sp, #0]
 8002dba:	2315      	movs	r3, #21
 8002dbc:	2215      	movs	r2, #21
 8002dbe:	2140      	movs	r1, #64	; 0x40
 8002dc0:	4850      	ldr	r0, [pc, #320]	; (8002f04 <fnPrintMainView+0x2f8>)
 8002dc2:	f001 f90a 	bl	8003fda <u8g2_DrawBox>
	u8g2_SetDrawColor(&u8g2,0);
 8002dc6:	2100      	movs	r1, #0
 8002dc8:	484e      	ldr	r0, [pc, #312]	; (8002f04 <fnPrintMainView+0x2f8>)
 8002dca:	f002 f96f 	bl	80050ac <u8g2_SetDrawColor>
	u8g2_DrawStr(&u8g2,65, 28, "FRDG");
 8002dce:	4b56      	ldr	r3, [pc, #344]	; (8002f28 <fnPrintMainView+0x31c>)
 8002dd0:	221c      	movs	r2, #28
 8002dd2:	2141      	movs	r1, #65	; 0x41
 8002dd4:	484b      	ldr	r0, [pc, #300]	; (8002f04 <fnPrintMainView+0x2f8>)
 8002dd6:	f001 ff9f 	bl	8004d18 <u8g2_DrawStr>
	u8g2_SetDrawColor(&u8g2,1);
 8002dda:	2101      	movs	r1, #1
 8002ddc:	4849      	ldr	r0, [pc, #292]	; (8002f04 <fnPrintMainView+0x2f8>)
 8002dde:	f002 f965 	bl	80050ac <u8g2_SetDrawColor>
 8002de2:	e00f      	b.n	8002e04 <fnPrintMainView+0x1f8>
  }
  else{
	u8g2_SetDrawColor(&u8g2,0);
 8002de4:	2100      	movs	r1, #0
 8002de6:	4847      	ldr	r0, [pc, #284]	; (8002f04 <fnPrintMainView+0x2f8>)
 8002de8:	f002 f960 	bl	80050ac <u8g2_SetDrawColor>
	u8g2_DrawBox(&u8g2,64,21,21,8);
 8002dec:	2308      	movs	r3, #8
 8002dee:	9300      	str	r3, [sp, #0]
 8002df0:	2315      	movs	r3, #21
 8002df2:	2215      	movs	r2, #21
 8002df4:	2140      	movs	r1, #64	; 0x40
 8002df6:	4843      	ldr	r0, [pc, #268]	; (8002f04 <fnPrintMainView+0x2f8>)
 8002df8:	f001 f8ef 	bl	8003fda <u8g2_DrawBox>
	u8g2_SetDrawColor(&u8g2,1);
 8002dfc:	2101      	movs	r1, #1
 8002dfe:	4841      	ldr	r0, [pc, #260]	; (8002f04 <fnPrintMainView+0x2f8>)
 8002e00:	f002 f954 	bl	80050ac <u8g2_SetDrawColor>
  }

  if(main_data.error_code){
 8002e04:	4b41      	ldr	r3, [pc, #260]	; (8002f0c <fnPrintMainView+0x300>)
 8002e06:	7c5b      	ldrb	r3, [r3, #17]
 8002e08:	2b00      	cmp	r3, #0
 8002e0a:	d016      	beq.n	8002e3a <fnPrintMainView+0x22e>
	u8g2_DrawBox(&u8g2,1,1,16,8);
 8002e0c:	2308      	movs	r3, #8
 8002e0e:	9300      	str	r3, [sp, #0]
 8002e10:	2310      	movs	r3, #16
 8002e12:	2201      	movs	r2, #1
 8002e14:	2101      	movs	r1, #1
 8002e16:	483b      	ldr	r0, [pc, #236]	; (8002f04 <fnPrintMainView+0x2f8>)
 8002e18:	f001 f8df 	bl	8003fda <u8g2_DrawBox>
	u8g2_SetDrawColor(&u8g2,0);
 8002e1c:	2100      	movs	r1, #0
 8002e1e:	4839      	ldr	r0, [pc, #228]	; (8002f04 <fnPrintMainView+0x2f8>)
 8002e20:	f002 f944 	bl	80050ac <u8g2_SetDrawColor>
	u8g2_DrawStr(&u8g2,2, 8, "ERR");
 8002e24:	4b41      	ldr	r3, [pc, #260]	; (8002f2c <fnPrintMainView+0x320>)
 8002e26:	2208      	movs	r2, #8
 8002e28:	2102      	movs	r1, #2
 8002e2a:	4836      	ldr	r0, [pc, #216]	; (8002f04 <fnPrintMainView+0x2f8>)
 8002e2c:	f001 ff74 	bl	8004d18 <u8g2_DrawStr>
	u8g2_SetDrawColor(&u8g2,1);
 8002e30:	2101      	movs	r1, #1
 8002e32:	4834      	ldr	r0, [pc, #208]	; (8002f04 <fnPrintMainView+0x2f8>)
 8002e34:	f002 f93a 	bl	80050ac <u8g2_SetDrawColor>
 8002e38:	e00f      	b.n	8002e5a <fnPrintMainView+0x24e>
  }
  else{
	u8g2_SetDrawColor(&u8g2,0);
 8002e3a:	2100      	movs	r1, #0
 8002e3c:	4831      	ldr	r0, [pc, #196]	; (8002f04 <fnPrintMainView+0x2f8>)
 8002e3e:	f002 f935 	bl	80050ac <u8g2_SetDrawColor>
	u8g2_DrawBox(&u8g2,1,1,16,8);
 8002e42:	2308      	movs	r3, #8
 8002e44:	9300      	str	r3, [sp, #0]
 8002e46:	2310      	movs	r3, #16
 8002e48:	2201      	movs	r2, #1
 8002e4a:	2101      	movs	r1, #1
 8002e4c:	482d      	ldr	r0, [pc, #180]	; (8002f04 <fnPrintMainView+0x2f8>)
 8002e4e:	f001 f8c4 	bl	8003fda <u8g2_DrawBox>
	u8g2_SetDrawColor(&u8g2,1);
 8002e52:	2101      	movs	r1, #1
 8002e54:	482b      	ldr	r0, [pc, #172]	; (8002f04 <fnPrintMainView+0x2f8>)
 8002e56:	f002 f929 	bl	80050ac <u8g2_SetDrawColor>
  }

  if(flag_mb_connected){
 8002e5a:	4b35      	ldr	r3, [pc, #212]	; (8002f30 <fnPrintMainView+0x324>)
 8002e5c:	781b      	ldrb	r3, [r3, #0]
 8002e5e:	2b00      	cmp	r3, #0
 8002e60:	d016      	beq.n	8002e90 <fnPrintMainView+0x284>
	u8g2_DrawBox(&u8g2,19,1,11,8);
 8002e62:	2308      	movs	r3, #8
 8002e64:	9300      	str	r3, [sp, #0]
 8002e66:	230b      	movs	r3, #11
 8002e68:	2201      	movs	r2, #1
 8002e6a:	2113      	movs	r1, #19
 8002e6c:	4825      	ldr	r0, [pc, #148]	; (8002f04 <fnPrintMainView+0x2f8>)
 8002e6e:	f001 f8b4 	bl	8003fda <u8g2_DrawBox>
	u8g2_SetDrawColor(&u8g2,0);
 8002e72:	2100      	movs	r1, #0
 8002e74:	4823      	ldr	r0, [pc, #140]	; (8002f04 <fnPrintMainView+0x2f8>)
 8002e76:	f002 f919 	bl	80050ac <u8g2_SetDrawColor>
	u8g2_DrawStr(&u8g2,20, 8, "MB");
 8002e7a:	4b2e      	ldr	r3, [pc, #184]	; (8002f34 <fnPrintMainView+0x328>)
 8002e7c:	2208      	movs	r2, #8
 8002e7e:	2114      	movs	r1, #20
 8002e80:	4820      	ldr	r0, [pc, #128]	; (8002f04 <fnPrintMainView+0x2f8>)
 8002e82:	f001 ff49 	bl	8004d18 <u8g2_DrawStr>
	u8g2_SetDrawColor(&u8g2,1);
 8002e86:	2101      	movs	r1, #1
 8002e88:	481e      	ldr	r0, [pc, #120]	; (8002f04 <fnPrintMainView+0x2f8>)
 8002e8a:	f002 f90f 	bl	80050ac <u8g2_SetDrawColor>
 8002e8e:	e00f      	b.n	8002eb0 <fnPrintMainView+0x2a4>
  }
  else{
	u8g2_SetDrawColor(&u8g2,0);
 8002e90:	2100      	movs	r1, #0
 8002e92:	481c      	ldr	r0, [pc, #112]	; (8002f04 <fnPrintMainView+0x2f8>)
 8002e94:	f002 f90a 	bl	80050ac <u8g2_SetDrawColor>
	u8g2_DrawBox(&u8g2,19,1,16,8);
 8002e98:	2308      	movs	r3, #8
 8002e9a:	9300      	str	r3, [sp, #0]
 8002e9c:	2310      	movs	r3, #16
 8002e9e:	2201      	movs	r2, #1
 8002ea0:	2113      	movs	r1, #19
 8002ea2:	4818      	ldr	r0, [pc, #96]	; (8002f04 <fnPrintMainView+0x2f8>)
 8002ea4:	f001 f899 	bl	8003fda <u8g2_DrawBox>
    u8g2_SetDrawColor(&u8g2,1);
 8002ea8:	2101      	movs	r1, #1
 8002eaa:	4816      	ldr	r0, [pc, #88]	; (8002f04 <fnPrintMainView+0x2f8>)
 8002eac:	f002 f8fe 	bl	80050ac <u8g2_SetDrawColor>
  }

  snprintf(buffer,sizeof(buffer),"%d L",main_data.water_level_liter);
 8002eb0:	4b16      	ldr	r3, [pc, #88]	; (8002f0c <fnPrintMainView+0x300>)
 8002eb2:	7c1b      	ldrb	r3, [r3, #16]
 8002eb4:	4638      	mov	r0, r7
 8002eb6:	4a20      	ldr	r2, [pc, #128]	; (8002f38 <fnPrintMainView+0x32c>)
 8002eb8:	2114      	movs	r1, #20
 8002eba:	f000 fe81 	bl	8003bc0 <mini_snprintf>
  u8g2_SetFont(&u8g2, u8g2_font_ncenB18_tr);	//
 8002ebe:	491f      	ldr	r1, [pc, #124]	; (8002f3c <fnPrintMainView+0x330>)
 8002ec0:	4810      	ldr	r0, [pc, #64]	; (8002f04 <fnPrintMainView+0x2f8>)
 8002ec2:	f001 ffc7 	bl	8004e54 <u8g2_SetFont>
  u8g2_DrawStr(&u8g2,55, 55, buffer);
 8002ec6:	463b      	mov	r3, r7
 8002ec8:	2237      	movs	r2, #55	; 0x37
 8002eca:	2137      	movs	r1, #55	; 0x37
 8002ecc:	480d      	ldr	r0, [pc, #52]	; (8002f04 <fnPrintMainView+0x2f8>)
 8002ece:	f001 ff23 	bl	8004d18 <u8g2_DrawStr>

  W25qxx_ReadBytes(imageBuff, (IMAGE_WATER_LEVEL), 1024);
 8002ed2:	f44f 6280 	mov.w	r2, #1024	; 0x400
 8002ed6:	f44f 41a0 	mov.w	r1, #20480	; 0x5000
 8002eda:	4819      	ldr	r0, [pc, #100]	; (8002f40 <fnPrintMainView+0x334>)
 8002edc:	f003 fafa 	bl	80064d4 <W25qxx_ReadBytes>
  u8g2_DrawXBM(&u8g2,5, 12, 50, 50, imageBuff);
 8002ee0:	4b17      	ldr	r3, [pc, #92]	; (8002f40 <fnPrintMainView+0x334>)
 8002ee2:	9301      	str	r3, [sp, #4]
 8002ee4:	2332      	movs	r3, #50	; 0x32
 8002ee6:	9300      	str	r3, [sp, #0]
 8002ee8:	2332      	movs	r3, #50	; 0x32
 8002eea:	220c      	movs	r2, #12
 8002eec:	2105      	movs	r1, #5
 8002eee:	4805      	ldr	r0, [pc, #20]	; (8002f04 <fnPrintMainView+0x2f8>)
 8002ef0:	f001 f830 	bl	8003f54 <u8g2_DrawXBM>

  u8g2_SendBuffer(&u8g2);
 8002ef4:	4803      	ldr	r0, [pc, #12]	; (8002f04 <fnPrintMainView+0x2f8>)
 8002ef6:	f001 f976 	bl	80041e6 <u8g2_SendBuffer>
}
 8002efa:	bf00      	nop
 8002efc:	3718      	adds	r7, #24
 8002efe:	46bd      	mov	sp, r7
 8002f00:	bd80      	pop	{r7, pc}
 8002f02:	bf00      	nop
 8002f04:	20000a14 	.word	0x20000a14
 8002f08:	08008d98 	.word	0x08008d98
 8002f0c:	20000988 	.word	0x20000988
 8002f10:	cccccccd 	.word	0xcccccccd
 8002f14:	08008a60 	.word	0x08008a60
 8002f18:	08008a7c 	.word	0x08008a7c
 8002f1c:	08008a84 	.word	0x08008a84
 8002f20:	08008a8c 	.word	0x08008a8c
 8002f24:	08008a94 	.word	0x08008a94
 8002f28:	08008a9c 	.word	0x08008a9c
 8002f2c:	08008aa4 	.word	0x08008aa4
 8002f30:	20000490 	.word	0x20000490
 8002f34:	08008aa8 	.word	0x08008aa8
 8002f38:	08008aac 	.word	0x08008aac
 8002f3c:	0800a21c 	.word	0x0800a21c
 8002f40:	20000090 	.word	0x20000090

08002f44 <fnMenuProcess>:
//***********************************************************************************************************

//Menu -----------------
void fnMenuProcess(void){
 8002f44:	b580      	push	{r7, lr}
 8002f46:	b084      	sub	sp, #16
 8002f48:	af02      	add	r7, sp, #8

    //   
    if(menu_current_item < display_num_lines) menu_current_page = 0;
 8002f4a:	4b9b      	ldr	r3, [pc, #620]	; (80031b8 <fnMenuProcess+0x274>)
 8002f4c:	781a      	ldrb	r2, [r3, #0]
 8002f4e:	4b9b      	ldr	r3, [pc, #620]	; (80031bc <fnMenuProcess+0x278>)
 8002f50:	781b      	ldrb	r3, [r3, #0]
 8002f52:	429a      	cmp	r2, r3
 8002f54:	d203      	bcs.n	8002f5e <fnMenuProcess+0x1a>
 8002f56:	4b9a      	ldr	r3, [pc, #616]	; (80031c0 <fnMenuProcess+0x27c>)
 8002f58:	2200      	movs	r2, #0
 8002f5a:	701a      	strb	r2, [r3, #0]
 8002f5c:	e053      	b.n	8003006 <fnMenuProcess+0xc2>
    else if(menu_current_item < display_num_lines*2)menu_current_page = 1 ;
 8002f5e:	4b96      	ldr	r3, [pc, #600]	; (80031b8 <fnMenuProcess+0x274>)
 8002f60:	781b      	ldrb	r3, [r3, #0]
 8002f62:	461a      	mov	r2, r3
 8002f64:	4b95      	ldr	r3, [pc, #596]	; (80031bc <fnMenuProcess+0x278>)
 8002f66:	781b      	ldrb	r3, [r3, #0]
 8002f68:	005b      	lsls	r3, r3, #1
 8002f6a:	429a      	cmp	r2, r3
 8002f6c:	da03      	bge.n	8002f76 <fnMenuProcess+0x32>
 8002f6e:	4b94      	ldr	r3, [pc, #592]	; (80031c0 <fnMenuProcess+0x27c>)
 8002f70:	2201      	movs	r2, #1
 8002f72:	701a      	strb	r2, [r3, #0]
 8002f74:	e047      	b.n	8003006 <fnMenuProcess+0xc2>
    else if(menu_current_item < display_num_lines*3)menu_current_page = 2 ;
 8002f76:	4b90      	ldr	r3, [pc, #576]	; (80031b8 <fnMenuProcess+0x274>)
 8002f78:	781b      	ldrb	r3, [r3, #0]
 8002f7a:	4619      	mov	r1, r3
 8002f7c:	4b8f      	ldr	r3, [pc, #572]	; (80031bc <fnMenuProcess+0x278>)
 8002f7e:	781b      	ldrb	r3, [r3, #0]
 8002f80:	461a      	mov	r2, r3
 8002f82:	4613      	mov	r3, r2
 8002f84:	005b      	lsls	r3, r3, #1
 8002f86:	4413      	add	r3, r2
 8002f88:	4299      	cmp	r1, r3
 8002f8a:	da03      	bge.n	8002f94 <fnMenuProcess+0x50>
 8002f8c:	4b8c      	ldr	r3, [pc, #560]	; (80031c0 <fnMenuProcess+0x27c>)
 8002f8e:	2202      	movs	r2, #2
 8002f90:	701a      	strb	r2, [r3, #0]
 8002f92:	e038      	b.n	8003006 <fnMenuProcess+0xc2>
    else if(menu_current_item < display_num_lines*4)menu_current_page = 3 ;
 8002f94:	4b88      	ldr	r3, [pc, #544]	; (80031b8 <fnMenuProcess+0x274>)
 8002f96:	781b      	ldrb	r3, [r3, #0]
 8002f98:	461a      	mov	r2, r3
 8002f9a:	4b88      	ldr	r3, [pc, #544]	; (80031bc <fnMenuProcess+0x278>)
 8002f9c:	781b      	ldrb	r3, [r3, #0]
 8002f9e:	009b      	lsls	r3, r3, #2
 8002fa0:	429a      	cmp	r2, r3
 8002fa2:	da03      	bge.n	8002fac <fnMenuProcess+0x68>
 8002fa4:	4b86      	ldr	r3, [pc, #536]	; (80031c0 <fnMenuProcess+0x27c>)
 8002fa6:	2203      	movs	r2, #3
 8002fa8:	701a      	strb	r2, [r3, #0]
 8002faa:	e02c      	b.n	8003006 <fnMenuProcess+0xc2>
    else if(menu_current_item < display_num_lines*5)menu_current_page = 4 ;
 8002fac:	4b82      	ldr	r3, [pc, #520]	; (80031b8 <fnMenuProcess+0x274>)
 8002fae:	781b      	ldrb	r3, [r3, #0]
 8002fb0:	4619      	mov	r1, r3
 8002fb2:	4b82      	ldr	r3, [pc, #520]	; (80031bc <fnMenuProcess+0x278>)
 8002fb4:	781b      	ldrb	r3, [r3, #0]
 8002fb6:	461a      	mov	r2, r3
 8002fb8:	4613      	mov	r3, r2
 8002fba:	009b      	lsls	r3, r3, #2
 8002fbc:	4413      	add	r3, r2
 8002fbe:	4299      	cmp	r1, r3
 8002fc0:	da03      	bge.n	8002fca <fnMenuProcess+0x86>
 8002fc2:	4b7f      	ldr	r3, [pc, #508]	; (80031c0 <fnMenuProcess+0x27c>)
 8002fc4:	2204      	movs	r2, #4
 8002fc6:	701a      	strb	r2, [r3, #0]
 8002fc8:	e01d      	b.n	8003006 <fnMenuProcess+0xc2>
    else if(menu_current_item < display_num_lines*6)menu_current_page = 5 ;
 8002fca:	4b7b      	ldr	r3, [pc, #492]	; (80031b8 <fnMenuProcess+0x274>)
 8002fcc:	781b      	ldrb	r3, [r3, #0]
 8002fce:	4619      	mov	r1, r3
 8002fd0:	4b7a      	ldr	r3, [pc, #488]	; (80031bc <fnMenuProcess+0x278>)
 8002fd2:	781b      	ldrb	r3, [r3, #0]
 8002fd4:	461a      	mov	r2, r3
 8002fd6:	4613      	mov	r3, r2
 8002fd8:	005b      	lsls	r3, r3, #1
 8002fda:	4413      	add	r3, r2
 8002fdc:	005b      	lsls	r3, r3, #1
 8002fde:	4299      	cmp	r1, r3
 8002fe0:	da03      	bge.n	8002fea <fnMenuProcess+0xa6>
 8002fe2:	4b77      	ldr	r3, [pc, #476]	; (80031c0 <fnMenuProcess+0x27c>)
 8002fe4:	2205      	movs	r2, #5
 8002fe6:	701a      	strb	r2, [r3, #0]
 8002fe8:	e00d      	b.n	8003006 <fnMenuProcess+0xc2>
    else if(menu_current_item < display_num_lines*7)menu_current_page = 6 ;
 8002fea:	4b73      	ldr	r3, [pc, #460]	; (80031b8 <fnMenuProcess+0x274>)
 8002fec:	781b      	ldrb	r3, [r3, #0]
 8002fee:	4619      	mov	r1, r3
 8002ff0:	4b72      	ldr	r3, [pc, #456]	; (80031bc <fnMenuProcess+0x278>)
 8002ff2:	781b      	ldrb	r3, [r3, #0]
 8002ff4:	461a      	mov	r2, r3
 8002ff6:	4613      	mov	r3, r2
 8002ff8:	00db      	lsls	r3, r3, #3
 8002ffa:	1a9b      	subs	r3, r3, r2
 8002ffc:	4299      	cmp	r1, r3
 8002ffe:	da02      	bge.n	8003006 <fnMenuProcess+0xc2>
 8003000:	4b6f      	ldr	r3, [pc, #444]	; (80031c0 <fnMenuProcess+0x27c>)
 8003002:	2206      	movs	r2, #6
 8003004:	701a      	strb	r2, [r3, #0]

    switch (menu_mode)
 8003006:	4b6f      	ldr	r3, [pc, #444]	; (80031c4 <fnMenuProcess+0x280>)
 8003008:	781b      	ldrb	r3, [r3, #0]
 800300a:	2b04      	cmp	r3, #4
 800300c:	f200 81a9 	bhi.w	8003362 <fnMenuProcess+0x41e>
 8003010:	a201      	add	r2, pc, #4	; (adr r2, 8003018 <fnMenuProcess+0xd4>)
 8003012:	f852 f023 	ldr.w	pc, [r2, r3, lsl #2]
 8003016:	bf00      	nop
 8003018:	0800302d 	.word	0x0800302d
 800301c:	0800305d 	.word	0x0800305d
 8003020:	080030dd 	.word	0x080030dd
 8003024:	0800315b 	.word	0x0800315b
 8003028:	08003299 	.word	0x08003299
    {
      case MENU_MAIN_VIEW:

        fnPrintMainView();
 800302c:	f7ff fdee 	bl	8002c0c <fnPrintMainView>

        if(btn_state == BTN_ENTER_LONG_PRESS){
 8003030:	4b65      	ldr	r3, [pc, #404]	; (80031c8 <fnMenuProcess+0x284>)
 8003032:	881b      	ldrh	r3, [r3, #0]
 8003034:	2b40      	cmp	r3, #64	; 0x40
 8003036:	d105      	bne.n	8003044 <fnMenuProcess+0x100>
          menu_mode = MENU_SETPOINTS;
 8003038:	4b62      	ldr	r3, [pc, #392]	; (80031c4 <fnMenuProcess+0x280>)
 800303a:	2202      	movs	r2, #2
 800303c:	701a      	strb	r2, [r3, #0]
          menu_current_item = 0;
 800303e:	4b5e      	ldr	r3, [pc, #376]	; (80031b8 <fnMenuProcess+0x274>)
 8003040:	2200      	movs	r2, #0
 8003042:	701a      	strb	r2, [r3, #0]
         // tone(BUZZER,500,200);
        }

        if(btn_state == BTN_ENTER){
 8003044:	4b60      	ldr	r3, [pc, #384]	; (80031c8 <fnMenuProcess+0x284>)
 8003046:	881b      	ldrh	r3, [r3, #0]
 8003048:	2b10      	cmp	r3, #16
 800304a:	f040 818c 	bne.w	8003366 <fnMenuProcess+0x422>
          menu_mode = MENU_PARAM_VIEW;
 800304e:	4b5d      	ldr	r3, [pc, #372]	; (80031c4 <fnMenuProcess+0x280>)
 8003050:	2201      	movs	r2, #1
 8003052:	701a      	strb	r2, [r3, #0]
          menu_current_item = 0;
 8003054:	4b58      	ldr	r3, [pc, #352]	; (80031b8 <fnMenuProcess+0x274>)
 8003056:	2200      	movs	r2, #0
 8003058:	701a      	strb	r2, [r3, #0]
        }
        break;
 800305a:	e184      	b.n	8003366 <fnMenuProcess+0x422>

      case MENU_PARAM_VIEW:

        fnPrintMenuParamView();
 800305c:	f7ff fd72 	bl	8002b44 <fnPrintMenuParamView>

        if ((btn_state == BTN_UP) || (btn_state == BTN_UP_LONG_PRESS)) {         //     
 8003060:	4b59      	ldr	r3, [pc, #356]	; (80031c8 <fnMenuProcess+0x284>)
 8003062:	881b      	ldrh	r3, [r3, #0]
 8003064:	2b01      	cmp	r3, #1
 8003066:	d003      	beq.n	8003070 <fnMenuProcess+0x12c>
 8003068:	4b57      	ldr	r3, [pc, #348]	; (80031c8 <fnMenuProcess+0x284>)
 800306a:	881b      	ldrh	r3, [r3, #0]
 800306c:	2b04      	cmp	r3, #4
 800306e:	d115      	bne.n	800309c <fnMenuProcess+0x158>
          menu_current_item = constrain(menu_current_item - display_num_lines , 0, MENU_PARAM_VIEW_NUM_ITEMS - 1); //     
 8003070:	4b51      	ldr	r3, [pc, #324]	; (80031b8 <fnMenuProcess+0x274>)
 8003072:	781b      	ldrb	r3, [r3, #0]
 8003074:	461a      	mov	r2, r3
 8003076:	4b51      	ldr	r3, [pc, #324]	; (80031bc <fnMenuProcess+0x278>)
 8003078:	781b      	ldrb	r3, [r3, #0]
 800307a:	1ad3      	subs	r3, r2, r3
 800307c:	2b00      	cmp	r3, #0
 800307e:	db0a      	blt.n	8003096 <fnMenuProcess+0x152>
 8003080:	4b4d      	ldr	r3, [pc, #308]	; (80031b8 <fnMenuProcess+0x274>)
 8003082:	781b      	ldrb	r3, [r3, #0]
 8003084:	461a      	mov	r2, r3
 8003086:	4b4d      	ldr	r3, [pc, #308]	; (80031bc <fnMenuProcess+0x278>)
 8003088:	781b      	ldrb	r3, [r3, #0]
 800308a:	1ad3      	subs	r3, r2, r3
 800308c:	2b0e      	cmp	r3, #14
 800308e:	bfa8      	it	ge
 8003090:	230e      	movge	r3, #14
 8003092:	b2db      	uxtb	r3, r3
 8003094:	e000      	b.n	8003098 <fnMenuProcess+0x154>
 8003096:	2300      	movs	r3, #0
 8003098:	4a47      	ldr	r2, [pc, #284]	; (80031b8 <fnMenuProcess+0x274>)
 800309a:	7013      	strb	r3, [r2, #0]
         // if(SetpointsUnion.setpoints_data.debug_key== DEBUG_KEY_1)Serial.println(menu_current_item);
        }

        if ((btn_state == BTN_DOWN) || (btn_state == BTN_DOWN_LONG_PRESS)) {
 800309c:	4b4a      	ldr	r3, [pc, #296]	; (80031c8 <fnMenuProcess+0x284>)
 800309e:	881b      	ldrh	r3, [r3, #0]
 80030a0:	2b02      	cmp	r3, #2
 80030a2:	d003      	beq.n	80030ac <fnMenuProcess+0x168>
 80030a4:	4b48      	ldr	r3, [pc, #288]	; (80031c8 <fnMenuProcess+0x284>)
 80030a6:	881b      	ldrh	r3, [r3, #0]
 80030a8:	2b08      	cmp	r3, #8
 80030aa:	d10b      	bne.n	80030c4 <fnMenuProcess+0x180>
          menu_current_item = constrain(menu_current_item + display_num_lines, 0, MENU_PARAM_VIEW_NUM_ITEMS - 1);
 80030ac:	4b42      	ldr	r3, [pc, #264]	; (80031b8 <fnMenuProcess+0x274>)
 80030ae:	781b      	ldrb	r3, [r3, #0]
 80030b0:	461a      	mov	r2, r3
 80030b2:	4b42      	ldr	r3, [pc, #264]	; (80031bc <fnMenuProcess+0x278>)
 80030b4:	781b      	ldrb	r3, [r3, #0]
 80030b6:	4413      	add	r3, r2
 80030b8:	2b0e      	cmp	r3, #14
 80030ba:	bfa8      	it	ge
 80030bc:	230e      	movge	r3, #14
 80030be:	b2da      	uxtb	r2, r3
 80030c0:	4b3d      	ldr	r3, [pc, #244]	; (80031b8 <fnMenuProcess+0x274>)
 80030c2:	701a      	strb	r2, [r3, #0]
         // if(SetpointsUnion.setpoints_data.debug_key== DEBUG_KEY_1)Serial.println(menu_current_item);
        }

        if(btn_state == BTN_ENTER){
 80030c4:	4b40      	ldr	r3, [pc, #256]	; (80031c8 <fnMenuProcess+0x284>)
 80030c6:	881b      	ldrh	r3, [r3, #0]
 80030c8:	2b10      	cmp	r3, #16
 80030ca:	f040 814e 	bne.w	800336a <fnMenuProcess+0x426>
          menu_mode = MENU_LOGO_VIEW;
 80030ce:	4b3d      	ldr	r3, [pc, #244]	; (80031c4 <fnMenuProcess+0x280>)
 80030d0:	2204      	movs	r2, #4
 80030d2:	701a      	strb	r2, [r3, #0]
          menu_current_item = 0;
 80030d4:	4b38      	ldr	r3, [pc, #224]	; (80031b8 <fnMenuProcess+0x274>)
 80030d6:	2200      	movs	r2, #0
 80030d8:	701a      	strb	r2, [r3, #0]
        }

        break;
 80030da:	e146      	b.n	800336a <fnMenuProcess+0x426>

      case MENU_SETPOINTS:

        printMenuSetpoints();
 80030dc:	f7ff f920 	bl	8002320 <printMenuSetpoints>

        if ((btn_state == BTN_DOWN) || (btn_state == BTN_DOWN_LONG_PRESS)) {         //     
 80030e0:	4b39      	ldr	r3, [pc, #228]	; (80031c8 <fnMenuProcess+0x284>)
 80030e2:	881b      	ldrh	r3, [r3, #0]
 80030e4:	2b02      	cmp	r3, #2
 80030e6:	d003      	beq.n	80030f0 <fnMenuProcess+0x1ac>
 80030e8:	4b37      	ldr	r3, [pc, #220]	; (80031c8 <fnMenuProcess+0x284>)
 80030ea:	881b      	ldrh	r3, [r3, #0]
 80030ec:	2b08      	cmp	r3, #8
 80030ee:	d109      	bne.n	8003104 <fnMenuProcess+0x1c0>
          menu_current_item = constrain(menu_current_item + 1, 0, MENU_SETPOINTS_NUM_ITEMS - 1); //     
 80030f0:	4b31      	ldr	r3, [pc, #196]	; (80031b8 <fnMenuProcess+0x274>)
 80030f2:	781b      	ldrb	r3, [r3, #0]
 80030f4:	2b17      	cmp	r3, #23
 80030f6:	bf28      	it	cs
 80030f8:	2317      	movcs	r3, #23
 80030fa:	b2db      	uxtb	r3, r3
 80030fc:	3301      	adds	r3, #1
 80030fe:	b2da      	uxtb	r2, r3
 8003100:	4b2d      	ldr	r3, [pc, #180]	; (80031b8 <fnMenuProcess+0x274>)
 8003102:	701a      	strb	r2, [r3, #0]
          //Serial.println(menu_current_item);
        }

        if ((btn_state == BTN_UP) || (btn_state == BTN_UP_LONG_PRESS)) {
 8003104:	4b30      	ldr	r3, [pc, #192]	; (80031c8 <fnMenuProcess+0x284>)
 8003106:	881b      	ldrh	r3, [r3, #0]
 8003108:	2b01      	cmp	r3, #1
 800310a:	d003      	beq.n	8003114 <fnMenuProcess+0x1d0>
 800310c:	4b2e      	ldr	r3, [pc, #184]	; (80031c8 <fnMenuProcess+0x284>)
 800310e:	881b      	ldrh	r3, [r3, #0]
 8003110:	2b04      	cmp	r3, #4
 8003112:	d10f      	bne.n	8003134 <fnMenuProcess+0x1f0>
          menu_current_item = constrain(menu_current_item - 1, 0, MENU_SETPOINTS_NUM_ITEMS - 1);
 8003114:	4b28      	ldr	r3, [pc, #160]	; (80031b8 <fnMenuProcess+0x274>)
 8003116:	781b      	ldrb	r3, [r3, #0]
 8003118:	2b00      	cmp	r3, #0
 800311a:	d008      	beq.n	800312e <fnMenuProcess+0x1ea>
 800311c:	4b26      	ldr	r3, [pc, #152]	; (80031b8 <fnMenuProcess+0x274>)
 800311e:	781b      	ldrb	r3, [r3, #0]
 8003120:	2b19      	cmp	r3, #25
 8003122:	bf28      	it	cs
 8003124:	2319      	movcs	r3, #25
 8003126:	b2db      	uxtb	r3, r3
 8003128:	3b01      	subs	r3, #1
 800312a:	b2db      	uxtb	r3, r3
 800312c:	e000      	b.n	8003130 <fnMenuProcess+0x1ec>
 800312e:	2300      	movs	r3, #0
 8003130:	4a21      	ldr	r2, [pc, #132]	; (80031b8 <fnMenuProcess+0x274>)
 8003132:	7013      	strb	r3, [r2, #0]
          //if(SetpointsUnion.setpoints_data.debug_key== DEBUG_KEY_1)Serial.println(menu_current_item);
        }

        if(btn_state == BTN_ENTER)menu_mode = MENU_SETPOINTS_EDIT_MODE;
 8003134:	4b24      	ldr	r3, [pc, #144]	; (80031c8 <fnMenuProcess+0x284>)
 8003136:	881b      	ldrh	r3, [r3, #0]
 8003138:	2b10      	cmp	r3, #16
 800313a:	d102      	bne.n	8003142 <fnMenuProcess+0x1fe>
 800313c:	4b21      	ldr	r3, [pc, #132]	; (80031c4 <fnMenuProcess+0x280>)
 800313e:	2203      	movs	r2, #3
 8003140:	701a      	strb	r2, [r3, #0]

        if(btn_state == BTN_ESC){
 8003142:	4b21      	ldr	r3, [pc, #132]	; (80031c8 <fnMenuProcess+0x284>)
 8003144:	881b      	ldrh	r3, [r3, #0]
 8003146:	2b20      	cmp	r3, #32
 8003148:	f040 8111 	bne.w	800336e <fnMenuProcess+0x42a>
          menu_mode = MENU_MAIN_VIEW;
 800314c:	4b1d      	ldr	r3, [pc, #116]	; (80031c4 <fnMenuProcess+0x280>)
 800314e:	2200      	movs	r2, #0
 8003150:	701a      	strb	r2, [r3, #0]
          menu_current_item = 0;
 8003152:	4b19      	ldr	r3, [pc, #100]	; (80031b8 <fnMenuProcess+0x274>)
 8003154:	2200      	movs	r2, #0
 8003156:	701a      	strb	r2, [r3, #0]
          //tone(BUZZER,500,200);
        }

        break;
 8003158:	e109      	b.n	800336e <fnMenuProcess+0x42a>

      case MENU_SETPOINTS_EDIT_MODE:

        printMenuSetpoints();
 800315a:	f7ff f8e1 	bl	8002320 <printMenuSetpoints>

        if ((btn_state == BTN_UP) || (btn_state == BTN_UP_LONG_PRESS)){
 800315e:	4b1a      	ldr	r3, [pc, #104]	; (80031c8 <fnMenuProcess+0x284>)
 8003160:	881b      	ldrh	r3, [r3, #0]
 8003162:	2b01      	cmp	r3, #1
 8003164:	d003      	beq.n	800316e <fnMenuProcess+0x22a>
 8003166:	4b18      	ldr	r3, [pc, #96]	; (80031c8 <fnMenuProcess+0x284>)
 8003168:	881b      	ldrh	r3, [r3, #0]
 800316a:	2b04      	cmp	r3, #4
 800316c:	d140      	bne.n	80031f0 <fnMenuProcess+0x2ac>
          SetpointsUnion.SetpointsArray[menu_current_item] = constrain(SetpointsUnion.SetpointsArray[menu_current_item]+1,param_range_min[menu_current_item],param_range_max[menu_current_item]);
 800316e:	4b12      	ldr	r3, [pc, #72]	; (80031b8 <fnMenuProcess+0x274>)
 8003170:	781b      	ldrb	r3, [r3, #0]
 8003172:	461a      	mov	r2, r3
 8003174:	4b15      	ldr	r3, [pc, #84]	; (80031cc <fnMenuProcess+0x288>)
 8003176:	5c9b      	ldrb	r3, [r3, r2]
 8003178:	3301      	adds	r3, #1
 800317a:	4a0f      	ldr	r2, [pc, #60]	; (80031b8 <fnMenuProcess+0x274>)
 800317c:	7812      	ldrb	r2, [r2, #0]
 800317e:	4611      	mov	r1, r2
 8003180:	4a13      	ldr	r2, [pc, #76]	; (80031d0 <fnMenuProcess+0x28c>)
 8003182:	5c52      	ldrb	r2, [r2, r1]
 8003184:	4293      	cmp	r3, r2
 8003186:	da05      	bge.n	8003194 <fnMenuProcess+0x250>
 8003188:	4b0b      	ldr	r3, [pc, #44]	; (80031b8 <fnMenuProcess+0x274>)
 800318a:	781b      	ldrb	r3, [r3, #0]
 800318c:	461a      	mov	r2, r3
 800318e:	4b10      	ldr	r3, [pc, #64]	; (80031d0 <fnMenuProcess+0x28c>)
 8003190:	5c9b      	ldrb	r3, [r3, r2]
 8003192:	e028      	b.n	80031e6 <fnMenuProcess+0x2a2>
 8003194:	4b08      	ldr	r3, [pc, #32]	; (80031b8 <fnMenuProcess+0x274>)
 8003196:	781b      	ldrb	r3, [r3, #0]
 8003198:	461a      	mov	r2, r3
 800319a:	4b0c      	ldr	r3, [pc, #48]	; (80031cc <fnMenuProcess+0x288>)
 800319c:	5c9a      	ldrb	r2, [r3, r2]
 800319e:	4b06      	ldr	r3, [pc, #24]	; (80031b8 <fnMenuProcess+0x274>)
 80031a0:	781b      	ldrb	r3, [r3, #0]
 80031a2:	4619      	mov	r1, r3
 80031a4:	4b0b      	ldr	r3, [pc, #44]	; (80031d4 <fnMenuProcess+0x290>)
 80031a6:	5c5b      	ldrb	r3, [r3, r1]
 80031a8:	429a      	cmp	r2, r3
 80031aa:	d315      	bcc.n	80031d8 <fnMenuProcess+0x294>
 80031ac:	4b02      	ldr	r3, [pc, #8]	; (80031b8 <fnMenuProcess+0x274>)
 80031ae:	781b      	ldrb	r3, [r3, #0]
 80031b0:	461a      	mov	r2, r3
 80031b2:	4b08      	ldr	r3, [pc, #32]	; (80031d4 <fnMenuProcess+0x290>)
 80031b4:	5c9b      	ldrb	r3, [r3, r2]
 80031b6:	e016      	b.n	80031e6 <fnMenuProcess+0x2a2>
 80031b8:	2000007c 	.word	0x2000007c
 80031bc:	2000092c 	.word	0x2000092c
 80031c0:	2000007d 	.word	0x2000007d
 80031c4:	2000007e 	.word	0x2000007e
 80031c8:	20000080 	.word	0x20000080
 80031cc:	20000aec 	.word	0x20000aec
 80031d0:	20000004 	.word	0x20000004
 80031d4:	20000020 	.word	0x20000020
 80031d8:	4b69      	ldr	r3, [pc, #420]	; (8003380 <fnMenuProcess+0x43c>)
 80031da:	781b      	ldrb	r3, [r3, #0]
 80031dc:	461a      	mov	r2, r3
 80031de:	4b69      	ldr	r3, [pc, #420]	; (8003384 <fnMenuProcess+0x440>)
 80031e0:	5c9b      	ldrb	r3, [r3, r2]
 80031e2:	3301      	adds	r3, #1
 80031e4:	b2db      	uxtb	r3, r3
 80031e6:	4a66      	ldr	r2, [pc, #408]	; (8003380 <fnMenuProcess+0x43c>)
 80031e8:	7812      	ldrb	r2, [r2, #0]
 80031ea:	4611      	mov	r1, r2
 80031ec:	4a65      	ldr	r2, [pc, #404]	; (8003384 <fnMenuProcess+0x440>)
 80031ee:	5453      	strb	r3, [r2, r1]
         // Serial.println(SetpointsUnion.SetpointsArray[menu_current_item]);
        }

        if ((btn_state == BTN_DOWN) || (btn_state == BTN_DOWN_LONG_PRESS)){
 80031f0:	4b65      	ldr	r3, [pc, #404]	; (8003388 <fnMenuProcess+0x444>)
 80031f2:	881b      	ldrh	r3, [r3, #0]
 80031f4:	2b02      	cmp	r3, #2
 80031f6:	d003      	beq.n	8003200 <fnMenuProcess+0x2bc>
 80031f8:	4b63      	ldr	r3, [pc, #396]	; (8003388 <fnMenuProcess+0x444>)
 80031fa:	881b      	ldrh	r3, [r3, #0]
 80031fc:	2b08      	cmp	r3, #8
 80031fe:	d125      	bne.n	800324c <fnMenuProcess+0x308>
          SetpointsUnion.SetpointsArray[menu_current_item] = constrain(SetpointsUnion.SetpointsArray[menu_current_item]-1,param_range_min[menu_current_item],param_range_max[menu_current_item]);
 8003200:	4b5f      	ldr	r3, [pc, #380]	; (8003380 <fnMenuProcess+0x43c>)
 8003202:	781b      	ldrb	r3, [r3, #0]
 8003204:	461a      	mov	r2, r3
 8003206:	4b5f      	ldr	r3, [pc, #380]	; (8003384 <fnMenuProcess+0x440>)
 8003208:	5c9a      	ldrb	r2, [r3, r2]
 800320a:	4b5d      	ldr	r3, [pc, #372]	; (8003380 <fnMenuProcess+0x43c>)
 800320c:	781b      	ldrb	r3, [r3, #0]
 800320e:	4619      	mov	r1, r3
 8003210:	4b5e      	ldr	r3, [pc, #376]	; (800338c <fnMenuProcess+0x448>)
 8003212:	5c5b      	ldrb	r3, [r3, r1]
 8003214:	429a      	cmp	r2, r3
 8003216:	d805      	bhi.n	8003224 <fnMenuProcess+0x2e0>
 8003218:	4b59      	ldr	r3, [pc, #356]	; (8003380 <fnMenuProcess+0x43c>)
 800321a:	781b      	ldrb	r3, [r3, #0]
 800321c:	461a      	mov	r2, r3
 800321e:	4b5b      	ldr	r3, [pc, #364]	; (800338c <fnMenuProcess+0x448>)
 8003220:	5c9b      	ldrb	r3, [r3, r2]
 8003222:	e00e      	b.n	8003242 <fnMenuProcess+0x2fe>
 8003224:	4b56      	ldr	r3, [pc, #344]	; (8003380 <fnMenuProcess+0x43c>)
 8003226:	781b      	ldrb	r3, [r3, #0]
 8003228:	461a      	mov	r2, r3
 800322a:	4b56      	ldr	r3, [pc, #344]	; (8003384 <fnMenuProcess+0x440>)
 800322c:	5c9b      	ldrb	r3, [r3, r2]
 800322e:	3b01      	subs	r3, #1
 8003230:	4a53      	ldr	r2, [pc, #332]	; (8003380 <fnMenuProcess+0x43c>)
 8003232:	7812      	ldrb	r2, [r2, #0]
 8003234:	4611      	mov	r1, r2
 8003236:	4a56      	ldr	r2, [pc, #344]	; (8003390 <fnMenuProcess+0x44c>)
 8003238:	5c52      	ldrb	r2, [r2, r1]
 800323a:	4293      	cmp	r3, r2
 800323c:	bfa8      	it	ge
 800323e:	4613      	movge	r3, r2
 8003240:	b2db      	uxtb	r3, r3
 8003242:	4a4f      	ldr	r2, [pc, #316]	; (8003380 <fnMenuProcess+0x43c>)
 8003244:	7812      	ldrb	r2, [r2, #0]
 8003246:	4611      	mov	r1, r2
 8003248:	4a4e      	ldr	r2, [pc, #312]	; (8003384 <fnMenuProcess+0x440>)
 800324a:	5453      	strb	r3, [r2, r1]
         // if(SetpointsUnion.setpoints_data.debug_key== DEBUG_KEY_1)Serial.println(SetpointsUnion.SetpointsArray[menu_current_item]);
        }

        if(btn_state == BTN_ENTER){
 800324c:	4b4e      	ldr	r3, [pc, #312]	; (8003388 <fnMenuProcess+0x444>)
 800324e:	881b      	ldrh	r3, [r3, #0]
 8003250:	2b10      	cmp	r3, #16
 8003252:	d119      	bne.n	8003288 <fnMenuProcess+0x344>
          //    flash
        	W25qxx_EraseSector(SETPOINTS_FLASH_SECTOR);
 8003254:	200a      	movs	r0, #10
 8003256:	f002 ff09 	bl	800606c <W25qxx_EraseSector>
        	bool flag_empty = false;
 800325a:	2300      	movs	r3, #0
 800325c:	71fb      	strb	r3, [r7, #7]
        	flag_empty = W25qxx_IsEmptySector(SETPOINTS_FLASH_SECTOR, 0,MENU_SETPOINTS_NUM_ITEMS);
 800325e:	2219      	movs	r2, #25
 8003260:	2100      	movs	r1, #0
 8003262:	200a      	movs	r0, #10
 8003264:	f002 ff6c 	bl	8006140 <W25qxx_IsEmptySector>
 8003268:	4603      	mov	r3, r0
 800326a:	71fb      	strb	r3, [r7, #7]
        	if(flag_empty){
 800326c:	79fb      	ldrb	r3, [r7, #7]
 800326e:	2b00      	cmp	r3, #0
 8003270:	d007      	beq.n	8003282 <fnMenuProcess+0x33e>
        		W25qxx_WriteSector(SetpointsUnion.SetpointsArray, SETPOINTS_FLASH_SECTOR, 0, MENU_SETPOINTS_NUM_ITEMS);
 8003272:	2319      	movs	r3, #25
 8003274:	2200      	movs	r2, #0
 8003276:	210a      	movs	r1, #10
 8003278:	4842      	ldr	r0, [pc, #264]	; (8003384 <fnMenuProcess+0x440>)
 800327a:	f003 f8c9 	bl	8006410 <W25qxx_WriteSector>
        		flag_empty = false;
 800327e:	2300      	movs	r3, #0
 8003280:	71fb      	strb	r3, [r7, #7]
        		//tone(BUZZER,500,200);
        	}

          menu_mode = MENU_SETPOINTS;
 8003282:	4b44      	ldr	r3, [pc, #272]	; (8003394 <fnMenuProcess+0x450>)
 8003284:	2202      	movs	r2, #2
 8003286:	701a      	strb	r2, [r3, #0]
        }

        if(btn_state == BTN_ESC){
 8003288:	4b3f      	ldr	r3, [pc, #252]	; (8003388 <fnMenuProcess+0x444>)
 800328a:	881b      	ldrh	r3, [r3, #0]
 800328c:	2b20      	cmp	r3, #32
 800328e:	d170      	bne.n	8003372 <fnMenuProcess+0x42e>
		  //  
		  menu_mode = MENU_SETPOINTS;
 8003290:	4b40      	ldr	r3, [pc, #256]	; (8003394 <fnMenuProcess+0x450>)
 8003292:	2202      	movs	r2, #2
 8003294:	701a      	strb	r2, [r3, #0]
		}

        break;
 8003296:	e06c      	b.n	8003372 <fnMenuProcess+0x42e>

      case MENU_LOGO_VIEW:

        switch (SetpointsUnion.setpoints_data.logo)
 8003298:	4b3a      	ldr	r3, [pc, #232]	; (8003384 <fnMenuProcess+0x440>)
 800329a:	7d5b      	ldrb	r3, [r3, #21]
 800329c:	2b02      	cmp	r3, #2
 800329e:	d036      	beq.n	800330e <fnMenuProcess+0x3ca>
 80032a0:	2b02      	cmp	r3, #2
 80032a2:	dc4c      	bgt.n	800333e <fnMenuProcess+0x3fa>
 80032a4:	2b00      	cmp	r3, #0
 80032a6:	d002      	beq.n	80032ae <fnMenuProcess+0x36a>
 80032a8:	2b01      	cmp	r3, #1
 80032aa:	d018      	beq.n	80032de <fnMenuProcess+0x39a>
 80032ac:	e047      	b.n	800333e <fnMenuProcess+0x3fa>
        {
        case 0:
          u8g2_ClearBuffer(&u8g2);
 80032ae:	483a      	ldr	r0, [pc, #232]	; (8003398 <fnMenuProcess+0x454>)
 80032b0:	f000 ff26 	bl	8004100 <u8g2_ClearBuffer>
          W25qxx_ReadBytes(imageBuff, IMAGE_LOGO_FK, 1024);
 80032b4:	f44f 6280 	mov.w	r2, #1024	; 0x400
 80032b8:	f44f 5180 	mov.w	r1, #4096	; 0x1000
 80032bc:	4837      	ldr	r0, [pc, #220]	; (800339c <fnMenuProcess+0x458>)
 80032be:	f003 f909 	bl	80064d4 <W25qxx_ReadBytes>
          u8g2_DrawXBM(&u8g2,33,5, 64, 55, imageBuff);
 80032c2:	4b36      	ldr	r3, [pc, #216]	; (800339c <fnMenuProcess+0x458>)
 80032c4:	9301      	str	r3, [sp, #4]
 80032c6:	2337      	movs	r3, #55	; 0x37
 80032c8:	9300      	str	r3, [sp, #0]
 80032ca:	2340      	movs	r3, #64	; 0x40
 80032cc:	2205      	movs	r2, #5
 80032ce:	2121      	movs	r1, #33	; 0x21
 80032d0:	4831      	ldr	r0, [pc, #196]	; (8003398 <fnMenuProcess+0x454>)
 80032d2:	f000 fe3f 	bl	8003f54 <u8g2_DrawXBM>
          u8g2_SendBuffer(&u8g2);
 80032d6:	4830      	ldr	r0, [pc, #192]	; (8003398 <fnMenuProcess+0x454>)
 80032d8:	f000 ff85 	bl	80041e6 <u8g2_SendBuffer>
          break;
 80032dc:	e036      	b.n	800334c <fnMenuProcess+0x408>

        case 1:
          u8g2_ClearBuffer(&u8g2);
 80032de:	482e      	ldr	r0, [pc, #184]	; (8003398 <fnMenuProcess+0x454>)
 80032e0:	f000 ff0e 	bl	8004100 <u8g2_ClearBuffer>
          W25qxx_ReadBytes(imageBuff, IMAGE_LOGO_2, 1024);
 80032e4:	f44f 6280 	mov.w	r2, #1024	; 0x400
 80032e8:	f44f 5100 	mov.w	r1, #8192	; 0x2000
 80032ec:	482b      	ldr	r0, [pc, #172]	; (800339c <fnMenuProcess+0x458>)
 80032ee:	f003 f8f1 	bl	80064d4 <W25qxx_ReadBytes>
          u8g2_DrawXBM(&u8g2,33,5, 64, 55, imageBuff);
 80032f2:	4b2a      	ldr	r3, [pc, #168]	; (800339c <fnMenuProcess+0x458>)
 80032f4:	9301      	str	r3, [sp, #4]
 80032f6:	2337      	movs	r3, #55	; 0x37
 80032f8:	9300      	str	r3, [sp, #0]
 80032fa:	2340      	movs	r3, #64	; 0x40
 80032fc:	2205      	movs	r2, #5
 80032fe:	2121      	movs	r1, #33	; 0x21
 8003300:	4825      	ldr	r0, [pc, #148]	; (8003398 <fnMenuProcess+0x454>)
 8003302:	f000 fe27 	bl	8003f54 <u8g2_DrawXBM>
          u8g2_SendBuffer(&u8g2);
 8003306:	4824      	ldr	r0, [pc, #144]	; (8003398 <fnMenuProcess+0x454>)
 8003308:	f000 ff6d 	bl	80041e6 <u8g2_SendBuffer>
          break;
 800330c:	e01e      	b.n	800334c <fnMenuProcess+0x408>

        case 2:
          u8g2_ClearBuffer(&u8g2);
 800330e:	4822      	ldr	r0, [pc, #136]	; (8003398 <fnMenuProcess+0x454>)
 8003310:	f000 fef6 	bl	8004100 <u8g2_ClearBuffer>
          W25qxx_ReadBytes(imageBuff, IMAGE_LOGO_3, 1024);
 8003314:	f44f 6280 	mov.w	r2, #1024	; 0x400
 8003318:	f44f 5140 	mov.w	r1, #12288	; 0x3000
 800331c:	481f      	ldr	r0, [pc, #124]	; (800339c <fnMenuProcess+0x458>)
 800331e:	f003 f8d9 	bl	80064d4 <W25qxx_ReadBytes>
          u8g2_DrawXBM(&u8g2,33,5, 64, 55, imageBuff);
 8003322:	4b1e      	ldr	r3, [pc, #120]	; (800339c <fnMenuProcess+0x458>)
 8003324:	9301      	str	r3, [sp, #4]
 8003326:	2337      	movs	r3, #55	; 0x37
 8003328:	9300      	str	r3, [sp, #0]
 800332a:	2340      	movs	r3, #64	; 0x40
 800332c:	2205      	movs	r2, #5
 800332e:	2121      	movs	r1, #33	; 0x21
 8003330:	4819      	ldr	r0, [pc, #100]	; (8003398 <fnMenuProcess+0x454>)
 8003332:	f000 fe0f 	bl	8003f54 <u8g2_DrawXBM>
          u8g2_SendBuffer(&u8g2);
 8003336:	4818      	ldr	r0, [pc, #96]	; (8003398 <fnMenuProcess+0x454>)
 8003338:	f000 ff55 	bl	80041e6 <u8g2_SendBuffer>
          break;
 800333c:	e006      	b.n	800334c <fnMenuProcess+0x408>

		default:
			u8g2_ClearBuffer(&u8g2);
 800333e:	4816      	ldr	r0, [pc, #88]	; (8003398 <fnMenuProcess+0x454>)
 8003340:	f000 fede 	bl	8004100 <u8g2_ClearBuffer>
			//
			u8g2_SendBuffer(&u8g2);
 8003344:	4814      	ldr	r0, [pc, #80]	; (8003398 <fnMenuProcess+0x454>)
 8003346:	f000 ff4e 	bl	80041e6 <u8g2_SendBuffer>
			break;
 800334a:	bf00      	nop
        }


        if(btn_state == BTN_ENTER){
 800334c:	4b0e      	ldr	r3, [pc, #56]	; (8003388 <fnMenuProcess+0x444>)
 800334e:	881b      	ldrh	r3, [r3, #0]
 8003350:	2b10      	cmp	r3, #16
 8003352:	d110      	bne.n	8003376 <fnMenuProcess+0x432>
          menu_mode = MENU_MAIN_VIEW;
 8003354:	4b0f      	ldr	r3, [pc, #60]	; (8003394 <fnMenuProcess+0x450>)
 8003356:	2200      	movs	r2, #0
 8003358:	701a      	strb	r2, [r3, #0]
          menu_current_item = 0;
 800335a:	4b09      	ldr	r3, [pc, #36]	; (8003380 <fnMenuProcess+0x43c>)
 800335c:	2200      	movs	r2, #0
 800335e:	701a      	strb	r2, [r3, #0]
        }

        break;
 8003360:	e009      	b.n	8003376 <fnMenuProcess+0x432>

      default:

      break;
 8003362:	bf00      	nop
 8003364:	e008      	b.n	8003378 <fnMenuProcess+0x434>
        break;
 8003366:	bf00      	nop
 8003368:	e006      	b.n	8003378 <fnMenuProcess+0x434>
        break;
 800336a:	bf00      	nop
 800336c:	e004      	b.n	8003378 <fnMenuProcess+0x434>
        break;
 800336e:	bf00      	nop
 8003370:	e002      	b.n	8003378 <fnMenuProcess+0x434>
        break;
 8003372:	bf00      	nop
 8003374:	e000      	b.n	8003378 <fnMenuProcess+0x434>
        break;
 8003376:	bf00      	nop

    }
  //end menu
}
 8003378:	bf00      	nop
 800337a:	3708      	adds	r7, #8
 800337c:	46bd      	mov	sp, r7
 800337e:	bd80      	pop	{r7, pc}
 8003380:	2000007c 	.word	0x2000007c
 8003384:	20000aec 	.word	0x20000aec
 8003388:	20000080 	.word	0x20000080
 800338c:	20000004 	.word	0x20000004
 8003390:	20000020 	.word	0x20000020
 8003394:	2000007e 	.word	0x2000007e
 8003398:	20000a14 	.word	0x20000a14
 800339c:	20000090 	.word	0x20000090

080033a0 <fnGetPressKey>:

//***************************************************************************************************************

//
static uint16_t fnGetPressKey(void){
 80033a0:	b580      	push	{r7, lr}
 80033a2:	af00      	add	r7, sp, #0

 	static uint16_t key_pressed;

 	 //      
 		  btnStatesArray[BUTTON_UP] = Button_Get_Clicked_Count(&Button_A);  //
 80033a4:	485d      	ldr	r0, [pc, #372]	; (800351c <fnGetPressKey+0x17c>)
 80033a6:	f7fe fb29 	bl	80019fc <Button_Get_Clicked_Count>
 80033aa:	4603      	mov	r3, r0
 80033ac:	461a      	mov	r2, r3
 80033ae:	4b5c      	ldr	r3, [pc, #368]	; (8003520 <fnGetPressKey+0x180>)
 80033b0:	701a      	strb	r2, [r3, #0]
 		  btnStatesArray[BUTTON_DOWN] = Button_Get_Clicked_Count(&Button_B);
 80033b2:	485c      	ldr	r0, [pc, #368]	; (8003524 <fnGetPressKey+0x184>)
 80033b4:	f7fe fb22 	bl	80019fc <Button_Get_Clicked_Count>
 80033b8:	4603      	mov	r3, r0
 80033ba:	461a      	mov	r2, r3
 80033bc:	4b58      	ldr	r3, [pc, #352]	; (8003520 <fnGetPressKey+0x180>)
 80033be:	705a      	strb	r2, [r3, #1]
 		  btnStatesArray[BUTTON_ENTER] = Button_Get_Clicked_Count(&Button_C);
 80033c0:	4859      	ldr	r0, [pc, #356]	; (8003528 <fnGetPressKey+0x188>)
 80033c2:	f7fe fb1b 	bl	80019fc <Button_Get_Clicked_Count>
 80033c6:	4603      	mov	r3, r0
 80033c8:	461a      	mov	r2, r3
 80033ca:	4b55      	ldr	r3, [pc, #340]	; (8003520 <fnGetPressKey+0x180>)
 80033cc:	709a      	strb	r2, [r3, #2]
 		  btnStatesArray[BUTTON_ESC] = Button_Get_Clicked_Count(&Button_D);
 80033ce:	4857      	ldr	r0, [pc, #348]	; (800352c <fnGetPressKey+0x18c>)
 80033d0:	f7fe fb14 	bl	80019fc <Button_Get_Clicked_Count>
 80033d4:	4603      	mov	r3, r0
 80033d6:	461a      	mov	r2, r3
 80033d8:	4b51      	ldr	r3, [pc, #324]	; (8003520 <fnGetPressKey+0x180>)
 80033da:	70da      	strb	r2, [r3, #3]


 	if(btnStatesArray[BUTTON_UP] == 1)key_pressed |= BTN_UP;
 80033dc:	4b50      	ldr	r3, [pc, #320]	; (8003520 <fnGetPressKey+0x180>)
 80033de:	781b      	ldrb	r3, [r3, #0]
 80033e0:	2b01      	cmp	r3, #1
 80033e2:	d107      	bne.n	80033f4 <fnGetPressKey+0x54>
 80033e4:	4b52      	ldr	r3, [pc, #328]	; (8003530 <fnGetPressKey+0x190>)
 80033e6:	881b      	ldrh	r3, [r3, #0]
 80033e8:	f043 0301 	orr.w	r3, r3, #1
 80033ec:	b29a      	uxth	r2, r3
 80033ee:	4b50      	ldr	r3, [pc, #320]	; (8003530 <fnGetPressKey+0x190>)
 80033f0:	801a      	strh	r2, [r3, #0]
 80033f2:	e006      	b.n	8003402 <fnGetPressKey+0x62>
 		else key_pressed &= ~BTN_UP;
 80033f4:	4b4e      	ldr	r3, [pc, #312]	; (8003530 <fnGetPressKey+0x190>)
 80033f6:	881b      	ldrh	r3, [r3, #0]
 80033f8:	f023 0301 	bic.w	r3, r3, #1
 80033fc:	b29a      	uxth	r2, r3
 80033fe:	4b4c      	ldr	r3, [pc, #304]	; (8003530 <fnGetPressKey+0x190>)
 8003400:	801a      	strh	r2, [r3, #0]

 	if(btnStatesArray[BUTTON_DOWN] == 1) key_pressed |= BTN_DOWN;    //
 8003402:	4b47      	ldr	r3, [pc, #284]	; (8003520 <fnGetPressKey+0x180>)
 8003404:	785b      	ldrb	r3, [r3, #1]
 8003406:	2b01      	cmp	r3, #1
 8003408:	d107      	bne.n	800341a <fnGetPressKey+0x7a>
 800340a:	4b49      	ldr	r3, [pc, #292]	; (8003530 <fnGetPressKey+0x190>)
 800340c:	881b      	ldrh	r3, [r3, #0]
 800340e:	f043 0302 	orr.w	r3, r3, #2
 8003412:	b29a      	uxth	r2, r3
 8003414:	4b46      	ldr	r3, [pc, #280]	; (8003530 <fnGetPressKey+0x190>)
 8003416:	801a      	strh	r2, [r3, #0]
 8003418:	e006      	b.n	8003428 <fnGetPressKey+0x88>
 		else key_pressed &= ~BTN_DOWN;
 800341a:	4b45      	ldr	r3, [pc, #276]	; (8003530 <fnGetPressKey+0x190>)
 800341c:	881b      	ldrh	r3, [r3, #0]
 800341e:	f023 0302 	bic.w	r3, r3, #2
 8003422:	b29a      	uxth	r2, r3
 8003424:	4b42      	ldr	r3, [pc, #264]	; (8003530 <fnGetPressKey+0x190>)
 8003426:	801a      	strh	r2, [r3, #0]

 	if(Button_Get_Status(&Button_A) == Button_Long_Pressed)key_pressed |= BTN_UP_LONG_PRESS;
 8003428:	483c      	ldr	r0, [pc, #240]	; (800351c <fnGetPressKey+0x17c>)
 800342a:	f7fe fad7 	bl	80019dc <Button_Get_Status>
 800342e:	4603      	mov	r3, r0
 8003430:	2b03      	cmp	r3, #3
 8003432:	d107      	bne.n	8003444 <fnGetPressKey+0xa4>
 8003434:	4b3e      	ldr	r3, [pc, #248]	; (8003530 <fnGetPressKey+0x190>)
 8003436:	881b      	ldrh	r3, [r3, #0]
 8003438:	f043 0304 	orr.w	r3, r3, #4
 800343c:	b29a      	uxth	r2, r3
 800343e:	4b3c      	ldr	r3, [pc, #240]	; (8003530 <fnGetPressKey+0x190>)
 8003440:	801a      	strh	r2, [r3, #0]
 8003442:	e006      	b.n	8003452 <fnGetPressKey+0xb2>
 	 	else key_pressed &= ~BTN_UP_LONG_PRESS;
 8003444:	4b3a      	ldr	r3, [pc, #232]	; (8003530 <fnGetPressKey+0x190>)
 8003446:	881b      	ldrh	r3, [r3, #0]
 8003448:	f023 0304 	bic.w	r3, r3, #4
 800344c:	b29a      	uxth	r2, r3
 800344e:	4b38      	ldr	r3, [pc, #224]	; (8003530 <fnGetPressKey+0x190>)
 8003450:	801a      	strh	r2, [r3, #0]

	if(Button_Get_Status(&Button_B) == Button_Long_Pressed)key_pressed |= BTN_DOWN_LONG_PRESS; //
 8003452:	4834      	ldr	r0, [pc, #208]	; (8003524 <fnGetPressKey+0x184>)
 8003454:	f7fe fac2 	bl	80019dc <Button_Get_Status>
 8003458:	4603      	mov	r3, r0
 800345a:	2b03      	cmp	r3, #3
 800345c:	d107      	bne.n	800346e <fnGetPressKey+0xce>
 800345e:	4b34      	ldr	r3, [pc, #208]	; (8003530 <fnGetPressKey+0x190>)
 8003460:	881b      	ldrh	r3, [r3, #0]
 8003462:	f043 0308 	orr.w	r3, r3, #8
 8003466:	b29a      	uxth	r2, r3
 8003468:	4b31      	ldr	r3, [pc, #196]	; (8003530 <fnGetPressKey+0x190>)
 800346a:	801a      	strh	r2, [r3, #0]
 800346c:	e006      	b.n	800347c <fnGetPressKey+0xdc>
		else key_pressed &= ~BTN_DOWN_LONG_PRESS;
 800346e:	4b30      	ldr	r3, [pc, #192]	; (8003530 <fnGetPressKey+0x190>)
 8003470:	881b      	ldrh	r3, [r3, #0]
 8003472:	f023 0308 	bic.w	r3, r3, #8
 8003476:	b29a      	uxth	r2, r3
 8003478:	4b2d      	ldr	r3, [pc, #180]	; (8003530 <fnGetPressKey+0x190>)
 800347a:	801a      	strh	r2, [r3, #0]

 	if(btnStatesArray[BUTTON_ENTER] == 1) key_pressed |= BTN_ENTER;    //
 800347c:	4b28      	ldr	r3, [pc, #160]	; (8003520 <fnGetPressKey+0x180>)
 800347e:	789b      	ldrb	r3, [r3, #2]
 8003480:	2b01      	cmp	r3, #1
 8003482:	d107      	bne.n	8003494 <fnGetPressKey+0xf4>
 8003484:	4b2a      	ldr	r3, [pc, #168]	; (8003530 <fnGetPressKey+0x190>)
 8003486:	881b      	ldrh	r3, [r3, #0]
 8003488:	f043 0310 	orr.w	r3, r3, #16
 800348c:	b29a      	uxth	r2, r3
 800348e:	4b28      	ldr	r3, [pc, #160]	; (8003530 <fnGetPressKey+0x190>)
 8003490:	801a      	strh	r2, [r3, #0]
 8003492:	e006      	b.n	80034a2 <fnGetPressKey+0x102>
 		else key_pressed &= ~BTN_ENTER;
 8003494:	4b26      	ldr	r3, [pc, #152]	; (8003530 <fnGetPressKey+0x190>)
 8003496:	881b      	ldrh	r3, [r3, #0]
 8003498:	f023 0310 	bic.w	r3, r3, #16
 800349c:	b29a      	uxth	r2, r3
 800349e:	4b24      	ldr	r3, [pc, #144]	; (8003530 <fnGetPressKey+0x190>)
 80034a0:	801a      	strh	r2, [r3, #0]

 	if(btnStatesArray[BUTTON_ESC] == 1) key_pressed |= BTN_ESC;  //
 80034a2:	4b1f      	ldr	r3, [pc, #124]	; (8003520 <fnGetPressKey+0x180>)
 80034a4:	78db      	ldrb	r3, [r3, #3]
 80034a6:	2b01      	cmp	r3, #1
 80034a8:	d107      	bne.n	80034ba <fnGetPressKey+0x11a>
 80034aa:	4b21      	ldr	r3, [pc, #132]	; (8003530 <fnGetPressKey+0x190>)
 80034ac:	881b      	ldrh	r3, [r3, #0]
 80034ae:	f043 0320 	orr.w	r3, r3, #32
 80034b2:	b29a      	uxth	r2, r3
 80034b4:	4b1e      	ldr	r3, [pc, #120]	; (8003530 <fnGetPressKey+0x190>)
 80034b6:	801a      	strh	r2, [r3, #0]
 80034b8:	e006      	b.n	80034c8 <fnGetPressKey+0x128>
 		else key_pressed &= ~BTN_ESC;
 80034ba:	4b1d      	ldr	r3, [pc, #116]	; (8003530 <fnGetPressKey+0x190>)
 80034bc:	881b      	ldrh	r3, [r3, #0]
 80034be:	f023 0320 	bic.w	r3, r3, #32
 80034c2:	b29a      	uxth	r2, r3
 80034c4:	4b1a      	ldr	r3, [pc, #104]	; (8003530 <fnGetPressKey+0x190>)
 80034c6:	801a      	strh	r2, [r3, #0]

 	if(btnStatesArray[BUTTON_ENTER] == 255) key_pressed |= BTN_ENTER_LONG_PRESS;  //
 80034c8:	4b15      	ldr	r3, [pc, #84]	; (8003520 <fnGetPressKey+0x180>)
 80034ca:	789b      	ldrb	r3, [r3, #2]
 80034cc:	2bff      	cmp	r3, #255	; 0xff
 80034ce:	d107      	bne.n	80034e0 <fnGetPressKey+0x140>
 80034d0:	4b17      	ldr	r3, [pc, #92]	; (8003530 <fnGetPressKey+0x190>)
 80034d2:	881b      	ldrh	r3, [r3, #0]
 80034d4:	f043 0340 	orr.w	r3, r3, #64	; 0x40
 80034d8:	b29a      	uxth	r2, r3
 80034da:	4b15      	ldr	r3, [pc, #84]	; (8003530 <fnGetPressKey+0x190>)
 80034dc:	801a      	strh	r2, [r3, #0]
 80034de:	e006      	b.n	80034ee <fnGetPressKey+0x14e>
 		else key_pressed &= ~BTN_ENTER_LONG_PRESS;
 80034e0:	4b13      	ldr	r3, [pc, #76]	; (8003530 <fnGetPressKey+0x190>)
 80034e2:	881b      	ldrh	r3, [r3, #0]
 80034e4:	f023 0340 	bic.w	r3, r3, #64	; 0x40
 80034e8:	b29a      	uxth	r2, r3
 80034ea:	4b11      	ldr	r3, [pc, #68]	; (8003530 <fnGetPressKey+0x190>)
 80034ec:	801a      	strh	r2, [r3, #0]

 	if(btnStatesArray[BUTTON_ESC] == 255) key_pressed |= BTN_ESC_LONG_PRESS;  //
 80034ee:	4b0c      	ldr	r3, [pc, #48]	; (8003520 <fnGetPressKey+0x180>)
 80034f0:	78db      	ldrb	r3, [r3, #3]
 80034f2:	2bff      	cmp	r3, #255	; 0xff
 80034f4:	d107      	bne.n	8003506 <fnGetPressKey+0x166>
 80034f6:	4b0e      	ldr	r3, [pc, #56]	; (8003530 <fnGetPressKey+0x190>)
 80034f8:	881b      	ldrh	r3, [r3, #0]
 80034fa:	f043 0380 	orr.w	r3, r3, #128	; 0x80
 80034fe:	b29a      	uxth	r2, r3
 8003500:	4b0b      	ldr	r3, [pc, #44]	; (8003530 <fnGetPressKey+0x190>)
 8003502:	801a      	strh	r2, [r3, #0]
 8003504:	e006      	b.n	8003514 <fnGetPressKey+0x174>
 		else key_pressed &= ~BTN_ESC_LONG_PRESS;
 8003506:	4b0a      	ldr	r3, [pc, #40]	; (8003530 <fnGetPressKey+0x190>)
 8003508:	881b      	ldrh	r3, [r3, #0]
 800350a:	f023 0380 	bic.w	r3, r3, #128	; 0x80
 800350e:	b29a      	uxth	r2, r3
 8003510:	4b07      	ldr	r3, [pc, #28]	; (8003530 <fnGetPressKey+0x190>)
 8003512:	801a      	strh	r2, [r3, #0]

 	return key_pressed;
 8003514:	4b06      	ldr	r3, [pc, #24]	; (8003530 <fnGetPressKey+0x190>)
 8003516:	881b      	ldrh	r3, [r3, #0]
 }
 8003518:	4618      	mov	r0, r3
 800351a:	bd80      	pop	{r7, pc}
 800351c:	200009f8 	.word	0x200009f8
 8003520:	20000084 	.word	0x20000084
 8003524:	200009dc 	.word	0x200009dc
 8003528:	200009c0 	.word	0x200009c0
 800352c:	200009a4 	.word	0x200009a4
 8003530:	20000498 	.word	0x20000498

08003534 <Button_Get_Tick>:

//*********************************************************************************

//
uint32_t Button_Get_Tick(void)
{
 8003534:	b580      	push	{r7, lr}
 8003536:	af00      	add	r7, sp, #0
    return HAL_GetTick();
 8003538:	f003 f8a4 	bl	8006684 <HAL_GetTick>
 800353c:	4603      	mov	r3, r0
}
 800353e:	4618      	mov	r0, r3
 8003540:	bd80      	pop	{r7, pc}
	...

08003544 <Button_A_Read>:
//**********************************************************************************

//
uint8_t Button_A_Read(void)
{
 8003544:	b580      	push	{r7, lr}
 8003546:	af00      	add	r7, sp, #0
	return HAL_GPIO_ReadPin(BUTTON_UP_GPIO_Port, BUTTON_UP_Pin) ? 0 : 1;
 8003548:	2120      	movs	r1, #32
 800354a:	4805      	ldr	r0, [pc, #20]	; (8003560 <Button_A_Read+0x1c>)
 800354c:	f003 fc0a 	bl	8006d64 <HAL_GPIO_ReadPin>
 8003550:	4603      	mov	r3, r0
 8003552:	2b00      	cmp	r3, #0
 8003554:	bf0c      	ite	eq
 8003556:	2301      	moveq	r3, #1
 8003558:	2300      	movne	r3, #0
 800355a:	b2db      	uxtb	r3, r3
}
 800355c:	4618      	mov	r0, r3
 800355e:	bd80      	pop	{r7, pc}
 8003560:	40010c00 	.word	0x40010c00

08003564 <Button_B_Read>:
//**********************************************************************************

//
uint8_t Button_B_Read(void)
{
 8003564:	b580      	push	{r7, lr}
 8003566:	af00      	add	r7, sp, #0
	return HAL_GPIO_ReadPin(BUTTON_DOWN_GPIO_Port, BUTTON_DOWN_Pin) ? 0 : 1;
 8003568:	2140      	movs	r1, #64	; 0x40
 800356a:	4805      	ldr	r0, [pc, #20]	; (8003580 <Button_B_Read+0x1c>)
 800356c:	f003 fbfa 	bl	8006d64 <HAL_GPIO_ReadPin>
 8003570:	4603      	mov	r3, r0
 8003572:	2b00      	cmp	r3, #0
 8003574:	bf0c      	ite	eq
 8003576:	2301      	moveq	r3, #1
 8003578:	2300      	movne	r3, #0
 800357a:	b2db      	uxtb	r3, r3
}
 800357c:	4618      	mov	r0, r3
 800357e:	bd80      	pop	{r7, pc}
 8003580:	40010c00 	.word	0x40010c00

08003584 <Button_C_Read>:
//*********************************************************************************

//
uint8_t Button_C_Read(void)
{
 8003584:	b580      	push	{r7, lr}
 8003586:	af00      	add	r7, sp, #0
	return HAL_GPIO_ReadPin(BUTTON_ENTER_GPIO_Port, BUTTON_ENTER_Pin) ? 0 : 1;
 8003588:	2108      	movs	r1, #8
 800358a:	4805      	ldr	r0, [pc, #20]	; (80035a0 <Button_C_Read+0x1c>)
 800358c:	f003 fbea 	bl	8006d64 <HAL_GPIO_ReadPin>
 8003590:	4603      	mov	r3, r0
 8003592:	2b00      	cmp	r3, #0
 8003594:	bf0c      	ite	eq
 8003596:	2301      	moveq	r3, #1
 8003598:	2300      	movne	r3, #0
 800359a:	b2db      	uxtb	r3, r3
}
 800359c:	4618      	mov	r0, r3
 800359e:	bd80      	pop	{r7, pc}
 80035a0:	40010c00 	.word	0x40010c00

080035a4 <Button_D_Read>:
//****************************************************************************************

//
uint8_t Button_D_Read(void)
{
 80035a4:	b580      	push	{r7, lr}
 80035a6:	af00      	add	r7, sp, #0
	return HAL_GPIO_ReadPin(BUTTON_ESC_GPIO_Port, BUTTON_ESC_Pin) ? 0 : 1;
 80035a8:	2110      	movs	r1, #16
 80035aa:	4805      	ldr	r0, [pc, #20]	; (80035c0 <Button_D_Read+0x1c>)
 80035ac:	f003 fbda 	bl	8006d64 <HAL_GPIO_ReadPin>
 80035b0:	4603      	mov	r3, r0
 80035b2:	2b00      	cmp	r3, #0
 80035b4:	bf0c      	ite	eq
 80035b6:	2301      	moveq	r3, #1
 80035b8:	2300      	movne	r3, #0
 80035ba:	b2db      	uxtb	r3, r3
}
 80035bc:	4618      	mov	r0, r3
 80035be:	bd80      	pop	{r7, pc}
 80035c0:	40010c00 	.word	0x40010c00

080035c4 <Error_Handler>:
/**
  * @brief  This function is executed in case of error occurrence.
  * @retval None
  */
void Error_Handler(void)
{
 80035c4:	b480      	push	{r7}
 80035c6:	af00      	add	r7, sp, #0
  \details Disables IRQ interrupts by setting the I-bit in the CPSR.
           Can only be executed in Privileged modes.
 */
__STATIC_FORCEINLINE void __disable_irq(void)
{
  __ASM volatile ("cpsid i" : : : "memory");
 80035c8:	b672      	cpsid	i
}
 80035ca:	bf00      	nop
  /* USER CODE BEGIN Error_Handler_Debug */
  /* User can add his own implementation to report the HAL error return state */
  __disable_irq();
  while (1)
 80035cc:	e7fe      	b.n	80035cc <Error_Handler+0x8>

080035ce <mini_strlen>:

#include "mini-printf.h"

static int
mini_strlen(const char *s)
{
 80035ce:	b480      	push	{r7}
 80035d0:	b085      	sub	sp, #20
 80035d2:	af00      	add	r7, sp, #0
 80035d4:	6078      	str	r0, [r7, #4]
	int len = 0;
 80035d6:	2300      	movs	r3, #0
 80035d8:	60fb      	str	r3, [r7, #12]
	while (s[len] != '\0') len++;
 80035da:	e002      	b.n	80035e2 <mini_strlen+0x14>
 80035dc:	68fb      	ldr	r3, [r7, #12]
 80035de:	3301      	adds	r3, #1
 80035e0:	60fb      	str	r3, [r7, #12]
 80035e2:	68fb      	ldr	r3, [r7, #12]
 80035e4:	687a      	ldr	r2, [r7, #4]
 80035e6:	4413      	add	r3, r2
 80035e8:	781b      	ldrb	r3, [r3, #0]
 80035ea:	2b00      	cmp	r3, #0
 80035ec:	d1f6      	bne.n	80035dc <mini_strlen+0xe>
	return len;
 80035ee:	68fb      	ldr	r3, [r7, #12]
}
 80035f0:	4618      	mov	r0, r3
 80035f2:	3714      	adds	r7, #20
 80035f4:	46bd      	mov	sp, r7
 80035f6:	bc80      	pop	{r7}
 80035f8:	4770      	bx	lr

080035fa <mini_itoa>:

static int
mini_itoa(long value, unsigned int radix, int uppercase, int unsig,
	 char *buffer)
{
 80035fa:	b480      	push	{r7}
 80035fc:	b08b      	sub	sp, #44	; 0x2c
 80035fe:	af00      	add	r7, sp, #0
 8003600:	60f8      	str	r0, [r7, #12]
 8003602:	60b9      	str	r1, [r7, #8]
 8003604:	607a      	str	r2, [r7, #4]
 8003606:	603b      	str	r3, [r7, #0]
	char	*pbuffer = buffer;
 8003608:	6b3b      	ldr	r3, [r7, #48]	; 0x30
 800360a:	627b      	str	r3, [r7, #36]	; 0x24
	int	negative = 0;
 800360c:	2300      	movs	r3, #0
 800360e:	623b      	str	r3, [r7, #32]
	int	i, len;

	/* No support for unusual radixes. */
	if (radix > 16)
 8003610:	68bb      	ldr	r3, [r7, #8]
 8003612:	2b10      	cmp	r3, #16
 8003614:	d901      	bls.n	800361a <mini_itoa+0x20>
		return 0;
 8003616:	2300      	movs	r3, #0
 8003618:	e069      	b.n	80036ee <mini_itoa+0xf4>

	if (value < 0 && !unsig) {
 800361a:	68fb      	ldr	r3, [r7, #12]
 800361c:	2b00      	cmp	r3, #0
 800361e:	da07      	bge.n	8003630 <mini_itoa+0x36>
 8003620:	683b      	ldr	r3, [r7, #0]
 8003622:	2b00      	cmp	r3, #0
 8003624:	d104      	bne.n	8003630 <mini_itoa+0x36>
		negative = 1;
 8003626:	2301      	movs	r3, #1
 8003628:	623b      	str	r3, [r7, #32]
		value = -value;
 800362a:	68fb      	ldr	r3, [r7, #12]
 800362c:	425b      	negs	r3, r3
 800362e:	60fb      	str	r3, [r7, #12]
	}

	/* This builds the string back to front ... */
	do {
		int digit = value % radix;
 8003630:	68fb      	ldr	r3, [r7, #12]
 8003632:	68ba      	ldr	r2, [r7, #8]
 8003634:	fbb3 f2f2 	udiv	r2, r3, r2
 8003638:	68b9      	ldr	r1, [r7, #8]
 800363a:	fb01 f202 	mul.w	r2, r1, r2
 800363e:	1a9b      	subs	r3, r3, r2
 8003640:	61bb      	str	r3, [r7, #24]
		*(pbuffer++) = (digit < 10 ? '0' + digit : (uppercase ? 'A' : 'a') + digit - 10);
 8003642:	69bb      	ldr	r3, [r7, #24]
 8003644:	2b09      	cmp	r3, #9
 8003646:	dc04      	bgt.n	8003652 <mini_itoa+0x58>
 8003648:	69bb      	ldr	r3, [r7, #24]
 800364a:	b2db      	uxtb	r3, r3
 800364c:	3330      	adds	r3, #48	; 0x30
 800364e:	b2da      	uxtb	r2, r3
 8003650:	e00b      	b.n	800366a <mini_itoa+0x70>
 8003652:	687b      	ldr	r3, [r7, #4]
 8003654:	2b00      	cmp	r3, #0
 8003656:	d001      	beq.n	800365c <mini_itoa+0x62>
 8003658:	2241      	movs	r2, #65	; 0x41
 800365a:	e000      	b.n	800365e <mini_itoa+0x64>
 800365c:	2261      	movs	r2, #97	; 0x61
 800365e:	69bb      	ldr	r3, [r7, #24]
 8003660:	b2db      	uxtb	r3, r3
 8003662:	4413      	add	r3, r2
 8003664:	b2db      	uxtb	r3, r3
 8003666:	3b0a      	subs	r3, #10
 8003668:	b2da      	uxtb	r2, r3
 800366a:	6a7b      	ldr	r3, [r7, #36]	; 0x24
 800366c:	1c59      	adds	r1, r3, #1
 800366e:	6279      	str	r1, [r7, #36]	; 0x24
 8003670:	701a      	strb	r2, [r3, #0]
		value /= radix;
 8003672:	68fa      	ldr	r2, [r7, #12]
 8003674:	68bb      	ldr	r3, [r7, #8]
 8003676:	fbb2 f3f3 	udiv	r3, r2, r3
 800367a:	60fb      	str	r3, [r7, #12]
	} while (value > 0);
 800367c:	68fb      	ldr	r3, [r7, #12]
 800367e:	2b00      	cmp	r3, #0
 8003680:	dcd6      	bgt.n	8003630 <mini_itoa+0x36>

	if (negative)
 8003682:	6a3b      	ldr	r3, [r7, #32]
 8003684:	2b00      	cmp	r3, #0
 8003686:	d004      	beq.n	8003692 <mini_itoa+0x98>
		*(pbuffer++) = '-';
 8003688:	6a7b      	ldr	r3, [r7, #36]	; 0x24
 800368a:	1c5a      	adds	r2, r3, #1
 800368c:	627a      	str	r2, [r7, #36]	; 0x24
 800368e:	222d      	movs	r2, #45	; 0x2d
 8003690:	701a      	strb	r2, [r3, #0]

	*(pbuffer) = '\0';
 8003692:	6a7b      	ldr	r3, [r7, #36]	; 0x24
 8003694:	2200      	movs	r2, #0
 8003696:	701a      	strb	r2, [r3, #0]

	/* ... now we reverse it (could do it recursively but will
	 * conserve the stack space) */
	len = (pbuffer - buffer);
 8003698:	6a7a      	ldr	r2, [r7, #36]	; 0x24
 800369a:	6b3b      	ldr	r3, [r7, #48]	; 0x30
 800369c:	1ad3      	subs	r3, r2, r3
 800369e:	617b      	str	r3, [r7, #20]
	for (i = 0; i < len / 2; i++) {
 80036a0:	2300      	movs	r3, #0
 80036a2:	61fb      	str	r3, [r7, #28]
 80036a4:	e01a      	b.n	80036dc <mini_itoa+0xe2>
		char j = buffer[i];
 80036a6:	69fb      	ldr	r3, [r7, #28]
 80036a8:	6b3a      	ldr	r2, [r7, #48]	; 0x30
 80036aa:	4413      	add	r3, r2
 80036ac:	781b      	ldrb	r3, [r3, #0]
 80036ae:	74fb      	strb	r3, [r7, #19]
		buffer[i] = buffer[len-i-1];
 80036b0:	697a      	ldr	r2, [r7, #20]
 80036b2:	69fb      	ldr	r3, [r7, #28]
 80036b4:	1ad3      	subs	r3, r2, r3
 80036b6:	3b01      	subs	r3, #1
 80036b8:	6b3a      	ldr	r2, [r7, #48]	; 0x30
 80036ba:	441a      	add	r2, r3
 80036bc:	69fb      	ldr	r3, [r7, #28]
 80036be:	6b39      	ldr	r1, [r7, #48]	; 0x30
 80036c0:	440b      	add	r3, r1
 80036c2:	7812      	ldrb	r2, [r2, #0]
 80036c4:	701a      	strb	r2, [r3, #0]
		buffer[len-i-1] = j;
 80036c6:	697a      	ldr	r2, [r7, #20]
 80036c8:	69fb      	ldr	r3, [r7, #28]
 80036ca:	1ad3      	subs	r3, r2, r3
 80036cc:	3b01      	subs	r3, #1
 80036ce:	6b3a      	ldr	r2, [r7, #48]	; 0x30
 80036d0:	4413      	add	r3, r2
 80036d2:	7cfa      	ldrb	r2, [r7, #19]
 80036d4:	701a      	strb	r2, [r3, #0]
	for (i = 0; i < len / 2; i++) {
 80036d6:	69fb      	ldr	r3, [r7, #28]
 80036d8:	3301      	adds	r3, #1
 80036da:	61fb      	str	r3, [r7, #28]
 80036dc:	697b      	ldr	r3, [r7, #20]
 80036de:	0fda      	lsrs	r2, r3, #31
 80036e0:	4413      	add	r3, r2
 80036e2:	105b      	asrs	r3, r3, #1
 80036e4:	461a      	mov	r2, r3
 80036e6:	69fb      	ldr	r3, [r7, #28]
 80036e8:	4293      	cmp	r3, r2
 80036ea:	dbdc      	blt.n	80036a6 <mini_itoa+0xac>
	}

	return len;
 80036ec:	697b      	ldr	r3, [r7, #20]
}
 80036ee:	4618      	mov	r0, r3
 80036f0:	372c      	adds	r7, #44	; 0x2c
 80036f2:	46bd      	mov	sp, r7
 80036f4:	bc80      	pop	{r7}
 80036f6:	4770      	bx	lr

080036f8 <mini_pad>:

static int
mini_pad(char* ptr, int len, char pad_char, int pad_to, char *buffer)
{
 80036f8:	b480      	push	{r7}
 80036fa:	b089      	sub	sp, #36	; 0x24
 80036fc:	af00      	add	r7, sp, #0
 80036fe:	60f8      	str	r0, [r7, #12]
 8003700:	60b9      	str	r1, [r7, #8]
 8003702:	603b      	str	r3, [r7, #0]
 8003704:	4613      	mov	r3, r2
 8003706:	71fb      	strb	r3, [r7, #7]
	int i;
	int overflow = 0;
 8003708:	2300      	movs	r3, #0
 800370a:	61bb      	str	r3, [r7, #24]
	char * pbuffer = buffer;
 800370c:	6abb      	ldr	r3, [r7, #40]	; 0x28
 800370e:	617b      	str	r3, [r7, #20]
	if(pad_to == 0) pad_to = len;
 8003710:	683b      	ldr	r3, [r7, #0]
 8003712:	2b00      	cmp	r3, #0
 8003714:	d101      	bne.n	800371a <mini_pad+0x22>
 8003716:	68bb      	ldr	r3, [r7, #8]
 8003718:	603b      	str	r3, [r7, #0]
	if(len > pad_to) {
 800371a:	68ba      	ldr	r2, [r7, #8]
 800371c:	683b      	ldr	r3, [r7, #0]
 800371e:	429a      	cmp	r2, r3
 8003720:	dd03      	ble.n	800372a <mini_pad+0x32>
		len = pad_to;
 8003722:	683b      	ldr	r3, [r7, #0]
 8003724:	60bb      	str	r3, [r7, #8]
		overflow = 1;
 8003726:	2301      	movs	r3, #1
 8003728:	61bb      	str	r3, [r7, #24]
	}
	for(i = pad_to - len; i > 0; i --) {
 800372a:	683a      	ldr	r2, [r7, #0]
 800372c:	68bb      	ldr	r3, [r7, #8]
 800372e:	1ad3      	subs	r3, r2, r3
 8003730:	61fb      	str	r3, [r7, #28]
 8003732:	e007      	b.n	8003744 <mini_pad+0x4c>
		*(pbuffer++) = pad_char;
 8003734:	697b      	ldr	r3, [r7, #20]
 8003736:	1c5a      	adds	r2, r3, #1
 8003738:	617a      	str	r2, [r7, #20]
 800373a:	79fa      	ldrb	r2, [r7, #7]
 800373c:	701a      	strb	r2, [r3, #0]
	for(i = pad_to - len; i > 0; i --) {
 800373e:	69fb      	ldr	r3, [r7, #28]
 8003740:	3b01      	subs	r3, #1
 8003742:	61fb      	str	r3, [r7, #28]
 8003744:	69fb      	ldr	r3, [r7, #28]
 8003746:	2b00      	cmp	r3, #0
 8003748:	dcf4      	bgt.n	8003734 <mini_pad+0x3c>
	}
	for(i = len; i > 0; i --) {
 800374a:	68bb      	ldr	r3, [r7, #8]
 800374c:	61fb      	str	r3, [r7, #28]
 800374e:	e00a      	b.n	8003766 <mini_pad+0x6e>
		*(pbuffer++) = *(ptr++);
 8003750:	68fa      	ldr	r2, [r7, #12]
 8003752:	1c53      	adds	r3, r2, #1
 8003754:	60fb      	str	r3, [r7, #12]
 8003756:	697b      	ldr	r3, [r7, #20]
 8003758:	1c59      	adds	r1, r3, #1
 800375a:	6179      	str	r1, [r7, #20]
 800375c:	7812      	ldrb	r2, [r2, #0]
 800375e:	701a      	strb	r2, [r3, #0]
	for(i = len; i > 0; i --) {
 8003760:	69fb      	ldr	r3, [r7, #28]
 8003762:	3b01      	subs	r3, #1
 8003764:	61fb      	str	r3, [r7, #28]
 8003766:	69fb      	ldr	r3, [r7, #28]
 8003768:	2b00      	cmp	r3, #0
 800376a:	dcf1      	bgt.n	8003750 <mini_pad+0x58>
	}
	len = pbuffer - buffer;
 800376c:	697a      	ldr	r2, [r7, #20]
 800376e:	6abb      	ldr	r3, [r7, #40]	; 0x28
 8003770:	1ad3      	subs	r3, r2, r3
 8003772:	60bb      	str	r3, [r7, #8]
	if(overflow) {
 8003774:	69bb      	ldr	r3, [r7, #24]
 8003776:	2b00      	cmp	r3, #0
 8003778:	d012      	beq.n	80037a0 <mini_pad+0xa8>
		for (i = 0; i < 3 && pbuffer > buffer; i ++) {
 800377a:	2300      	movs	r3, #0
 800377c:	61fb      	str	r3, [r7, #28]
 800377e:	e008      	b.n	8003792 <mini_pad+0x9a>
			*(pbuffer-- - 1) = '*';
 8003780:	697b      	ldr	r3, [r7, #20]
 8003782:	1e5a      	subs	r2, r3, #1
 8003784:	617a      	str	r2, [r7, #20]
 8003786:	3b01      	subs	r3, #1
 8003788:	222a      	movs	r2, #42	; 0x2a
 800378a:	701a      	strb	r2, [r3, #0]
		for (i = 0; i < 3 && pbuffer > buffer; i ++) {
 800378c:	69fb      	ldr	r3, [r7, #28]
 800378e:	3301      	adds	r3, #1
 8003790:	61fb      	str	r3, [r7, #28]
 8003792:	69fb      	ldr	r3, [r7, #28]
 8003794:	2b02      	cmp	r3, #2
 8003796:	dc03      	bgt.n	80037a0 <mini_pad+0xa8>
 8003798:	697a      	ldr	r2, [r7, #20]
 800379a:	6abb      	ldr	r3, [r7, #40]	; 0x28
 800379c:	429a      	cmp	r2, r3
 800379e:	d8ef      	bhi.n	8003780 <mini_pad+0x88>
		}
	}
	return len;
 80037a0:	68bb      	ldr	r3, [r7, #8]
}
 80037a2:	4618      	mov	r0, r3
 80037a4:	3724      	adds	r7, #36	; 0x24
 80037a6:	46bd      	mov	sp, r7
 80037a8:	bc80      	pop	{r7}
 80037aa:	4770      	bx	lr

080037ac <_puts>:
	unsigned int buffer_len;
};

static int
_puts(char *s, int len, void *buf)
{
 80037ac:	b480      	push	{r7}
 80037ae:	b089      	sub	sp, #36	; 0x24
 80037b0:	af00      	add	r7, sp, #0
 80037b2:	60f8      	str	r0, [r7, #12]
 80037b4:	60b9      	str	r1, [r7, #8]
 80037b6:	607a      	str	r2, [r7, #4]
	if(!buf) return len;
 80037b8:	687b      	ldr	r3, [r7, #4]
 80037ba:	2b00      	cmp	r3, #0
 80037bc:	d101      	bne.n	80037c2 <_puts+0x16>
 80037be:	68bb      	ldr	r3, [r7, #8]
 80037c0:	e02c      	b.n	800381c <_puts+0x70>
	struct mini_buff *b = buf;
 80037c2:	687b      	ldr	r3, [r7, #4]
 80037c4:	61bb      	str	r3, [r7, #24]
	char * p0 = b->buffer;
 80037c6:	69bb      	ldr	r3, [r7, #24]
 80037c8:	681b      	ldr	r3, [r3, #0]
 80037ca:	617b      	str	r3, [r7, #20]
	int i;
	/* Copy to buffer */
	for (i = 0; i < len; i++) {
 80037cc:	2300      	movs	r3, #0
 80037ce:	61fb      	str	r3, [r7, #28]
 80037d0:	e016      	b.n	8003800 <_puts+0x54>
		if(b->pbuffer == b->buffer + b->buffer_len - 1) {
 80037d2:	69bb      	ldr	r3, [r7, #24]
 80037d4:	685a      	ldr	r2, [r3, #4]
 80037d6:	69bb      	ldr	r3, [r7, #24]
 80037d8:	6819      	ldr	r1, [r3, #0]
 80037da:	69bb      	ldr	r3, [r7, #24]
 80037dc:	689b      	ldr	r3, [r3, #8]
 80037de:	3b01      	subs	r3, #1
 80037e0:	440b      	add	r3, r1
 80037e2:	429a      	cmp	r2, r3
 80037e4:	d011      	beq.n	800380a <_puts+0x5e>
			break;
		}
		*(b->pbuffer ++) = s[i];
 80037e6:	69fb      	ldr	r3, [r7, #28]
 80037e8:	68fa      	ldr	r2, [r7, #12]
 80037ea:	441a      	add	r2, r3
 80037ec:	69bb      	ldr	r3, [r7, #24]
 80037ee:	685b      	ldr	r3, [r3, #4]
 80037f0:	1c58      	adds	r0, r3, #1
 80037f2:	69b9      	ldr	r1, [r7, #24]
 80037f4:	6048      	str	r0, [r1, #4]
 80037f6:	7812      	ldrb	r2, [r2, #0]
 80037f8:	701a      	strb	r2, [r3, #0]
	for (i = 0; i < len; i++) {
 80037fa:	69fb      	ldr	r3, [r7, #28]
 80037fc:	3301      	adds	r3, #1
 80037fe:	61fb      	str	r3, [r7, #28]
 8003800:	69fa      	ldr	r2, [r7, #28]
 8003802:	68bb      	ldr	r3, [r7, #8]
 8003804:	429a      	cmp	r2, r3
 8003806:	dbe4      	blt.n	80037d2 <_puts+0x26>
 8003808:	e000      	b.n	800380c <_puts+0x60>
			break;
 800380a:	bf00      	nop
	}
	*(b->pbuffer) = 0;
 800380c:	69bb      	ldr	r3, [r7, #24]
 800380e:	685b      	ldr	r3, [r3, #4]
 8003810:	2200      	movs	r2, #0
 8003812:	701a      	strb	r2, [r3, #0]
	return b->pbuffer - p0;
 8003814:	69bb      	ldr	r3, [r7, #24]
 8003816:	685a      	ldr	r2, [r3, #4]
 8003818:	697b      	ldr	r3, [r7, #20]
 800381a:	1ad3      	subs	r3, r2, r3
}
 800381c:	4618      	mov	r0, r3
 800381e:	3724      	adds	r7, #36	; 0x24
 8003820:	46bd      	mov	sp, r7
 8003822:	bc80      	pop	{r7}
 8003824:	4770      	bx	lr
	...

08003828 <mini_vsnprintf>:
}
#endif

int
mini_vsnprintf(char *buffer, unsigned int buffer_len, const char *fmt, va_list va)
{
 8003828:	b580      	push	{r7, lr}
 800382a:	b088      	sub	sp, #32
 800382c:	af00      	add	r7, sp, #0
 800382e:	60f8      	str	r0, [r7, #12]
 8003830:	60b9      	str	r1, [r7, #8]
 8003832:	607a      	str	r2, [r7, #4]
 8003834:	603b      	str	r3, [r7, #0]
	struct mini_buff b;
	b.buffer = buffer;
 8003836:	68fb      	ldr	r3, [r7, #12]
 8003838:	613b      	str	r3, [r7, #16]
	b.pbuffer = buffer;
 800383a:	68fb      	ldr	r3, [r7, #12]
 800383c:	617b      	str	r3, [r7, #20]
	b.buffer_len = buffer_len;
 800383e:	68bb      	ldr	r3, [r7, #8]
 8003840:	61bb      	str	r3, [r7, #24]
	if(buffer_len == 0) buffer = (void*) 0;
 8003842:	68bb      	ldr	r3, [r7, #8]
 8003844:	2b00      	cmp	r3, #0
 8003846:	d101      	bne.n	800384c <mini_vsnprintf+0x24>
 8003848:	2300      	movs	r3, #0
 800384a:	60fb      	str	r3, [r7, #12]
	int n = mini_vpprintf(_puts, (buffer != (void*)0)?&b:(void*)0, fmt, va);
 800384c:	68fb      	ldr	r3, [r7, #12]
 800384e:	2b00      	cmp	r3, #0
 8003850:	d002      	beq.n	8003858 <mini_vsnprintf+0x30>
 8003852:	f107 0110 	add.w	r1, r7, #16
 8003856:	e000      	b.n	800385a <mini_vsnprintf+0x32>
 8003858:	2100      	movs	r1, #0
 800385a:	683b      	ldr	r3, [r7, #0]
 800385c:	687a      	ldr	r2, [r7, #4]
 800385e:	4808      	ldr	r0, [pc, #32]	; (8003880 <mini_vsnprintf+0x58>)
 8003860:	f000 f810 	bl	8003884 <mini_vpprintf>
 8003864:	61f8      	str	r0, [r7, #28]
	if(buffer == (void*) 0) {
 8003866:	68fb      	ldr	r3, [r7, #12]
 8003868:	2b00      	cmp	r3, #0
 800386a:	d101      	bne.n	8003870 <mini_vsnprintf+0x48>
		return n;
 800386c:	69fb      	ldr	r3, [r7, #28]
 800386e:	e002      	b.n	8003876 <mini_vsnprintf+0x4e>
	}
	return b.pbuffer - b.buffer;
 8003870:	697a      	ldr	r2, [r7, #20]
 8003872:	693b      	ldr	r3, [r7, #16]
 8003874:	1ad3      	subs	r3, r2, r3
}
 8003876:	4618      	mov	r0, r3
 8003878:	3720      	adds	r7, #32
 800387a:	46bd      	mov	sp, r7
 800387c:	bd80      	pop	{r7, pc}
 800387e:	bf00      	nop
 8003880:	080037ad 	.word	0x080037ad

08003884 <mini_vpprintf>:

int
mini_vpprintf(int (*puts)(char* s, int len, void* buf), void* buf, const char *fmt, va_list va)
{
 8003884:	b580      	push	{r7, lr}
 8003886:	b09a      	sub	sp, #104	; 0x68
 8003888:	af02      	add	r7, sp, #8
 800388a:	60f8      	str	r0, [r7, #12]
 800388c:	60b9      	str	r1, [r7, #8]
 800388e:	607a      	str	r2, [r7, #4]
 8003890:	603b      	str	r3, [r7, #0]
	char bf2[24];
	char ch;
#ifdef MINI_PRINTF_ENABLE_OBJECTS
	void* obj;
#endif
	if(puts == (void*)0) {
 8003892:	68fb      	ldr	r3, [r7, #12]
 8003894:	2b00      	cmp	r3, #0
 8003896:	d103      	bne.n	80038a0 <mini_vpprintf+0x1c>
		/* run puts in counting mode. */
		puts = _puts; buf = (void*)0;
 8003898:	4bb5      	ldr	r3, [pc, #724]	; (8003b70 <mini_vpprintf+0x2ec>)
 800389a:	60fb      	str	r3, [r7, #12]
 800389c:	2300      	movs	r3, #0
 800389e:	60bb      	str	r3, [r7, #8]
	}
	int n = 0;
 80038a0:	2300      	movs	r3, #0
 80038a2:	65fb      	str	r3, [r7, #92]	; 0x5c
	while ((ch=*(fmt++))) {
 80038a4:	e17b      	b.n	8003b9e <mini_vpprintf+0x31a>
		int len;
		if (ch!='%') {
 80038a6:	7dfb      	ldrb	r3, [r7, #23]
 80038a8:	2b25      	cmp	r3, #37	; 0x25
 80038aa:	d009      	beq.n	80038c0 <mini_vpprintf+0x3c>
			len = 1;
 80038ac:	2301      	movs	r3, #1
 80038ae:	65bb      	str	r3, [r7, #88]	; 0x58
			len = puts(&ch, len, buf);
 80038b0:	f107 0017 	add.w	r0, r7, #23
 80038b4:	68fb      	ldr	r3, [r7, #12]
 80038b6:	68ba      	ldr	r2, [r7, #8]
 80038b8:	6db9      	ldr	r1, [r7, #88]	; 0x58
 80038ba:	4798      	blx	r3
 80038bc:	65b8      	str	r0, [r7, #88]	; 0x58
 80038be:	e16a      	b.n	8003b96 <mini_vpprintf+0x312>
		} else {
			char pad_char = ' ';
 80038c0:	2320      	movs	r3, #32
 80038c2:	f887 3057 	strb.w	r3, [r7, #87]	; 0x57
			int pad_to = 0;
 80038c6:	2300      	movs	r3, #0
 80038c8:	653b      	str	r3, [r7, #80]	; 0x50
			char l = 0;
 80038ca:	2300      	movs	r3, #0
 80038cc:	f887 304f 	strb.w	r3, [r7, #79]	; 0x4f
			char *ptr;

			ch=*(fmt++);
 80038d0:	687b      	ldr	r3, [r7, #4]
 80038d2:	1c5a      	adds	r2, r3, #1
 80038d4:	607a      	str	r2, [r7, #4]
 80038d6:	781b      	ldrb	r3, [r3, #0]
 80038d8:	75fb      	strb	r3, [r7, #23]

			/* Zero padding requested */
			if (ch == '0') pad_char = '0';
 80038da:	7dfb      	ldrb	r3, [r7, #23]
 80038dc:	2b30      	cmp	r3, #48	; 0x30
 80038de:	d112      	bne.n	8003906 <mini_vpprintf+0x82>
 80038e0:	2330      	movs	r3, #48	; 0x30
 80038e2:	f887 3057 	strb.w	r3, [r7, #87]	; 0x57
			while (ch >= '0' && ch <= '9') {
 80038e6:	e00e      	b.n	8003906 <mini_vpprintf+0x82>
				pad_to = pad_to * 10 + (ch - '0');
 80038e8:	6d3a      	ldr	r2, [r7, #80]	; 0x50
 80038ea:	4613      	mov	r3, r2
 80038ec:	009b      	lsls	r3, r3, #2
 80038ee:	4413      	add	r3, r2
 80038f0:	005b      	lsls	r3, r3, #1
 80038f2:	461a      	mov	r2, r3
 80038f4:	7dfb      	ldrb	r3, [r7, #23]
 80038f6:	3b30      	subs	r3, #48	; 0x30
 80038f8:	4413      	add	r3, r2
 80038fa:	653b      	str	r3, [r7, #80]	; 0x50
				ch=*(fmt++);
 80038fc:	687b      	ldr	r3, [r7, #4]
 80038fe:	1c5a      	adds	r2, r3, #1
 8003900:	607a      	str	r2, [r7, #4]
 8003902:	781b      	ldrb	r3, [r3, #0]
 8003904:	75fb      	strb	r3, [r7, #23]
			while (ch >= '0' && ch <= '9') {
 8003906:	7dfb      	ldrb	r3, [r7, #23]
 8003908:	2b2f      	cmp	r3, #47	; 0x2f
 800390a:	d902      	bls.n	8003912 <mini_vpprintf+0x8e>
 800390c:	7dfb      	ldrb	r3, [r7, #23]
 800390e:	2b39      	cmp	r3, #57	; 0x39
 8003910:	d9ea      	bls.n	80038e8 <mini_vpprintf+0x64>
			}
			if(pad_to > (signed int) sizeof(bf)) {
 8003912:	6d3b      	ldr	r3, [r7, #80]	; 0x50
 8003914:	2b18      	cmp	r3, #24
 8003916:	dd01      	ble.n	800391c <mini_vpprintf+0x98>
				pad_to = sizeof(bf);
 8003918:	2318      	movs	r3, #24
 800391a:	653b      	str	r3, [r7, #80]	; 0x50
			}
			if (ch == 'l') {
 800391c:	7dfb      	ldrb	r3, [r7, #23]
 800391e:	2b6c      	cmp	r3, #108	; 0x6c
 8003920:	d107      	bne.n	8003932 <mini_vpprintf+0xae>
				l = 1;
 8003922:	2301      	movs	r3, #1
 8003924:	f887 304f 	strb.w	r3, [r7, #79]	; 0x4f
				ch=*(fmt++);
 8003928:	687b      	ldr	r3, [r7, #4]
 800392a:	1c5a      	adds	r2, r3, #1
 800392c:	607a      	str	r2, [r7, #4]
 800392e:	781b      	ldrb	r3, [r3, #0]
 8003930:	75fb      	strb	r3, [r7, #23]
			}

			switch (ch) {
 8003932:	7dfb      	ldrb	r3, [r7, #23]
 8003934:	2b00      	cmp	r3, #0
 8003936:	f000 813c 	beq.w	8003bb2 <mini_vpprintf+0x32e>
 800393a:	2b00      	cmp	r3, #0
 800393c:	f2c0 8121 	blt.w	8003b82 <mini_vpprintf+0x2fe>
 8003940:	2b78      	cmp	r3, #120	; 0x78
 8003942:	f300 811e 	bgt.w	8003b82 <mini_vpprintf+0x2fe>
 8003946:	2b58      	cmp	r3, #88	; 0x58
 8003948:	f2c0 811b 	blt.w	8003b82 <mini_vpprintf+0x2fe>
 800394c:	3b58      	subs	r3, #88	; 0x58
 800394e:	2b20      	cmp	r3, #32
 8003950:	f200 8117 	bhi.w	8003b82 <mini_vpprintf+0x2fe>
 8003954:	a201      	add	r2, pc, #4	; (adr r2, 800395c <mini_vpprintf+0xd8>)
 8003956:	f852 f023 	ldr.w	pc, [r2, r3, lsl #2]
 800395a:	bf00      	nop
 800395c:	08003a7b 	.word	0x08003a7b
 8003960:	08003b83 	.word	0x08003b83
 8003964:	08003b83 	.word	0x08003b83
 8003968:	08003b83 	.word	0x08003b83
 800396c:	08003b83 	.word	0x08003b83
 8003970:	08003b83 	.word	0x08003b83
 8003974:	08003b83 	.word	0x08003b83
 8003978:	08003b83 	.word	0x08003b83
 800397c:	08003b83 	.word	0x08003b83
 8003980:	08003b83 	.word	0x08003b83
 8003984:	08003b83 	.word	0x08003b83
 8003988:	08003afd 	.word	0x08003afd
 800398c:	080039e1 	.word	0x080039e1
 8003990:	08003b83 	.word	0x08003b83
 8003994:	08003b83 	.word	0x08003b83
 8003998:	08003b83 	.word	0x08003b83
 800399c:	08003b83 	.word	0x08003b83
 80039a0:	08003b83 	.word	0x08003b83
 80039a4:	08003b83 	.word	0x08003b83
 80039a8:	08003b83 	.word	0x08003b83
 80039ac:	08003b83 	.word	0x08003b83
 80039b0:	08003b83 	.word	0x08003b83
 80039b4:	08003b83 	.word	0x08003b83
 80039b8:	08003b83 	.word	0x08003b83
 80039bc:	08003b83 	.word	0x08003b83
 80039c0:	08003b83 	.word	0x08003b83
 80039c4:	08003b83 	.word	0x08003b83
 80039c8:	08003b31 	.word	0x08003b31
 80039cc:	08003b83 	.word	0x08003b83
 80039d0:	080039e1 	.word	0x080039e1
 80039d4:	08003b83 	.word	0x08003b83
 80039d8:	08003b83 	.word	0x08003b83
 80039dc:	08003a7b 	.word	0x08003a7b
				case 0:
					goto end;
				case 'u':
				case 'd':
					if(l) {
 80039e0:	f897 304f 	ldrb.w	r3, [r7, #79]	; 0x4f
 80039e4:	2b00      	cmp	r3, #0
 80039e6:	d015      	beq.n	8003a14 <mini_vpprintf+0x190>
						len = mini_itoa(va_arg(va, unsigned long), 10, 0, (ch=='u'), bf2);
 80039e8:	683b      	ldr	r3, [r7, #0]
 80039ea:	1d1a      	adds	r2, r3, #4
 80039ec:	603a      	str	r2, [r7, #0]
 80039ee:	681b      	ldr	r3, [r3, #0]
 80039f0:	4618      	mov	r0, r3
 80039f2:	7dfb      	ldrb	r3, [r7, #23]
 80039f4:	2b75      	cmp	r3, #117	; 0x75
 80039f6:	bf0c      	ite	eq
 80039f8:	2301      	moveq	r3, #1
 80039fa:	2300      	movne	r3, #0
 80039fc:	b2db      	uxtb	r3, r3
 80039fe:	461a      	mov	r2, r3
 8003a00:	f107 0318 	add.w	r3, r7, #24
 8003a04:	9300      	str	r3, [sp, #0]
 8003a06:	4613      	mov	r3, r2
 8003a08:	2200      	movs	r2, #0
 8003a0a:	210a      	movs	r1, #10
 8003a0c:	f7ff fdf5 	bl	80035fa <mini_itoa>
 8003a10:	65b8      	str	r0, [r7, #88]	; 0x58
 8003a12:	e01e      	b.n	8003a52 <mini_vpprintf+0x1ce>
					} else {
						if(ch == 'u') {
 8003a14:	7dfb      	ldrb	r3, [r7, #23]
 8003a16:	2b75      	cmp	r3, #117	; 0x75
 8003a18:	d10e      	bne.n	8003a38 <mini_vpprintf+0x1b4>
							len = mini_itoa((unsigned long) va_arg(va, unsigned int), 10, 0, 1, bf2);
 8003a1a:	683b      	ldr	r3, [r7, #0]
 8003a1c:	1d1a      	adds	r2, r3, #4
 8003a1e:	603a      	str	r2, [r7, #0]
 8003a20:	681b      	ldr	r3, [r3, #0]
 8003a22:	4618      	mov	r0, r3
 8003a24:	f107 0318 	add.w	r3, r7, #24
 8003a28:	9300      	str	r3, [sp, #0]
 8003a2a:	2301      	movs	r3, #1
 8003a2c:	2200      	movs	r2, #0
 8003a2e:	210a      	movs	r1, #10
 8003a30:	f7ff fde3 	bl	80035fa <mini_itoa>
 8003a34:	65b8      	str	r0, [r7, #88]	; 0x58
 8003a36:	e00c      	b.n	8003a52 <mini_vpprintf+0x1ce>
						} else {
							len = mini_itoa((long) va_arg(va, int), 10, 0, 0, bf2);
 8003a38:	683b      	ldr	r3, [r7, #0]
 8003a3a:	1d1a      	adds	r2, r3, #4
 8003a3c:	603a      	str	r2, [r7, #0]
 8003a3e:	6818      	ldr	r0, [r3, #0]
 8003a40:	f107 0318 	add.w	r3, r7, #24
 8003a44:	9300      	str	r3, [sp, #0]
 8003a46:	2300      	movs	r3, #0
 8003a48:	2200      	movs	r2, #0
 8003a4a:	210a      	movs	r1, #10
 8003a4c:	f7ff fdd5 	bl	80035fa <mini_itoa>
 8003a50:	65b8      	str	r0, [r7, #88]	; 0x58
						}
					}
					len = mini_pad(bf2, len, pad_char, pad_to, bf);
 8003a52:	f897 2057 	ldrb.w	r2, [r7, #87]	; 0x57
 8003a56:	f107 0018 	add.w	r0, r7, #24
 8003a5a:	f107 0330 	add.w	r3, r7, #48	; 0x30
 8003a5e:	9300      	str	r3, [sp, #0]
 8003a60:	6d3b      	ldr	r3, [r7, #80]	; 0x50
 8003a62:	6db9      	ldr	r1, [r7, #88]	; 0x58
 8003a64:	f7ff fe48 	bl	80036f8 <mini_pad>
 8003a68:	65b8      	str	r0, [r7, #88]	; 0x58
					len = puts(bf, len, buf);
 8003a6a:	f107 0030 	add.w	r0, r7, #48	; 0x30
 8003a6e:	68fb      	ldr	r3, [r7, #12]
 8003a70:	68ba      	ldr	r2, [r7, #8]
 8003a72:	6db9      	ldr	r1, [r7, #88]	; 0x58
 8003a74:	4798      	blx	r3
 8003a76:	65b8      	str	r0, [r7, #88]	; 0x58
					break;
 8003a78:	e08d      	b.n	8003b96 <mini_vpprintf+0x312>

				case 'x':
				case 'X':
					if(l) {
 8003a7a:	f897 304f 	ldrb.w	r3, [r7, #79]	; 0x4f
 8003a7e:	2b00      	cmp	r3, #0
 8003a80:	d014      	beq.n	8003aac <mini_vpprintf+0x228>
						len = mini_itoa(va_arg(va, unsigned long), 16, (ch=='X'), 1, bf2);
 8003a82:	683b      	ldr	r3, [r7, #0]
 8003a84:	1d1a      	adds	r2, r3, #4
 8003a86:	603a      	str	r2, [r7, #0]
 8003a88:	681b      	ldr	r3, [r3, #0]
 8003a8a:	4618      	mov	r0, r3
 8003a8c:	7dfb      	ldrb	r3, [r7, #23]
 8003a8e:	2b58      	cmp	r3, #88	; 0x58
 8003a90:	bf0c      	ite	eq
 8003a92:	2301      	moveq	r3, #1
 8003a94:	2300      	movne	r3, #0
 8003a96:	b2db      	uxtb	r3, r3
 8003a98:	461a      	mov	r2, r3
 8003a9a:	f107 0318 	add.w	r3, r7, #24
 8003a9e:	9300      	str	r3, [sp, #0]
 8003aa0:	2301      	movs	r3, #1
 8003aa2:	2110      	movs	r1, #16
 8003aa4:	f7ff fda9 	bl	80035fa <mini_itoa>
 8003aa8:	65b8      	str	r0, [r7, #88]	; 0x58
 8003aaa:	e013      	b.n	8003ad4 <mini_vpprintf+0x250>
					} else {
						len = mini_itoa((unsigned long) va_arg(va, unsigned int), 16, (ch=='X'), 1, bf2);
 8003aac:	683b      	ldr	r3, [r7, #0]
 8003aae:	1d1a      	adds	r2, r3, #4
 8003ab0:	603a      	str	r2, [r7, #0]
 8003ab2:	681b      	ldr	r3, [r3, #0]
 8003ab4:	4618      	mov	r0, r3
 8003ab6:	7dfb      	ldrb	r3, [r7, #23]
 8003ab8:	2b58      	cmp	r3, #88	; 0x58
 8003aba:	bf0c      	ite	eq
 8003abc:	2301      	moveq	r3, #1
 8003abe:	2300      	movne	r3, #0
 8003ac0:	b2db      	uxtb	r3, r3
 8003ac2:	461a      	mov	r2, r3
 8003ac4:	f107 0318 	add.w	r3, r7, #24
 8003ac8:	9300      	str	r3, [sp, #0]
 8003aca:	2301      	movs	r3, #1
 8003acc:	2110      	movs	r1, #16
 8003ace:	f7ff fd94 	bl	80035fa <mini_itoa>
 8003ad2:	65b8      	str	r0, [r7, #88]	; 0x58
					}
					len = mini_pad(bf2, len, pad_char, pad_to, bf);
 8003ad4:	f897 2057 	ldrb.w	r2, [r7, #87]	; 0x57
 8003ad8:	f107 0018 	add.w	r0, r7, #24
 8003adc:	f107 0330 	add.w	r3, r7, #48	; 0x30
 8003ae0:	9300      	str	r3, [sp, #0]
 8003ae2:	6d3b      	ldr	r3, [r7, #80]	; 0x50
 8003ae4:	6db9      	ldr	r1, [r7, #88]	; 0x58
 8003ae6:	f7ff fe07 	bl	80036f8 <mini_pad>
 8003aea:	65b8      	str	r0, [r7, #88]	; 0x58
					len = puts(bf, len, buf);
 8003aec:	f107 0030 	add.w	r0, r7, #48	; 0x30
 8003af0:	68fb      	ldr	r3, [r7, #12]
 8003af2:	68ba      	ldr	r2, [r7, #8]
 8003af4:	6db9      	ldr	r1, [r7, #88]	; 0x58
 8003af6:	4798      	blx	r3
 8003af8:	65b8      	str	r0, [r7, #88]	; 0x58
					break;
 8003afa:	e04c      	b.n	8003b96 <mini_vpprintf+0x312>

				case 'c' :
					ch = (char)(va_arg(va, int));
 8003afc:	683b      	ldr	r3, [r7, #0]
 8003afe:	1d1a      	adds	r2, r3, #4
 8003b00:	603a      	str	r2, [r7, #0]
 8003b02:	681b      	ldr	r3, [r3, #0]
 8003b04:	b2db      	uxtb	r3, r3
 8003b06:	75fb      	strb	r3, [r7, #23]
					len = mini_pad(&ch, 1, pad_char, pad_to, bf);
 8003b08:	f897 2057 	ldrb.w	r2, [r7, #87]	; 0x57
 8003b0c:	f107 0017 	add.w	r0, r7, #23
 8003b10:	f107 0330 	add.w	r3, r7, #48	; 0x30
 8003b14:	9300      	str	r3, [sp, #0]
 8003b16:	6d3b      	ldr	r3, [r7, #80]	; 0x50
 8003b18:	2101      	movs	r1, #1
 8003b1a:	f7ff fded 	bl	80036f8 <mini_pad>
 8003b1e:	65b8      	str	r0, [r7, #88]	; 0x58
					len = puts(bf, len, buf);
 8003b20:	f107 0030 	add.w	r0, r7, #48	; 0x30
 8003b24:	68fb      	ldr	r3, [r7, #12]
 8003b26:	68ba      	ldr	r2, [r7, #8]
 8003b28:	6db9      	ldr	r1, [r7, #88]	; 0x58
 8003b2a:	4798      	blx	r3
 8003b2c:	65b8      	str	r0, [r7, #88]	; 0x58
					break;
 8003b2e:	e032      	b.n	8003b96 <mini_vpprintf+0x312>

				case 's' :
					ptr = va_arg(va, char*);
 8003b30:	683b      	ldr	r3, [r7, #0]
 8003b32:	1d1a      	adds	r2, r3, #4
 8003b34:	603a      	str	r2, [r7, #0]
 8003b36:	681b      	ldr	r3, [r3, #0]
 8003b38:	64bb      	str	r3, [r7, #72]	; 0x48
					len = mini_strlen(ptr);
 8003b3a:	6cb8      	ldr	r0, [r7, #72]	; 0x48
 8003b3c:	f7ff fd47 	bl	80035ce <mini_strlen>
 8003b40:	65b8      	str	r0, [r7, #88]	; 0x58
					if (pad_to > 0) {
 8003b42:	6d3b      	ldr	r3, [r7, #80]	; 0x50
 8003b44:	2b00      	cmp	r3, #0
 8003b46:	dd15      	ble.n	8003b74 <mini_vpprintf+0x2f0>
						len = mini_pad(ptr, len, pad_char, pad_to, bf);
 8003b48:	f897 2057 	ldrb.w	r2, [r7, #87]	; 0x57
 8003b4c:	f107 0330 	add.w	r3, r7, #48	; 0x30
 8003b50:	9300      	str	r3, [sp, #0]
 8003b52:	6d3b      	ldr	r3, [r7, #80]	; 0x50
 8003b54:	6db9      	ldr	r1, [r7, #88]	; 0x58
 8003b56:	6cb8      	ldr	r0, [r7, #72]	; 0x48
 8003b58:	f7ff fdce 	bl	80036f8 <mini_pad>
 8003b5c:	65b8      	str	r0, [r7, #88]	; 0x58
						len = puts(bf, len, buf);
 8003b5e:	f107 0030 	add.w	r0, r7, #48	; 0x30
 8003b62:	68fb      	ldr	r3, [r7, #12]
 8003b64:	68ba      	ldr	r2, [r7, #8]
 8003b66:	6db9      	ldr	r1, [r7, #88]	; 0x58
 8003b68:	4798      	blx	r3
 8003b6a:	65b8      	str	r0, [r7, #88]	; 0x58
					} else {
						len = puts(ptr, len, buf);
					}
					break;
 8003b6c:	e013      	b.n	8003b96 <mini_vpprintf+0x312>
 8003b6e:	bf00      	nop
 8003b70:	080037ad 	.word	0x080037ad
						len = puts(ptr, len, buf);
 8003b74:	68fb      	ldr	r3, [r7, #12]
 8003b76:	68ba      	ldr	r2, [r7, #8]
 8003b78:	6db9      	ldr	r1, [r7, #88]	; 0x58
 8003b7a:	6cb8      	ldr	r0, [r7, #72]	; 0x48
 8003b7c:	4798      	blx	r3
 8003b7e:	65b8      	str	r0, [r7, #88]	; 0x58
					break;
 8003b80:	e009      	b.n	8003b96 <mini_vpprintf+0x312>
					}
					mini_handler_freeor(mini_handler_data, ptr);
					break;
#endif
				default:
					len = 1;
 8003b82:	2301      	movs	r3, #1
 8003b84:	65bb      	str	r3, [r7, #88]	; 0x58
					len = puts(&ch, len, buf);
 8003b86:	f107 0017 	add.w	r0, r7, #23
 8003b8a:	68fb      	ldr	r3, [r7, #12]
 8003b8c:	68ba      	ldr	r2, [r7, #8]
 8003b8e:	6db9      	ldr	r1, [r7, #88]	; 0x58
 8003b90:	4798      	blx	r3
 8003b92:	65b8      	str	r0, [r7, #88]	; 0x58
					break;
 8003b94:	bf00      	nop
			}
		}
		n = n + len;
 8003b96:	6dfa      	ldr	r2, [r7, #92]	; 0x5c
 8003b98:	6dbb      	ldr	r3, [r7, #88]	; 0x58
 8003b9a:	4413      	add	r3, r2
 8003b9c:	65fb      	str	r3, [r7, #92]	; 0x5c
	while ((ch=*(fmt++))) {
 8003b9e:	687b      	ldr	r3, [r7, #4]
 8003ba0:	1c5a      	adds	r2, r3, #1
 8003ba2:	607a      	str	r2, [r7, #4]
 8003ba4:	781b      	ldrb	r3, [r3, #0]
 8003ba6:	75fb      	strb	r3, [r7, #23]
 8003ba8:	7dfb      	ldrb	r3, [r7, #23]
 8003baa:	2b00      	cmp	r3, #0
 8003bac:	f47f ae7b 	bne.w	80038a6 <mini_vpprintf+0x22>
	}
end:
 8003bb0:	e000      	b.n	8003bb4 <mini_vpprintf+0x330>
					goto end;
 8003bb2:	bf00      	nop
	return n;
 8003bb4:	6dfb      	ldr	r3, [r7, #92]	; 0x5c
}
 8003bb6:	4618      	mov	r0, r3
 8003bb8:	3760      	adds	r7, #96	; 0x60
 8003bba:	46bd      	mov	sp, r7
 8003bbc:	bd80      	pop	{r7, pc}
 8003bbe:	bf00      	nop

08003bc0 <mini_snprintf>:


int
mini_snprintf(char* buffer, unsigned int buffer_len, const char *fmt, ...)
{
 8003bc0:	b40c      	push	{r2, r3}
 8003bc2:	b580      	push	{r7, lr}
 8003bc4:	b084      	sub	sp, #16
 8003bc6:	af00      	add	r7, sp, #0
 8003bc8:	6078      	str	r0, [r7, #4]
 8003bca:	6039      	str	r1, [r7, #0]
	int ret;
	va_list va;
	va_start(va, fmt);
 8003bcc:	f107 031c 	add.w	r3, r7, #28
 8003bd0:	60bb      	str	r3, [r7, #8]
	ret = mini_vsnprintf(buffer, buffer_len, fmt, va);
 8003bd2:	68bb      	ldr	r3, [r7, #8]
 8003bd4:	69ba      	ldr	r2, [r7, #24]
 8003bd6:	6839      	ldr	r1, [r7, #0]
 8003bd8:	6878      	ldr	r0, [r7, #4]
 8003bda:	f7ff fe25 	bl	8003828 <mini_vsnprintf>
 8003bde:	60f8      	str	r0, [r7, #12]
	va_end(va);

	return ret;
 8003be0:	68fb      	ldr	r3, [r7, #12]
}
 8003be2:	4618      	mov	r0, r3
 8003be4:	3710      	adds	r7, #16
 8003be6:	46bd      	mov	sp, r7
 8003be8:	e8bd 4080 	ldmia.w	sp!, {r7, lr}
 8003bec:	b002      	add	sp, #8
 8003bee:	4770      	bx	lr

08003bf0 <HAL_MspInit>:
/* USER CODE END 0 */
/**
  * Initializes the Global MSP.
  */
void HAL_MspInit(void)
{
 8003bf0:	b480      	push	{r7}
 8003bf2:	b085      	sub	sp, #20
 8003bf4:	af00      	add	r7, sp, #0
  /* USER CODE BEGIN MspInit 0 */

  /* USER CODE END MspInit 0 */

  __HAL_RCC_AFIO_CLK_ENABLE();
 8003bf6:	4b15      	ldr	r3, [pc, #84]	; (8003c4c <HAL_MspInit+0x5c>)
 8003bf8:	699b      	ldr	r3, [r3, #24]
 8003bfa:	4a14      	ldr	r2, [pc, #80]	; (8003c4c <HAL_MspInit+0x5c>)
 8003bfc:	f043 0301 	orr.w	r3, r3, #1
 8003c00:	6193      	str	r3, [r2, #24]
 8003c02:	4b12      	ldr	r3, [pc, #72]	; (8003c4c <HAL_MspInit+0x5c>)
 8003c04:	699b      	ldr	r3, [r3, #24]
 8003c06:	f003 0301 	and.w	r3, r3, #1
 8003c0a:	60bb      	str	r3, [r7, #8]
 8003c0c:	68bb      	ldr	r3, [r7, #8]
  __HAL_RCC_PWR_CLK_ENABLE();
 8003c0e:	4b0f      	ldr	r3, [pc, #60]	; (8003c4c <HAL_MspInit+0x5c>)
 8003c10:	69db      	ldr	r3, [r3, #28]
 8003c12:	4a0e      	ldr	r2, [pc, #56]	; (8003c4c <HAL_MspInit+0x5c>)
 8003c14:	f043 5380 	orr.w	r3, r3, #268435456	; 0x10000000
 8003c18:	61d3      	str	r3, [r2, #28]
 8003c1a:	4b0c      	ldr	r3, [pc, #48]	; (8003c4c <HAL_MspInit+0x5c>)
 8003c1c:	69db      	ldr	r3, [r3, #28]
 8003c1e:	f003 5380 	and.w	r3, r3, #268435456	; 0x10000000
 8003c22:	607b      	str	r3, [r7, #4]
 8003c24:	687b      	ldr	r3, [r7, #4]

  /* System interrupt init*/

  /** NOJTAG: JTAG-DP Disabled and SW-DP Enabled
  */
  __HAL_AFIO_REMAP_SWJ_NOJTAG();
 8003c26:	4b0a      	ldr	r3, [pc, #40]	; (8003c50 <HAL_MspInit+0x60>)
 8003c28:	685b      	ldr	r3, [r3, #4]
 8003c2a:	60fb      	str	r3, [r7, #12]
 8003c2c:	68fb      	ldr	r3, [r7, #12]
 8003c2e:	f023 63e0 	bic.w	r3, r3, #117440512	; 0x7000000
 8003c32:	60fb      	str	r3, [r7, #12]
 8003c34:	68fb      	ldr	r3, [r7, #12]
 8003c36:	f043 7300 	orr.w	r3, r3, #33554432	; 0x2000000
 8003c3a:	60fb      	str	r3, [r7, #12]
 8003c3c:	4a04      	ldr	r2, [pc, #16]	; (8003c50 <HAL_MspInit+0x60>)
 8003c3e:	68fb      	ldr	r3, [r7, #12]
 8003c40:	6053      	str	r3, [r2, #4]

  /* USER CODE BEGIN MspInit 1 */

  /* USER CODE END MspInit 1 */
}
 8003c42:	bf00      	nop
 8003c44:	3714      	adds	r7, #20
 8003c46:	46bd      	mov	sp, r7
 8003c48:	bc80      	pop	{r7}
 8003c4a:	4770      	bx	lr
 8003c4c:	40021000 	.word	0x40021000
 8003c50:	40010000 	.word	0x40010000

08003c54 <HAL_SPI_MspInit>:
* This function configures the hardware resources used in this example
* @param hspi: SPI handle pointer
* @retval None
*/
void HAL_SPI_MspInit(SPI_HandleTypeDef* hspi)
{
 8003c54:	b580      	push	{r7, lr}
 8003c56:	b088      	sub	sp, #32
 8003c58:	af00      	add	r7, sp, #0
 8003c5a:	6078      	str	r0, [r7, #4]
  GPIO_InitTypeDef GPIO_InitStruct = {0};
 8003c5c:	f107 0310 	add.w	r3, r7, #16
 8003c60:	2200      	movs	r2, #0
 8003c62:	601a      	str	r2, [r3, #0]
 8003c64:	605a      	str	r2, [r3, #4]
 8003c66:	609a      	str	r2, [r3, #8]
 8003c68:	60da      	str	r2, [r3, #12]
  if(hspi->Instance==SPI1)
 8003c6a:	687b      	ldr	r3, [r7, #4]
 8003c6c:	681b      	ldr	r3, [r3, #0]
 8003c6e:	4a1b      	ldr	r2, [pc, #108]	; (8003cdc <HAL_SPI_MspInit+0x88>)
 8003c70:	4293      	cmp	r3, r2
 8003c72:	d12f      	bne.n	8003cd4 <HAL_SPI_MspInit+0x80>
  {
  /* USER CODE BEGIN SPI1_MspInit 0 */

  /* USER CODE END SPI1_MspInit 0 */
    /* Peripheral clock enable */
    __HAL_RCC_SPI1_CLK_ENABLE();
 8003c74:	4b1a      	ldr	r3, [pc, #104]	; (8003ce0 <HAL_SPI_MspInit+0x8c>)
 8003c76:	699b      	ldr	r3, [r3, #24]
 8003c78:	4a19      	ldr	r2, [pc, #100]	; (8003ce0 <HAL_SPI_MspInit+0x8c>)
 8003c7a:	f443 5380 	orr.w	r3, r3, #4096	; 0x1000
 8003c7e:	6193      	str	r3, [r2, #24]
 8003c80:	4b17      	ldr	r3, [pc, #92]	; (8003ce0 <HAL_SPI_MspInit+0x8c>)
 8003c82:	699b      	ldr	r3, [r3, #24]
 8003c84:	f403 5380 	and.w	r3, r3, #4096	; 0x1000
 8003c88:	60fb      	str	r3, [r7, #12]
 8003c8a:	68fb      	ldr	r3, [r7, #12]

    __HAL_RCC_GPIOA_CLK_ENABLE();
 8003c8c:	4b14      	ldr	r3, [pc, #80]	; (8003ce0 <HAL_SPI_MspInit+0x8c>)
 8003c8e:	699b      	ldr	r3, [r3, #24]
 8003c90:	4a13      	ldr	r2, [pc, #76]	; (8003ce0 <HAL_SPI_MspInit+0x8c>)
 8003c92:	f043 0304 	orr.w	r3, r3, #4
 8003c96:	6193      	str	r3, [r2, #24]
 8003c98:	4b11      	ldr	r3, [pc, #68]	; (8003ce0 <HAL_SPI_MspInit+0x8c>)
 8003c9a:	699b      	ldr	r3, [r3, #24]
 8003c9c:	f003 0304 	and.w	r3, r3, #4
 8003ca0:	60bb      	str	r3, [r7, #8]
 8003ca2:	68bb      	ldr	r3, [r7, #8]
    /**SPI1 GPIO Configuration
    PA5     ------> SPI1_SCK
    PA6     ------> SPI1_MISO
    PA7     ------> SPI1_MOSI
    */
    GPIO_InitStruct.Pin = GPIO_PIN_5|GPIO_PIN_7;
 8003ca4:	23a0      	movs	r3, #160	; 0xa0
 8003ca6:	613b      	str	r3, [r7, #16]
    GPIO_InitStruct.Mode = GPIO_MODE_AF_PP;
 8003ca8:	2302      	movs	r3, #2
 8003caa:	617b      	str	r3, [r7, #20]
    GPIO_InitStruct.Speed = GPIO_SPEED_FREQ_HIGH;
 8003cac:	2303      	movs	r3, #3
 8003cae:	61fb      	str	r3, [r7, #28]
    HAL_GPIO_Init(GPIOA, &GPIO_InitStruct);
 8003cb0:	f107 0310 	add.w	r3, r7, #16
 8003cb4:	4619      	mov	r1, r3
 8003cb6:	480b      	ldr	r0, [pc, #44]	; (8003ce4 <HAL_SPI_MspInit+0x90>)
 8003cb8:	f002 fed0 	bl	8006a5c <HAL_GPIO_Init>

    GPIO_InitStruct.Pin = GPIO_PIN_6;
 8003cbc:	2340      	movs	r3, #64	; 0x40
 8003cbe:	613b      	str	r3, [r7, #16]
    GPIO_InitStruct.Mode = GPIO_MODE_INPUT;
 8003cc0:	2300      	movs	r3, #0
 8003cc2:	617b      	str	r3, [r7, #20]
    GPIO_InitStruct.Pull = GPIO_NOPULL;
 8003cc4:	2300      	movs	r3, #0
 8003cc6:	61bb      	str	r3, [r7, #24]
    HAL_GPIO_Init(GPIOA, &GPIO_InitStruct);
 8003cc8:	f107 0310 	add.w	r3, r7, #16
 8003ccc:	4619      	mov	r1, r3
 8003cce:	4805      	ldr	r0, [pc, #20]	; (8003ce4 <HAL_SPI_MspInit+0x90>)
 8003cd0:	f002 fec4 	bl	8006a5c <HAL_GPIO_Init>
  /* USER CODE BEGIN SPI1_MspInit 1 */

  /* USER CODE END SPI1_MspInit 1 */
  }

}
 8003cd4:	bf00      	nop
 8003cd6:	3720      	adds	r7, #32
 8003cd8:	46bd      	mov	sp, r7
 8003cda:	bd80      	pop	{r7, pc}
 8003cdc:	40013000 	.word	0x40013000
 8003ce0:	40021000 	.word	0x40021000
 8003ce4:	40010800 	.word	0x40010800

08003ce8 <HAL_UART_MspInit>:
* This function configures the hardware resources used in this example
* @param huart: UART handle pointer
* @retval None
*/
void HAL_UART_MspInit(UART_HandleTypeDef* huart)
{
 8003ce8:	b580      	push	{r7, lr}
 8003cea:	b08a      	sub	sp, #40	; 0x28
 8003cec:	af00      	add	r7, sp, #0
 8003cee:	6078      	str	r0, [r7, #4]
  GPIO_InitTypeDef GPIO_InitStruct = {0};
 8003cf0:	f107 0318 	add.w	r3, r7, #24
 8003cf4:	2200      	movs	r2, #0
 8003cf6:	601a      	str	r2, [r3, #0]
 8003cf8:	605a      	str	r2, [r3, #4]
 8003cfa:	609a      	str	r2, [r3, #8]
 8003cfc:	60da      	str	r2, [r3, #12]
  if(huart->Instance==USART1)
 8003cfe:	687b      	ldr	r3, [r7, #4]
 8003d00:	681b      	ldr	r3, [r3, #0]
 8003d02:	4a36      	ldr	r2, [pc, #216]	; (8003ddc <HAL_UART_MspInit+0xf4>)
 8003d04:	4293      	cmp	r3, r2
 8003d06:	d132      	bne.n	8003d6e <HAL_UART_MspInit+0x86>
  {
  /* USER CODE BEGIN USART1_MspInit 0 */

  /* USER CODE END USART1_MspInit 0 */
    /* Peripheral clock enable */
    __HAL_RCC_USART1_CLK_ENABLE();
 8003d08:	4b35      	ldr	r3, [pc, #212]	; (8003de0 <HAL_UART_MspInit+0xf8>)
 8003d0a:	699b      	ldr	r3, [r3, #24]
 8003d0c:	4a34      	ldr	r2, [pc, #208]	; (8003de0 <HAL_UART_MspInit+0xf8>)
 8003d0e:	f443 4380 	orr.w	r3, r3, #16384	; 0x4000
 8003d12:	6193      	str	r3, [r2, #24]
 8003d14:	4b32      	ldr	r3, [pc, #200]	; (8003de0 <HAL_UART_MspInit+0xf8>)
 8003d16:	699b      	ldr	r3, [r3, #24]
 8003d18:	f403 4380 	and.w	r3, r3, #16384	; 0x4000
 8003d1c:	617b      	str	r3, [r7, #20]
 8003d1e:	697b      	ldr	r3, [r7, #20]

    __HAL_RCC_GPIOA_CLK_ENABLE();
 8003d20:	4b2f      	ldr	r3, [pc, #188]	; (8003de0 <HAL_UART_MspInit+0xf8>)
 8003d22:	699b      	ldr	r3, [r3, #24]
 8003d24:	4a2e      	ldr	r2, [pc, #184]	; (8003de0 <HAL_UART_MspInit+0xf8>)
 8003d26:	f043 0304 	orr.w	r3, r3, #4
 8003d2a:	6193      	str	r3, [r2, #24]
 8003d2c:	4b2c      	ldr	r3, [pc, #176]	; (8003de0 <HAL_UART_MspInit+0xf8>)
 8003d2e:	699b      	ldr	r3, [r3, #24]
 8003d30:	f003 0304 	and.w	r3, r3, #4
 8003d34:	613b      	str	r3, [r7, #16]
 8003d36:	693b      	ldr	r3, [r7, #16]
    /**USART1 GPIO Configuration
    PA9     ------> USART1_TX
    PA10     ------> USART1_RX
    */
    GPIO_InitStruct.Pin = GPIO_PIN_9;
 8003d38:	f44f 7300 	mov.w	r3, #512	; 0x200
 8003d3c:	61bb      	str	r3, [r7, #24]
    GPIO_InitStruct.Mode = GPIO_MODE_AF_PP;
 8003d3e:	2302      	movs	r3, #2
 8003d40:	61fb      	str	r3, [r7, #28]
    GPIO_InitStruct.Speed = GPIO_SPEED_FREQ_HIGH;
 8003d42:	2303      	movs	r3, #3
 8003d44:	627b      	str	r3, [r7, #36]	; 0x24
    HAL_GPIO_Init(GPIOA, &GPIO_InitStruct);
 8003d46:	f107 0318 	add.w	r3, r7, #24
 8003d4a:	4619      	mov	r1, r3
 8003d4c:	4825      	ldr	r0, [pc, #148]	; (8003de4 <HAL_UART_MspInit+0xfc>)
 8003d4e:	f002 fe85 	bl	8006a5c <HAL_GPIO_Init>

    GPIO_InitStruct.Pin = GPIO_PIN_10;
 8003d52:	f44f 6380 	mov.w	r3, #1024	; 0x400
 8003d56:	61bb      	str	r3, [r7, #24]
    GPIO_InitStruct.Mode = GPIO_MODE_INPUT;
 8003d58:	2300      	movs	r3, #0
 8003d5a:	61fb      	str	r3, [r7, #28]
    GPIO_InitStruct.Pull = GPIO_NOPULL;
 8003d5c:	2300      	movs	r3, #0
 8003d5e:	623b      	str	r3, [r7, #32]
    HAL_GPIO_Init(GPIOA, &GPIO_InitStruct);
 8003d60:	f107 0318 	add.w	r3, r7, #24
 8003d64:	4619      	mov	r1, r3
 8003d66:	481f      	ldr	r0, [pc, #124]	; (8003de4 <HAL_UART_MspInit+0xfc>)
 8003d68:	f002 fe78 	bl	8006a5c <HAL_GPIO_Init>
  /* USER CODE BEGIN USART3_MspInit 1 */

  /* USER CODE END USART3_MspInit 1 */
  }

}
 8003d6c:	e031      	b.n	8003dd2 <HAL_UART_MspInit+0xea>
  else if(huart->Instance==USART3)
 8003d6e:	687b      	ldr	r3, [r7, #4]
 8003d70:	681b      	ldr	r3, [r3, #0]
 8003d72:	4a1d      	ldr	r2, [pc, #116]	; (8003de8 <HAL_UART_MspInit+0x100>)
 8003d74:	4293      	cmp	r3, r2
 8003d76:	d12c      	bne.n	8003dd2 <HAL_UART_MspInit+0xea>
    __HAL_RCC_USART3_CLK_ENABLE();
 8003d78:	4b19      	ldr	r3, [pc, #100]	; (8003de0 <HAL_UART_MspInit+0xf8>)
 8003d7a:	69db      	ldr	r3, [r3, #28]
 8003d7c:	4a18      	ldr	r2, [pc, #96]	; (8003de0 <HAL_UART_MspInit+0xf8>)
 8003d7e:	f443 2380 	orr.w	r3, r3, #262144	; 0x40000
 8003d82:	61d3      	str	r3, [r2, #28]
 8003d84:	4b16      	ldr	r3, [pc, #88]	; (8003de0 <HAL_UART_MspInit+0xf8>)
 8003d86:	69db      	ldr	r3, [r3, #28]
 8003d88:	f403 2380 	and.w	r3, r3, #262144	; 0x40000
 8003d8c:	60fb      	str	r3, [r7, #12]
 8003d8e:	68fb      	ldr	r3, [r7, #12]
    __HAL_RCC_GPIOB_CLK_ENABLE();
 8003d90:	4b13      	ldr	r3, [pc, #76]	; (8003de0 <HAL_UART_MspInit+0xf8>)
 8003d92:	699b      	ldr	r3, [r3, #24]
 8003d94:	4a12      	ldr	r2, [pc, #72]	; (8003de0 <HAL_UART_MspInit+0xf8>)
 8003d96:	f043 0308 	orr.w	r3, r3, #8
 8003d9a:	6193      	str	r3, [r2, #24]
 8003d9c:	4b10      	ldr	r3, [pc, #64]	; (8003de0 <HAL_UART_MspInit+0xf8>)
 8003d9e:	699b      	ldr	r3, [r3, #24]
 8003da0:	f003 0308 	and.w	r3, r3, #8
 8003da4:	60bb      	str	r3, [r7, #8]
 8003da6:	68bb      	ldr	r3, [r7, #8]
    GPIO_InitStruct.Pin = GPIO_PIN_10;
 8003da8:	f44f 6380 	mov.w	r3, #1024	; 0x400
 8003dac:	61bb      	str	r3, [r7, #24]
    GPIO_InitStruct.Mode = GPIO_MODE_AF_OD;
 8003dae:	2312      	movs	r3, #18
 8003db0:	61fb      	str	r3, [r7, #28]
    GPIO_InitStruct.Speed = GPIO_SPEED_FREQ_HIGH;
 8003db2:	2303      	movs	r3, #3
 8003db4:	627b      	str	r3, [r7, #36]	; 0x24
    HAL_GPIO_Init(GPIOB, &GPIO_InitStruct);
 8003db6:	f107 0318 	add.w	r3, r7, #24
 8003dba:	4619      	mov	r1, r3
 8003dbc:	480b      	ldr	r0, [pc, #44]	; (8003dec <HAL_UART_MspInit+0x104>)
 8003dbe:	f002 fe4d 	bl	8006a5c <HAL_GPIO_Init>
    HAL_NVIC_SetPriority(USART3_IRQn, 0, 0);
 8003dc2:	2200      	movs	r2, #0
 8003dc4:	2100      	movs	r1, #0
 8003dc6:	2027      	movs	r0, #39	; 0x27
 8003dc8:	f002 fd61 	bl	800688e <HAL_NVIC_SetPriority>
    HAL_NVIC_EnableIRQ(USART3_IRQn);
 8003dcc:	2027      	movs	r0, #39	; 0x27
 8003dce:	f002 fd7a 	bl	80068c6 <HAL_NVIC_EnableIRQ>
}
 8003dd2:	bf00      	nop
 8003dd4:	3728      	adds	r7, #40	; 0x28
 8003dd6:	46bd      	mov	sp, r7
 8003dd8:	bd80      	pop	{r7, pc}
 8003dda:	bf00      	nop
 8003ddc:	40013800 	.word	0x40013800
 8003de0:	40021000 	.word	0x40021000
 8003de4:	40010800 	.word	0x40010800
 8003de8:	40004800 	.word	0x40004800
 8003dec:	40010c00 	.word	0x40010c00

08003df0 <NMI_Handler>:
/******************************************************************************/
/**
  * @brief This function handles Non maskable interrupt.
  */
void NMI_Handler(void)
{
 8003df0:	b480      	push	{r7}
 8003df2:	af00      	add	r7, sp, #0
  /* USER CODE BEGIN NonMaskableInt_IRQn 0 */

  /* USER CODE END NonMaskableInt_IRQn 0 */
  /* USER CODE BEGIN NonMaskableInt_IRQn 1 */
  while (1)
 8003df4:	e7fe      	b.n	8003df4 <NMI_Handler+0x4>

08003df6 <HardFault_Handler>:

/**
  * @brief This function handles Hard fault interrupt.
  */
void HardFault_Handler(void)
{
 8003df6:	b480      	push	{r7}
 8003df8:	af00      	add	r7, sp, #0
  /* USER CODE BEGIN HardFault_IRQn 0 */

  /* USER CODE END HardFault_IRQn 0 */
  while (1)
 8003dfa:	e7fe      	b.n	8003dfa <HardFault_Handler+0x4>

08003dfc <MemManage_Handler>:

/**
  * @brief This function handles Memory management fault.
  */
void MemManage_Handler(void)
{
 8003dfc:	b480      	push	{r7}
 8003dfe:	af00      	add	r7, sp, #0
  /* USER CODE BEGIN MemoryManagement_IRQn 0 */

  /* USER CODE END MemoryManagement_IRQn 0 */
  while (1)
 8003e00:	e7fe      	b.n	8003e00 <MemManage_Handler+0x4>

08003e02 <BusFault_Handler>:

/**
  * @brief This function handles Prefetch fault, memory access fault.
  */
void BusFault_Handler(void)
{
 8003e02:	b480      	push	{r7}
 8003e04:	af00      	add	r7, sp, #0
  /* USER CODE BEGIN BusFault_IRQn 0 */

  /* USER CODE END BusFault_IRQn 0 */
  while (1)
 8003e06:	e7fe      	b.n	8003e06 <BusFault_Handler+0x4>

08003e08 <UsageFault_Handler>:

/**
  * @brief This function handles Undefined instruction or illegal state.
  */
void UsageFault_Handler(void)
{
 8003e08:	b480      	push	{r7}
 8003e0a:	af00      	add	r7, sp, #0
  /* USER CODE BEGIN UsageFault_IRQn 0 */

  /* USER CODE END UsageFault_IRQn 0 */
  while (1)
 8003e0c:	e7fe      	b.n	8003e0c <UsageFault_Handler+0x4>

08003e0e <SVC_Handler>:

/**
  * @brief This function handles System service call via SWI instruction.
  */
void SVC_Handler(void)
{
 8003e0e:	b480      	push	{r7}
 8003e10:	af00      	add	r7, sp, #0

  /* USER CODE END SVCall_IRQn 0 */
  /* USER CODE BEGIN SVCall_IRQn 1 */

  /* USER CODE END SVCall_IRQn 1 */
}
 8003e12:	bf00      	nop
 8003e14:	46bd      	mov	sp, r7
 8003e16:	bc80      	pop	{r7}
 8003e18:	4770      	bx	lr

08003e1a <DebugMon_Handler>:

/**
  * @brief This function handles Debug monitor.
  */
void DebugMon_Handler(void)
{
 8003e1a:	b480      	push	{r7}
 8003e1c:	af00      	add	r7, sp, #0

  /* USER CODE END DebugMonitor_IRQn 0 */
  /* USER CODE BEGIN DebugMonitor_IRQn 1 */

  /* USER CODE END DebugMonitor_IRQn 1 */
}
 8003e1e:	bf00      	nop
 8003e20:	46bd      	mov	sp, r7
 8003e22:	bc80      	pop	{r7}
 8003e24:	4770      	bx	lr

08003e26 <PendSV_Handler>:

/**
  * @brief This function handles Pendable request for system service.
  */
void PendSV_Handler(void)
{
 8003e26:	b480      	push	{r7}
 8003e28:	af00      	add	r7, sp, #0

  /* USER CODE END PendSV_IRQn 0 */
  /* USER CODE BEGIN PendSV_IRQn 1 */

  /* USER CODE END PendSV_IRQn 1 */
}
 8003e2a:	bf00      	nop
 8003e2c:	46bd      	mov	sp, r7
 8003e2e:	bc80      	pop	{r7}
 8003e30:	4770      	bx	lr
	...

08003e34 <SysTick_Handler>:

/**
  * @brief This function handles System tick timer.
  */
void SysTick_Handler(void)
{
 8003e34:	b580      	push	{r7, lr}
 8003e36:	af00      	add	r7, sp, #0
  /* USER CODE BEGIN SysTick_IRQn 0 */

  /* USER CODE END SysTick_IRQn 0 */
  HAL_IncTick();
 8003e38:	f002 fc12 	bl	8006660 <HAL_IncTick>
  /* USER CODE BEGIN SysTick_IRQn 1 */
  Button_Loop();
 8003e3c:	f7fd fd1a 	bl	8001874 <Button_Loop>
  sys_timer++;
 8003e40:	4b03      	ldr	r3, [pc, #12]	; (8003e50 <SysTick_Handler+0x1c>)
 8003e42:	781b      	ldrb	r3, [r3, #0]
 8003e44:	3301      	adds	r3, #1
 8003e46:	b2da      	uxtb	r2, r3
 8003e48:	4b01      	ldr	r3, [pc, #4]	; (8003e50 <SysTick_Handler+0x1c>)
 8003e4a:	701a      	strb	r2, [r3, #0]
  /* USER CODE END SysTick_IRQn 1 */
}
 8003e4c:	bf00      	nop
 8003e4e:	bd80      	pop	{r7, pc}
 8003e50:	20000494 	.word	0x20000494

08003e54 <USART3_IRQHandler>:

/**
  * @brief This function handles USART3 global interrupt.
  */
void USART3_IRQHandler(void)
{
 8003e54:	b580      	push	{r7, lr}
 8003e56:	af00      	add	r7, sp, #0
  /* USER CODE BEGIN USART3_IRQn 0 */
	owReadHandler();
 8003e58:	f7fd f804 	bl	8000e64 <owReadHandler>
  /* USER CODE END USART3_IRQn 0 */
  HAL_UART_IRQHandler(&huart3);
 8003e5c:	4802      	ldr	r0, [pc, #8]	; (8003e68 <USART3_IRQHandler+0x14>)
 8003e5e:	f004 f9f1 	bl	8008244 <HAL_UART_IRQHandler>
  /* USER CODE BEGIN USART3_IRQn 1 */

  /* USER CODE END USART3_IRQn 1 */
}
 8003e62:	bf00      	nop
 8003e64:	bd80      	pop	{r7, pc}
 8003e66:	bf00      	nop
 8003e68:	20000b08 	.word	0x20000b08

08003e6c <SystemInit>:
  * @note   This function should be used only after reset.
  * @param  None
  * @retval None
  */
void SystemInit (void)
{
 8003e6c:	b480      	push	{r7}
 8003e6e:	af00      	add	r7, sp, #0

  /* Configure the Vector Table location -------------------------------------*/
#if defined(USER_VECT_TAB_ADDRESS)
  SCB->VTOR = VECT_TAB_BASE_ADDRESS | VECT_TAB_OFFSET; /* Vector Table Relocation in Internal SRAM. */
#endif /* USER_VECT_TAB_ADDRESS */
}
 8003e70:	bf00      	nop
 8003e72:	46bd      	mov	sp, r7
 8003e74:	bc80      	pop	{r7}
 8003e76:	4770      	bx	lr

08003e78 <u8g2_DrawHXBM>:
}



void u8g2_DrawHXBM(u8g2_t *u8g2, u8g2_uint_t x, u8g2_uint_t y, u8g2_uint_t len, const uint8_t *b)
{
 8003e78:	b580      	push	{r7, lr}
 8003e7a:	b088      	sub	sp, #32
 8003e7c:	af02      	add	r7, sp, #8
 8003e7e:	60f8      	str	r0, [r7, #12]
 8003e80:	4608      	mov	r0, r1
 8003e82:	4611      	mov	r1, r2
 8003e84:	461a      	mov	r2, r3
 8003e86:	4603      	mov	r3, r0
 8003e88:	817b      	strh	r3, [r7, #10]
 8003e8a:	460b      	mov	r3, r1
 8003e8c:	813b      	strh	r3, [r7, #8]
 8003e8e:	4613      	mov	r3, r2
 8003e90:	80fb      	strh	r3, [r7, #6]
  uint8_t mask;
  uint8_t color = u8g2->draw_color;
 8003e92:	68fb      	ldr	r3, [r7, #12]
 8003e94:	f893 3092 	ldrb.w	r3, [r3, #146]	; 0x92
 8003e98:	75bb      	strb	r3, [r7, #22]
  uint8_t ncolor = (color == 0 ? 1 : 0);
 8003e9a:	7dbb      	ldrb	r3, [r7, #22]
 8003e9c:	2b00      	cmp	r3, #0
 8003e9e:	bf0c      	ite	eq
 8003ea0:	2301      	moveq	r3, #1
 8003ea2:	2300      	movne	r3, #0
 8003ea4:	b2db      	uxtb	r3, r3
 8003ea6:	757b      	strb	r3, [r7, #21]
#ifdef U8G2_WITH_INTERSECTION
  if ( u8g2_IsIntersection(u8g2, x, y, x+len, y+1) == 0 ) 
 8003ea8:	897a      	ldrh	r2, [r7, #10]
 8003eaa:	88fb      	ldrh	r3, [r7, #6]
 8003eac:	4413      	add	r3, r2
 8003eae:	b298      	uxth	r0, r3
 8003eb0:	893b      	ldrh	r3, [r7, #8]
 8003eb2:	3301      	adds	r3, #1
 8003eb4:	b29b      	uxth	r3, r3
 8003eb6:	893a      	ldrh	r2, [r7, #8]
 8003eb8:	8979      	ldrh	r1, [r7, #10]
 8003eba:	9300      	str	r3, [sp, #0]
 8003ebc:	4603      	mov	r3, r0
 8003ebe:	68f8      	ldr	r0, [r7, #12]
 8003ec0:	f001 f93d 	bl	800513e <u8g2_IsIntersection>
 8003ec4:	4603      	mov	r3, r0
 8003ec6:	2b00      	cmp	r3, #0
 8003ec8:	d040      	beq.n	8003f4c <u8g2_DrawHXBM+0xd4>
    return;
#endif /* U8G2_WITH_INTERSECTION */
  
  mask = 1;
 8003eca:	2301      	movs	r3, #1
 8003ecc:	75fb      	strb	r3, [r7, #23]
  while(len > 0) {
 8003ece:	e035      	b.n	8003f3c <u8g2_DrawHXBM+0xc4>
    if ( *b & mask ) {
 8003ed0:	6a3b      	ldr	r3, [r7, #32]
 8003ed2:	781a      	ldrb	r2, [r3, #0]
 8003ed4:	7dfb      	ldrb	r3, [r7, #23]
 8003ed6:	4013      	ands	r3, r2
 8003ed8:	b2db      	uxtb	r3, r3
 8003eda:	2b00      	cmp	r3, #0
 8003edc:	d00c      	beq.n	8003ef8 <u8g2_DrawHXBM+0x80>
      u8g2->draw_color = color;
 8003ede:	68fb      	ldr	r3, [r7, #12]
 8003ee0:	7dba      	ldrb	r2, [r7, #22]
 8003ee2:	f883 2092 	strb.w	r2, [r3, #146]	; 0x92
      u8g2_DrawHVLine(u8g2, x, y, 1, 0);
 8003ee6:	893a      	ldrh	r2, [r7, #8]
 8003ee8:	8979      	ldrh	r1, [r7, #10]
 8003eea:	2300      	movs	r3, #0
 8003eec:	9300      	str	r3, [sp, #0]
 8003eee:	2301      	movs	r3, #1
 8003ef0:	68f8      	ldr	r0, [r7, #12]
 8003ef2:	f001 f837 	bl	8004f64 <u8g2_DrawHVLine>
 8003ef6:	e010      	b.n	8003f1a <u8g2_DrawHXBM+0xa2>
    } else if ( u8g2->bitmap_transparency == 0 ) {
 8003ef8:	68fb      	ldr	r3, [r7, #12]
 8003efa:	f893 3091 	ldrb.w	r3, [r3, #145]	; 0x91
 8003efe:	2b00      	cmp	r3, #0
 8003f00:	d10b      	bne.n	8003f1a <u8g2_DrawHXBM+0xa2>
      u8g2->draw_color = ncolor;
 8003f02:	68fb      	ldr	r3, [r7, #12]
 8003f04:	7d7a      	ldrb	r2, [r7, #21]
 8003f06:	f883 2092 	strb.w	r2, [r3, #146]	; 0x92
      u8g2_DrawHVLine(u8g2, x, y, 1, 0);
 8003f0a:	893a      	ldrh	r2, [r7, #8]
 8003f0c:	8979      	ldrh	r1, [r7, #10]
 8003f0e:	2300      	movs	r3, #0
 8003f10:	9300      	str	r3, [sp, #0]
 8003f12:	2301      	movs	r3, #1
 8003f14:	68f8      	ldr	r0, [r7, #12]
 8003f16:	f001 f825 	bl	8004f64 <u8g2_DrawHVLine>
    }
    x++;
 8003f1a:	897b      	ldrh	r3, [r7, #10]
 8003f1c:	3301      	adds	r3, #1
 8003f1e:	817b      	strh	r3, [r7, #10]
    mask <<= 1;
 8003f20:	7dfb      	ldrb	r3, [r7, #23]
 8003f22:	005b      	lsls	r3, r3, #1
 8003f24:	75fb      	strb	r3, [r7, #23]
    if ( mask == 0 )
 8003f26:	7dfb      	ldrb	r3, [r7, #23]
 8003f28:	2b00      	cmp	r3, #0
 8003f2a:	d104      	bne.n	8003f36 <u8g2_DrawHXBM+0xbe>
    {
      mask = 1;
 8003f2c:	2301      	movs	r3, #1
 8003f2e:	75fb      	strb	r3, [r7, #23]
      b++;
 8003f30:	6a3b      	ldr	r3, [r7, #32]
 8003f32:	3301      	adds	r3, #1
 8003f34:	623b      	str	r3, [r7, #32]
    }
    len--;
 8003f36:	88fb      	ldrh	r3, [r7, #6]
 8003f38:	3b01      	subs	r3, #1
 8003f3a:	80fb      	strh	r3, [r7, #6]
  while(len > 0) {
 8003f3c:	88fb      	ldrh	r3, [r7, #6]
 8003f3e:	2b00      	cmp	r3, #0
 8003f40:	d1c6      	bne.n	8003ed0 <u8g2_DrawHXBM+0x58>
  }
  u8g2->draw_color = color;
 8003f42:	68fb      	ldr	r3, [r7, #12]
 8003f44:	7dba      	ldrb	r2, [r7, #22]
 8003f46:	f883 2092 	strb.w	r2, [r3, #146]	; 0x92
 8003f4a:	e000      	b.n	8003f4e <u8g2_DrawHXBM+0xd6>
    return;
 8003f4c:	bf00      	nop
}
 8003f4e:	3718      	adds	r7, #24
 8003f50:	46bd      	mov	sp, r7
 8003f52:	bd80      	pop	{r7, pc}

08003f54 <u8g2_DrawXBM>:


void u8g2_DrawXBM(u8g2_t *u8g2, u8g2_uint_t x, u8g2_uint_t y, u8g2_uint_t w, u8g2_uint_t h, const uint8_t *bitmap)
{
 8003f54:	b580      	push	{r7, lr}
 8003f56:	b088      	sub	sp, #32
 8003f58:	af02      	add	r7, sp, #8
 8003f5a:	60f8      	str	r0, [r7, #12]
 8003f5c:	4608      	mov	r0, r1
 8003f5e:	4611      	mov	r1, r2
 8003f60:	461a      	mov	r2, r3
 8003f62:	4603      	mov	r3, r0
 8003f64:	817b      	strh	r3, [r7, #10]
 8003f66:	460b      	mov	r3, r1
 8003f68:	813b      	strh	r3, [r7, #8]
 8003f6a:	4613      	mov	r3, r2
 8003f6c:	80fb      	strh	r3, [r7, #6]
  u8g2_uint_t blen;
  blen = w;
 8003f6e:	88fb      	ldrh	r3, [r7, #6]
 8003f70:	82fb      	strh	r3, [r7, #22]
  blen += 7;
 8003f72:	8afb      	ldrh	r3, [r7, #22]
 8003f74:	3307      	adds	r3, #7
 8003f76:	82fb      	strh	r3, [r7, #22]
  blen >>= 3;
 8003f78:	8afb      	ldrh	r3, [r7, #22]
 8003f7a:	08db      	lsrs	r3, r3, #3
 8003f7c:	82fb      	strh	r3, [r7, #22]
#ifdef U8G2_WITH_INTERSECTION
  if ( u8g2_IsIntersection(u8g2, x, y, x+w, y+h) == 0 ) 
 8003f7e:	897a      	ldrh	r2, [r7, #10]
 8003f80:	88fb      	ldrh	r3, [r7, #6]
 8003f82:	4413      	add	r3, r2
 8003f84:	b298      	uxth	r0, r3
 8003f86:	893a      	ldrh	r2, [r7, #8]
 8003f88:	8c3b      	ldrh	r3, [r7, #32]
 8003f8a:	4413      	add	r3, r2
 8003f8c:	b29b      	uxth	r3, r3
 8003f8e:	893a      	ldrh	r2, [r7, #8]
 8003f90:	8979      	ldrh	r1, [r7, #10]
 8003f92:	9300      	str	r3, [sp, #0]
 8003f94:	4603      	mov	r3, r0
 8003f96:	68f8      	ldr	r0, [r7, #12]
 8003f98:	f001 f8d1 	bl	800513e <u8g2_IsIntersection>
 8003f9c:	4603      	mov	r3, r0
 8003f9e:	2b00      	cmp	r3, #0
 8003fa0:	d017      	beq.n	8003fd2 <u8g2_DrawXBM+0x7e>
    return;
#endif /* U8G2_WITH_INTERSECTION */
  
  while( h > 0 )
 8003fa2:	e012      	b.n	8003fca <u8g2_DrawXBM+0x76>
  {
    u8g2_DrawHXBM(u8g2, x, y, w, bitmap);
 8003fa4:	88f8      	ldrh	r0, [r7, #6]
 8003fa6:	893a      	ldrh	r2, [r7, #8]
 8003fa8:	8979      	ldrh	r1, [r7, #10]
 8003faa:	6a7b      	ldr	r3, [r7, #36]	; 0x24
 8003fac:	9300      	str	r3, [sp, #0]
 8003fae:	4603      	mov	r3, r0
 8003fb0:	68f8      	ldr	r0, [r7, #12]
 8003fb2:	f7ff ff61 	bl	8003e78 <u8g2_DrawHXBM>
    bitmap += blen;
 8003fb6:	8afb      	ldrh	r3, [r7, #22]
 8003fb8:	6a7a      	ldr	r2, [r7, #36]	; 0x24
 8003fba:	4413      	add	r3, r2
 8003fbc:	627b      	str	r3, [r7, #36]	; 0x24
    y++;
 8003fbe:	893b      	ldrh	r3, [r7, #8]
 8003fc0:	3301      	adds	r3, #1
 8003fc2:	813b      	strh	r3, [r7, #8]
    h--;
 8003fc4:	8c3b      	ldrh	r3, [r7, #32]
 8003fc6:	3b01      	subs	r3, #1
 8003fc8:	843b      	strh	r3, [r7, #32]
  while( h > 0 )
 8003fca:	8c3b      	ldrh	r3, [r7, #32]
 8003fcc:	2b00      	cmp	r3, #0
 8003fce:	d1e9      	bne.n	8003fa4 <u8g2_DrawXBM+0x50>
 8003fd0:	e000      	b.n	8003fd4 <u8g2_DrawXBM+0x80>
    return;
 8003fd2:	bf00      	nop
  }
}
 8003fd4:	3718      	adds	r7, #24
 8003fd6:	46bd      	mov	sp, r7
 8003fd8:	bd80      	pop	{r7, pc}

08003fda <u8g2_DrawBox>:
/*
  draw a filled box
  restriction: does not work for w = 0 or h = 0
*/
void u8g2_DrawBox(u8g2_t *u8g2, u8g2_uint_t x, u8g2_uint_t y, u8g2_uint_t w, u8g2_uint_t h)
{
 8003fda:	b580      	push	{r7, lr}
 8003fdc:	b086      	sub	sp, #24
 8003fde:	af02      	add	r7, sp, #8
 8003fe0:	60f8      	str	r0, [r7, #12]
 8003fe2:	4608      	mov	r0, r1
 8003fe4:	4611      	mov	r1, r2
 8003fe6:	461a      	mov	r2, r3
 8003fe8:	4603      	mov	r3, r0
 8003fea:	817b      	strh	r3, [r7, #10]
 8003fec:	460b      	mov	r3, r1
 8003fee:	813b      	strh	r3, [r7, #8]
 8003ff0:	4613      	mov	r3, r2
 8003ff2:	80fb      	strh	r3, [r7, #6]
#ifdef U8G2_WITH_INTERSECTION
  if ( u8g2_IsIntersection(u8g2, x, y, x+w, y+h) == 0 ) 
 8003ff4:	897a      	ldrh	r2, [r7, #10]
 8003ff6:	88fb      	ldrh	r3, [r7, #6]
 8003ff8:	4413      	add	r3, r2
 8003ffa:	b298      	uxth	r0, r3
 8003ffc:	893a      	ldrh	r2, [r7, #8]
 8003ffe:	8b3b      	ldrh	r3, [r7, #24]
 8004000:	4413      	add	r3, r2
 8004002:	b29b      	uxth	r3, r3
 8004004:	893a      	ldrh	r2, [r7, #8]
 8004006:	8979      	ldrh	r1, [r7, #10]
 8004008:	9300      	str	r3, [sp, #0]
 800400a:	4603      	mov	r3, r0
 800400c:	68f8      	ldr	r0, [r7, #12]
 800400e:	f001 f896 	bl	800513e <u8g2_IsIntersection>
 8004012:	4603      	mov	r3, r0
 8004014:	2b00      	cmp	r3, #0
 8004016:	d012      	beq.n	800403e <u8g2_DrawBox+0x64>
    return;
#endif /* U8G2_WITH_INTERSECTION */
  while( h != 0 )
 8004018:	e00d      	b.n	8004036 <u8g2_DrawBox+0x5c>
  { 
    u8g2_DrawHVLine(u8g2, x, y, w, 0);
 800401a:	88fb      	ldrh	r3, [r7, #6]
 800401c:	893a      	ldrh	r2, [r7, #8]
 800401e:	8979      	ldrh	r1, [r7, #10]
 8004020:	2000      	movs	r0, #0
 8004022:	9000      	str	r0, [sp, #0]
 8004024:	68f8      	ldr	r0, [r7, #12]
 8004026:	f000 ff9d 	bl	8004f64 <u8g2_DrawHVLine>
    y++;    
 800402a:	893b      	ldrh	r3, [r7, #8]
 800402c:	3301      	adds	r3, #1
 800402e:	813b      	strh	r3, [r7, #8]
    h--;
 8004030:	8b3b      	ldrh	r3, [r7, #24]
 8004032:	3b01      	subs	r3, #1
 8004034:	833b      	strh	r3, [r7, #24]
  while( h != 0 )
 8004036:	8b3b      	ldrh	r3, [r7, #24]
 8004038:	2b00      	cmp	r3, #0
 800403a:	d1ee      	bne.n	800401a <u8g2_DrawBox+0x40>
 800403c:	e000      	b.n	8004040 <u8g2_DrawBox+0x66>
    return;
 800403e:	bf00      	nop
  }
}
 8004040:	3710      	adds	r7, #16
 8004042:	46bd      	mov	sp, r7
 8004044:	bd80      	pop	{r7, pc}

08004046 <u8g2_DrawFrame>:
/*
  draw a frame (empty box)
  restriction: does not work for w = 0 or h = 0
*/
void u8g2_DrawFrame(u8g2_t *u8g2, u8g2_uint_t x, u8g2_uint_t y, u8g2_uint_t w, u8g2_uint_t h)
{
 8004046:	b580      	push	{r7, lr}
 8004048:	b088      	sub	sp, #32
 800404a:	af02      	add	r7, sp, #8
 800404c:	60f8      	str	r0, [r7, #12]
 800404e:	4608      	mov	r0, r1
 8004050:	4611      	mov	r1, r2
 8004052:	461a      	mov	r2, r3
 8004054:	4603      	mov	r3, r0
 8004056:	817b      	strh	r3, [r7, #10]
 8004058:	460b      	mov	r3, r1
 800405a:	813b      	strh	r3, [r7, #8]
 800405c:	4613      	mov	r3, r2
 800405e:	80fb      	strh	r3, [r7, #6]
  u8g2_uint_t xtmp = x;
 8004060:	897b      	ldrh	r3, [r7, #10]
 8004062:	82fb      	strh	r3, [r7, #22]
  
#ifdef U8G2_WITH_INTERSECTION
  if ( u8g2_IsIntersection(u8g2, x, y, x+w, y+h) == 0 ) 
 8004064:	897a      	ldrh	r2, [r7, #10]
 8004066:	88fb      	ldrh	r3, [r7, #6]
 8004068:	4413      	add	r3, r2
 800406a:	b298      	uxth	r0, r3
 800406c:	893a      	ldrh	r2, [r7, #8]
 800406e:	8c3b      	ldrh	r3, [r7, #32]
 8004070:	4413      	add	r3, r2
 8004072:	b29b      	uxth	r3, r3
 8004074:	893a      	ldrh	r2, [r7, #8]
 8004076:	8979      	ldrh	r1, [r7, #10]
 8004078:	9300      	str	r3, [sp, #0]
 800407a:	4603      	mov	r3, r0
 800407c:	68f8      	ldr	r0, [r7, #12]
 800407e:	f001 f85e 	bl	800513e <u8g2_IsIntersection>
 8004082:	4603      	mov	r3, r0
 8004084:	2b00      	cmp	r3, #0
 8004086:	d037      	beq.n	80040f8 <u8g2_DrawFrame+0xb2>
    return;
#endif /* U8G2_WITH_INTERSECTION */
  
  u8g2_DrawHVLine(u8g2, x, y, w, 0);
 8004088:	88fb      	ldrh	r3, [r7, #6]
 800408a:	893a      	ldrh	r2, [r7, #8]
 800408c:	8979      	ldrh	r1, [r7, #10]
 800408e:	2000      	movs	r0, #0
 8004090:	9000      	str	r0, [sp, #0]
 8004092:	68f8      	ldr	r0, [r7, #12]
 8004094:	f000 ff66 	bl	8004f64 <u8g2_DrawHVLine>
  if (h >= 2) {
 8004098:	8c3b      	ldrh	r3, [r7, #32]
 800409a:	2b01      	cmp	r3, #1
 800409c:	d92d      	bls.n	80040fa <u8g2_DrawFrame+0xb4>
    h-=2;
 800409e:	8c3b      	ldrh	r3, [r7, #32]
 80040a0:	3b02      	subs	r3, #2
 80040a2:	843b      	strh	r3, [r7, #32]
    y++;
 80040a4:	893b      	ldrh	r3, [r7, #8]
 80040a6:	3301      	adds	r3, #1
 80040a8:	813b      	strh	r3, [r7, #8]
    if (h > 0) {
 80040aa:	8c3b      	ldrh	r3, [r7, #32]
 80040ac:	2b00      	cmp	r3, #0
 80040ae:	d01a      	beq.n	80040e6 <u8g2_DrawFrame+0xa0>
      u8g2_DrawHVLine(u8g2, x, y, h, 1);
 80040b0:	8c3b      	ldrh	r3, [r7, #32]
 80040b2:	893a      	ldrh	r2, [r7, #8]
 80040b4:	8979      	ldrh	r1, [r7, #10]
 80040b6:	2001      	movs	r0, #1
 80040b8:	9000      	str	r0, [sp, #0]
 80040ba:	68f8      	ldr	r0, [r7, #12]
 80040bc:	f000 ff52 	bl	8004f64 <u8g2_DrawHVLine>
      x+=w;
 80040c0:	897a      	ldrh	r2, [r7, #10]
 80040c2:	88fb      	ldrh	r3, [r7, #6]
 80040c4:	4413      	add	r3, r2
 80040c6:	817b      	strh	r3, [r7, #10]
      x--;
 80040c8:	897b      	ldrh	r3, [r7, #10]
 80040ca:	3b01      	subs	r3, #1
 80040cc:	817b      	strh	r3, [r7, #10]
      u8g2_DrawHVLine(u8g2, x, y, h, 1);
 80040ce:	8c3b      	ldrh	r3, [r7, #32]
 80040d0:	893a      	ldrh	r2, [r7, #8]
 80040d2:	8979      	ldrh	r1, [r7, #10]
 80040d4:	2001      	movs	r0, #1
 80040d6:	9000      	str	r0, [sp, #0]
 80040d8:	68f8      	ldr	r0, [r7, #12]
 80040da:	f000 ff43 	bl	8004f64 <u8g2_DrawHVLine>
      y+=h;
 80040de:	893a      	ldrh	r2, [r7, #8]
 80040e0:	8c3b      	ldrh	r3, [r7, #32]
 80040e2:	4413      	add	r3, r2
 80040e4:	813b      	strh	r3, [r7, #8]
    }
    u8g2_DrawHVLine(u8g2, xtmp, y, w, 0);
 80040e6:	88fb      	ldrh	r3, [r7, #6]
 80040e8:	893a      	ldrh	r2, [r7, #8]
 80040ea:	8af9      	ldrh	r1, [r7, #22]
 80040ec:	2000      	movs	r0, #0
 80040ee:	9000      	str	r0, [sp, #0]
 80040f0:	68f8      	ldr	r0, [r7, #12]
 80040f2:	f000 ff37 	bl	8004f64 <u8g2_DrawHVLine>
 80040f6:	e000      	b.n	80040fa <u8g2_DrawFrame+0xb4>
    return;
 80040f8:	bf00      	nop
  }
}
 80040fa:	3718      	adds	r7, #24
 80040fc:	46bd      	mov	sp, r7
 80040fe:	bd80      	pop	{r7, pc}

08004100 <u8g2_ClearBuffer>:
#include "u8g2.h"
#include <string.h>

/*============================================*/
void u8g2_ClearBuffer(u8g2_t *u8g2)
{
 8004100:	b580      	push	{r7, lr}
 8004102:	b084      	sub	sp, #16
 8004104:	af00      	add	r7, sp, #0
 8004106:	6078      	str	r0, [r7, #4]
  size_t cnt;
  cnt = u8g2_GetU8x8(u8g2)->display_info->tile_width;
 8004108:	687b      	ldr	r3, [r7, #4]
 800410a:	681b      	ldr	r3, [r3, #0]
 800410c:	7c1b      	ldrb	r3, [r3, #16]
 800410e:	60fb      	str	r3, [r7, #12]
  cnt *= u8g2->tile_buf_height;
 8004110:	687b      	ldr	r3, [r7, #4]
 8004112:	f893 3038 	ldrb.w	r3, [r3, #56]	; 0x38
 8004116:	461a      	mov	r2, r3
 8004118:	68fb      	ldr	r3, [r7, #12]
 800411a:	fb02 f303 	mul.w	r3, r2, r3
 800411e:	60fb      	str	r3, [r7, #12]
  cnt *= 8;
 8004120:	68fb      	ldr	r3, [r7, #12]
 8004122:	00db      	lsls	r3, r3, #3
 8004124:	60fb      	str	r3, [r7, #12]
  memset(u8g2->tile_buf_ptr, 0, cnt);
 8004126:	687b      	ldr	r3, [r7, #4]
 8004128:	6b5b      	ldr	r3, [r3, #52]	; 0x34
 800412a:	68fa      	ldr	r2, [r7, #12]
 800412c:	2100      	movs	r1, #0
 800412e:	4618      	mov	r0, r3
 8004130:	f004 fc5a 	bl	80089e8 <memset>
}
 8004134:	bf00      	nop
 8004136:	3710      	adds	r7, #16
 8004138:	46bd      	mov	sp, r7
 800413a:	bd80      	pop	{r7, pc}

0800413c <u8g2_send_tile_row>:

/*============================================*/

static void u8g2_send_tile_row(u8g2_t *u8g2, uint8_t src_tile_row, uint8_t dest_tile_row)
{
 800413c:	b580      	push	{r7, lr}
 800413e:	b086      	sub	sp, #24
 8004140:	af02      	add	r7, sp, #8
 8004142:	6078      	str	r0, [r7, #4]
 8004144:	460b      	mov	r3, r1
 8004146:	70fb      	strb	r3, [r7, #3]
 8004148:	4613      	mov	r3, r2
 800414a:	70bb      	strb	r3, [r7, #2]
  uint8_t *ptr;
  uint16_t offset;
  uint8_t w;
  
  w = u8g2_GetU8x8(u8g2)->display_info->tile_width;
 800414c:	687b      	ldr	r3, [r7, #4]
 800414e:	681b      	ldr	r3, [r3, #0]
 8004150:	7c1b      	ldrb	r3, [r3, #16]
 8004152:	73fb      	strb	r3, [r7, #15]
  offset = src_tile_row;
 8004154:	78fb      	ldrb	r3, [r7, #3]
 8004156:	81bb      	strh	r3, [r7, #12]
  ptr = u8g2->tile_buf_ptr;
 8004158:	687b      	ldr	r3, [r7, #4]
 800415a:	6b5b      	ldr	r3, [r3, #52]	; 0x34
 800415c:	60bb      	str	r3, [r7, #8]
  offset *= w;
 800415e:	7bfb      	ldrb	r3, [r7, #15]
 8004160:	b29b      	uxth	r3, r3
 8004162:	89ba      	ldrh	r2, [r7, #12]
 8004164:	fb02 f303 	mul.w	r3, r2, r3
 8004168:	81bb      	strh	r3, [r7, #12]
  offset *= 8;
 800416a:	89bb      	ldrh	r3, [r7, #12]
 800416c:	00db      	lsls	r3, r3, #3
 800416e:	81bb      	strh	r3, [r7, #12]
  ptr += offset;
 8004170:	89bb      	ldrh	r3, [r7, #12]
 8004172:	68ba      	ldr	r2, [r7, #8]
 8004174:	4413      	add	r3, r2
 8004176:	60bb      	str	r3, [r7, #8]
  u8x8_DrawTile(u8g2_GetU8x8(u8g2), 0, dest_tile_row, w, ptr);
 8004178:	7bf9      	ldrb	r1, [r7, #15]
 800417a:	78ba      	ldrb	r2, [r7, #2]
 800417c:	68bb      	ldr	r3, [r7, #8]
 800417e:	9300      	str	r3, [sp, #0]
 8004180:	460b      	mov	r3, r1
 8004182:	2100      	movs	r1, #0
 8004184:	6878      	ldr	r0, [r7, #4]
 8004186:	f001 fcb7 	bl	8005af8 <u8x8_DrawTile>
}
 800418a:	bf00      	nop
 800418c:	3710      	adds	r7, #16
 800418e:	46bd      	mov	sp, r7
 8004190:	bd80      	pop	{r7, pc}

08004192 <u8g2_send_buffer>:
  For most displays, this will make the content visible to the user.
  Some displays (like the SSD1606) require a u8x8_RefreshDisplay()
*/
static void u8g2_send_buffer(u8g2_t *u8g2) U8X8_NOINLINE;
static void u8g2_send_buffer(u8g2_t *u8g2)
{
 8004192:	b580      	push	{r7, lr}
 8004194:	b084      	sub	sp, #16
 8004196:	af00      	add	r7, sp, #0
 8004198:	6078      	str	r0, [r7, #4]
  uint8_t src_row;
  uint8_t src_max;
  uint8_t dest_row;
  uint8_t dest_max;

  src_row = 0;
 800419a:	2300      	movs	r3, #0
 800419c:	73fb      	strb	r3, [r7, #15]
  src_max = u8g2->tile_buf_height;
 800419e:	687b      	ldr	r3, [r7, #4]
 80041a0:	f893 3038 	ldrb.w	r3, [r3, #56]	; 0x38
 80041a4:	737b      	strb	r3, [r7, #13]
  dest_row = u8g2->tile_curr_row;
 80041a6:	687b      	ldr	r3, [r7, #4]
 80041a8:	f893 3039 	ldrb.w	r3, [r3, #57]	; 0x39
 80041ac:	73bb      	strb	r3, [r7, #14]
  dest_max = u8g2_GetU8x8(u8g2)->display_info->tile_height;
 80041ae:	687b      	ldr	r3, [r7, #4]
 80041b0:	681b      	ldr	r3, [r3, #0]
 80041b2:	7c5b      	ldrb	r3, [r3, #17]
 80041b4:	733b      	strb	r3, [r7, #12]
  
  do
  {
    u8g2_send_tile_row(u8g2, src_row, dest_row);
 80041b6:	7bba      	ldrb	r2, [r7, #14]
 80041b8:	7bfb      	ldrb	r3, [r7, #15]
 80041ba:	4619      	mov	r1, r3
 80041bc:	6878      	ldr	r0, [r7, #4]
 80041be:	f7ff ffbd 	bl	800413c <u8g2_send_tile_row>
    src_row++;
 80041c2:	7bfb      	ldrb	r3, [r7, #15]
 80041c4:	3301      	adds	r3, #1
 80041c6:	73fb      	strb	r3, [r7, #15]
    dest_row++;
 80041c8:	7bbb      	ldrb	r3, [r7, #14]
 80041ca:	3301      	adds	r3, #1
 80041cc:	73bb      	strb	r3, [r7, #14]
  } while( src_row < src_max && dest_row < dest_max );
 80041ce:	7bfa      	ldrb	r2, [r7, #15]
 80041d0:	7b7b      	ldrb	r3, [r7, #13]
 80041d2:	429a      	cmp	r2, r3
 80041d4:	d203      	bcs.n	80041de <u8g2_send_buffer+0x4c>
 80041d6:	7bba      	ldrb	r2, [r7, #14]
 80041d8:	7b3b      	ldrb	r3, [r7, #12]
 80041da:	429a      	cmp	r2, r3
 80041dc:	d3eb      	bcc.n	80041b6 <u8g2_send_buffer+0x24>
}
 80041de:	bf00      	nop
 80041e0:	3710      	adds	r7, #16
 80041e2:	46bd      	mov	sp, r7
 80041e4:	bd80      	pop	{r7, pc}

080041e6 <u8g2_SendBuffer>:

/* same as u8g2_send_buffer but also send the DISPLAY_REFRESH message (used by SSD1606) */
void u8g2_SendBuffer(u8g2_t *u8g2)
{
 80041e6:	b580      	push	{r7, lr}
 80041e8:	b082      	sub	sp, #8
 80041ea:	af00      	add	r7, sp, #0
 80041ec:	6078      	str	r0, [r7, #4]
  u8g2_send_buffer(u8g2);
 80041ee:	6878      	ldr	r0, [r7, #4]
 80041f0:	f7ff ffcf 	bl	8004192 <u8g2_send_buffer>
  u8x8_RefreshDisplay( u8g2_GetU8x8(u8g2) );  
 80041f4:	6878      	ldr	r0, [r7, #4]
 80041f6:	f001 fce1 	bl	8005bbc <u8x8_RefreshDisplay>
}
 80041fa:	bf00      	nop
 80041fc:	3708      	adds	r7, #8
 80041fe:	46bd      	mov	sp, r7
 8004200:	bd80      	pop	{r7, pc}

08004202 <u8g2_SetBufferCurrTileRow>:

/*============================================*/
void u8g2_SetBufferCurrTileRow(u8g2_t *u8g2, uint8_t row)
{
 8004202:	b580      	push	{r7, lr}
 8004204:	b082      	sub	sp, #8
 8004206:	af00      	add	r7, sp, #0
 8004208:	6078      	str	r0, [r7, #4]
 800420a:	460b      	mov	r3, r1
 800420c:	70fb      	strb	r3, [r7, #3]
  u8g2->tile_curr_row = row;
 800420e:	687b      	ldr	r3, [r7, #4]
 8004210:	78fa      	ldrb	r2, [r7, #3]
 8004212:	f883 2039 	strb.w	r2, [r3, #57]	; 0x39
  u8g2->cb->update_dimension(u8g2);
 8004216:	687b      	ldr	r3, [r7, #4]
 8004218:	6b1b      	ldr	r3, [r3, #48]	; 0x30
 800421a:	681b      	ldr	r3, [r3, #0]
 800421c:	6878      	ldr	r0, [r7, #4]
 800421e:	4798      	blx	r3
  u8g2->cb->update_page_win(u8g2);
 8004220:	687b      	ldr	r3, [r7, #4]
 8004222:	6b1b      	ldr	r3, [r3, #48]	; 0x30
 8004224:	685b      	ldr	r3, [r3, #4]
 8004226:	6878      	ldr	r0, [r7, #4]
 8004228:	4798      	blx	r3
}
 800422a:	bf00      	nop
 800422c:	3708      	adds	r7, #8
 800422e:	46bd      	mov	sp, r7
 8004230:	bd80      	pop	{r7, pc}

08004232 <u8g2_FirstPage>:

void u8g2_FirstPage(u8g2_t *u8g2)
{
 8004232:	b580      	push	{r7, lr}
 8004234:	b082      	sub	sp, #8
 8004236:	af00      	add	r7, sp, #0
 8004238:	6078      	str	r0, [r7, #4]
  if ( u8g2->is_auto_page_clear )
 800423a:	687b      	ldr	r3, [r7, #4]
 800423c:	f893 3093 	ldrb.w	r3, [r3, #147]	; 0x93
 8004240:	2b00      	cmp	r3, #0
 8004242:	d002      	beq.n	800424a <u8g2_FirstPage+0x18>
  {
    u8g2_ClearBuffer(u8g2);
 8004244:	6878      	ldr	r0, [r7, #4]
 8004246:	f7ff ff5b 	bl	8004100 <u8g2_ClearBuffer>
  }
  u8g2_SetBufferCurrTileRow(u8g2, 0);
 800424a:	2100      	movs	r1, #0
 800424c:	6878      	ldr	r0, [r7, #4]
 800424e:	f7ff ffd8 	bl	8004202 <u8g2_SetBufferCurrTileRow>
}
 8004252:	bf00      	nop
 8004254:	3708      	adds	r7, #8
 8004256:	46bd      	mov	sp, r7
 8004258:	bd80      	pop	{r7, pc}

0800425a <u8g2_NextPage>:

uint8_t u8g2_NextPage(u8g2_t *u8g2)
{
 800425a:	b580      	push	{r7, lr}
 800425c:	b084      	sub	sp, #16
 800425e:	af00      	add	r7, sp, #0
 8004260:	6078      	str	r0, [r7, #4]
  uint8_t row;
  u8g2_send_buffer(u8g2);
 8004262:	6878      	ldr	r0, [r7, #4]
 8004264:	f7ff ff95 	bl	8004192 <u8g2_send_buffer>
  row = u8g2->tile_curr_row;
 8004268:	687b      	ldr	r3, [r7, #4]
 800426a:	f893 3039 	ldrb.w	r3, [r3, #57]	; 0x39
 800426e:	73fb      	strb	r3, [r7, #15]
  row += u8g2->tile_buf_height;
 8004270:	687b      	ldr	r3, [r7, #4]
 8004272:	f893 2038 	ldrb.w	r2, [r3, #56]	; 0x38
 8004276:	7bfb      	ldrb	r3, [r7, #15]
 8004278:	4413      	add	r3, r2
 800427a:	73fb      	strb	r3, [r7, #15]
  if ( row >= u8g2_GetU8x8(u8g2)->display_info->tile_height )
 800427c:	687b      	ldr	r3, [r7, #4]
 800427e:	681b      	ldr	r3, [r3, #0]
 8004280:	7c5b      	ldrb	r3, [r3, #17]
 8004282:	7bfa      	ldrb	r2, [r7, #15]
 8004284:	429a      	cmp	r2, r3
 8004286:	d304      	bcc.n	8004292 <u8g2_NextPage+0x38>
  {
    u8x8_RefreshDisplay( u8g2_GetU8x8(u8g2) );
 8004288:	6878      	ldr	r0, [r7, #4]
 800428a:	f001 fc97 	bl	8005bbc <u8x8_RefreshDisplay>
    return 0;
 800428e:	2300      	movs	r3, #0
 8004290:	e00d      	b.n	80042ae <u8g2_NextPage+0x54>
  }
  if ( u8g2->is_auto_page_clear )
 8004292:	687b      	ldr	r3, [r7, #4]
 8004294:	f893 3093 	ldrb.w	r3, [r3, #147]	; 0x93
 8004298:	2b00      	cmp	r3, #0
 800429a:	d002      	beq.n	80042a2 <u8g2_NextPage+0x48>
  {
    u8g2_ClearBuffer(u8g2);
 800429c:	6878      	ldr	r0, [r7, #4]
 800429e:	f7ff ff2f 	bl	8004100 <u8g2_ClearBuffer>
  }
  u8g2_SetBufferCurrTileRow(u8g2, row);
 80042a2:	7bfb      	ldrb	r3, [r7, #15]
 80042a4:	4619      	mov	r1, r3
 80042a6:	6878      	ldr	r0, [r7, #4]
 80042a8:	f7ff ffab 	bl	8004202 <u8g2_SetBufferCurrTileRow>
  return 1;
 80042ac:	2301      	movs	r3, #1
}
 80042ae:	4618      	mov	r0, r3
 80042b0:	3710      	adds	r7, #16
 80042b2:	46bd      	mov	sp, r7
 80042b4:	bd80      	pop	{r7, pc}

080042b6 <u8g2_ClearDisplay>:
#include "u8g2.h"

/* Clear screen buffer & display reliable for all u8g2 displays. */
/* This is done with u8g2 picture loop, because we can not use the u8x8 function in all cases */
void u8g2_ClearDisplay(u8g2_t *u8g2)
{
 80042b6:	b580      	push	{r7, lr}
 80042b8:	b082      	sub	sp, #8
 80042ba:	af00      	add	r7, sp, #0
 80042bc:	6078      	str	r0, [r7, #4]
  u8g2_FirstPage(u8g2);
 80042be:	6878      	ldr	r0, [r7, #4]
 80042c0:	f7ff ffb7 	bl	8004232 <u8g2_FirstPage>
  do {
  } while ( u8g2_NextPage(u8g2) );
 80042c4:	6878      	ldr	r0, [r7, #4]
 80042c6:	f7ff ffc8 	bl	800425a <u8g2_NextPage>
 80042ca:	4603      	mov	r3, r0
 80042cc:	2b00      	cmp	r3, #0
 80042ce:	d1f9      	bne.n	80042c4 <u8g2_ClearDisplay+0xe>
    send commands.
    This will not work because the current tile row is modified by the picture 
    loop above. To fix this, reset the tile row to 0, issue #370
    A workaround would be, that the user sets the current tile row to 0 manually.
  */
  u8g2_SetBufferCurrTileRow(u8g2, 0);  
 80042d0:	2100      	movs	r1, #0
 80042d2:	6878      	ldr	r0, [r7, #4]
 80042d4:	f7ff ff95 	bl	8004202 <u8g2_SetBufferCurrTileRow>
}
 80042d8:	bf00      	nop
 80042da:	3708      	adds	r7, #8
 80042dc:	46bd      	mov	sp, r7
 80042de:	bd80      	pop	{r7, pc}

080042e0 <u8g2_m_16_8_f>:
  *page_cnt = 2;
  return buf;
  #endif
}
uint8_t *u8g2_m_16_8_f(uint8_t *page_cnt)
{
 80042e0:	b480      	push	{r7}
 80042e2:	b083      	sub	sp, #12
 80042e4:	af00      	add	r7, sp, #0
 80042e6:	6078      	str	r0, [r7, #4]
  #ifdef U8G2_USE_DYNAMIC_ALLOC
  *page_cnt = 8;
  return 0;
  #else
  static uint8_t buf[1024];
  *page_cnt = 8;
 80042e8:	687b      	ldr	r3, [r7, #4]
 80042ea:	2208      	movs	r2, #8
 80042ec:	701a      	strb	r2, [r3, #0]
  return buf;
 80042ee:	4b03      	ldr	r3, [pc, #12]	; (80042fc <u8g2_m_16_8_f+0x1c>)
  #endif
}
 80042f0:	4618      	mov	r0, r3
 80042f2:	370c      	adds	r7, #12
 80042f4:	46bd      	mov	sp, r7
 80042f6:	bc80      	pop	{r7}
 80042f8:	4770      	bx	lr
 80042fa:	bf00      	nop
 80042fc:	2000049c 	.word	0x2000049c

08004300 <u8g2_Setup_st7565_nhd_c12864_f>:
  u8g2_SetupDisplay(u8g2, u8x8_d_st7565_erc12864_alt, u8x8_cad_001, byte_cb, gpio_and_delay_cb);
  buf = u8g2_m_16_8_f(&tile_buf_height);
  u8g2_SetupBuffer(u8g2, buf, tile_buf_height, u8g2_ll_hvline_vertical_top_lsb, rotation);
}
void u8g2_Setup_st7565_nhd_c12864_f(u8g2_t *u8g2, const u8g2_cb_t *rotation, u8x8_msg_cb byte_cb, u8x8_msg_cb gpio_and_delay_cb)
{
 8004300:	b580      	push	{r7, lr}
 8004302:	b088      	sub	sp, #32
 8004304:	af02      	add	r7, sp, #8
 8004306:	60f8      	str	r0, [r7, #12]
 8004308:	60b9      	str	r1, [r7, #8]
 800430a:	607a      	str	r2, [r7, #4]
 800430c:	603b      	str	r3, [r7, #0]
  uint8_t tile_buf_height;
  uint8_t *buf;
  u8g2_SetupDisplay(u8g2, u8x8_d_st7565_nhd_c12864, u8x8_cad_001, byte_cb, gpio_and_delay_cb);
 800430e:	683b      	ldr	r3, [r7, #0]
 8004310:	9300      	str	r3, [sp, #0]
 8004312:	687b      	ldr	r3, [r7, #4]
 8004314:	4a0b      	ldr	r2, [pc, #44]	; (8004344 <u8g2_Setup_st7565_nhd_c12864_f+0x44>)
 8004316:	490c      	ldr	r1, [pc, #48]	; (8004348 <u8g2_Setup_st7565_nhd_c12864_f+0x48>)
 8004318:	68f8      	ldr	r0, [r7, #12]
 800431a:	f001 fcaf 	bl	8005c7c <u8x8_Setup>
  buf = u8g2_m_16_8_f(&tile_buf_height);
 800431e:	f107 0313 	add.w	r3, r7, #19
 8004322:	4618      	mov	r0, r3
 8004324:	f7ff ffdc 	bl	80042e0 <u8g2_m_16_8_f>
 8004328:	6178      	str	r0, [r7, #20]
  u8g2_SetupBuffer(u8g2, buf, tile_buf_height, u8g2_ll_hvline_vertical_top_lsb, rotation);
 800432a:	7cfa      	ldrb	r2, [r7, #19]
 800432c:	68bb      	ldr	r3, [r7, #8]
 800432e:	9300      	str	r3, [sp, #0]
 8004330:	4b06      	ldr	r3, [pc, #24]	; (800434c <u8g2_Setup_st7565_nhd_c12864_f+0x4c>)
 8004332:	6979      	ldr	r1, [r7, #20]
 8004334:	68f8      	ldr	r0, [r7, #12]
 8004336:	f000 ffeb 	bl	8005310 <u8g2_SetupBuffer>
}
 800433a:	bf00      	nop
 800433c:	3718      	adds	r7, #24
 800433e:	46bd      	mov	sp, r7
 8004340:	bd80      	pop	{r7, pc}
 8004342:	bf00      	nop
 8004344:	08005815 	.word	0x08005815
 8004348:	080059b5 	.word	0x080059b5
 800434c:	08005195 	.word	0x08005195

08004350 <u8g2_font_get_byte>:
/* low level byte and word access */

/* removed NOINLINE, because it leads to smaller code, might also be faster */
//static uint8_t u8g2_font_get_byte(const uint8_t *font, uint8_t offset) U8G2_NOINLINE;
static uint8_t u8g2_font_get_byte(const uint8_t *font, uint8_t offset)
{
 8004350:	b480      	push	{r7}
 8004352:	b083      	sub	sp, #12
 8004354:	af00      	add	r7, sp, #0
 8004356:	6078      	str	r0, [r7, #4]
 8004358:	460b      	mov	r3, r1
 800435a:	70fb      	strb	r3, [r7, #3]
  font += offset;
 800435c:	78fb      	ldrb	r3, [r7, #3]
 800435e:	687a      	ldr	r2, [r7, #4]
 8004360:	4413      	add	r3, r2
 8004362:	607b      	str	r3, [r7, #4]
  return u8x8_pgm_read( font );  
 8004364:	687b      	ldr	r3, [r7, #4]
 8004366:	781b      	ldrb	r3, [r3, #0]
}
 8004368:	4618      	mov	r0, r3
 800436a:	370c      	adds	r7, #12
 800436c:	46bd      	mov	sp, r7
 800436e:	bc80      	pop	{r7}
 8004370:	4770      	bx	lr

08004372 <u8g2_font_get_word>:

static uint16_t u8g2_font_get_word(const uint8_t *font, uint8_t offset) U8G2_NOINLINE; 
static uint16_t u8g2_font_get_word(const uint8_t *font, uint8_t offset)
{
 8004372:	b480      	push	{r7}
 8004374:	b085      	sub	sp, #20
 8004376:	af00      	add	r7, sp, #0
 8004378:	6078      	str	r0, [r7, #4]
 800437a:	460b      	mov	r3, r1
 800437c:	70fb      	strb	r3, [r7, #3]
    uint16_t pos;
    font += offset;
 800437e:	78fb      	ldrb	r3, [r7, #3]
 8004380:	687a      	ldr	r2, [r7, #4]
 8004382:	4413      	add	r3, r2
 8004384:	607b      	str	r3, [r7, #4]
    pos = u8x8_pgm_read( font );
 8004386:	687b      	ldr	r3, [r7, #4]
 8004388:	781b      	ldrb	r3, [r3, #0]
 800438a:	81fb      	strh	r3, [r7, #14]
    font++;
 800438c:	687b      	ldr	r3, [r7, #4]
 800438e:	3301      	adds	r3, #1
 8004390:	607b      	str	r3, [r7, #4]
    pos <<= 8;
 8004392:	89fb      	ldrh	r3, [r7, #14]
 8004394:	021b      	lsls	r3, r3, #8
 8004396:	81fb      	strh	r3, [r7, #14]
    pos += u8x8_pgm_read( font);
 8004398:	687b      	ldr	r3, [r7, #4]
 800439a:	781b      	ldrb	r3, [r3, #0]
 800439c:	b29a      	uxth	r2, r3
 800439e:	89fb      	ldrh	r3, [r7, #14]
 80043a0:	4413      	add	r3, r2
 80043a2:	81fb      	strh	r3, [r7, #14]
    return pos;
 80043a4:	89fb      	ldrh	r3, [r7, #14]
}
 80043a6:	4618      	mov	r0, r3
 80043a8:	3714      	adds	r7, #20
 80043aa:	46bd      	mov	sp, r7
 80043ac:	bc80      	pop	{r7}
 80043ae:	4770      	bx	lr

080043b0 <u8g2_read_font_info>:

/*========================================================================*/
/* new font format */
void u8g2_read_font_info(u8g2_font_info_t *font_info, const uint8_t *font)
{
 80043b0:	b580      	push	{r7, lr}
 80043b2:	b082      	sub	sp, #8
 80043b4:	af00      	add	r7, sp, #0
 80043b6:	6078      	str	r0, [r7, #4]
 80043b8:	6039      	str	r1, [r7, #0]
  /* offset 0 */
  font_info->glyph_cnt = u8g2_font_get_byte(font, 0);
 80043ba:	2100      	movs	r1, #0
 80043bc:	6838      	ldr	r0, [r7, #0]
 80043be:	f7ff ffc7 	bl	8004350 <u8g2_font_get_byte>
 80043c2:	4603      	mov	r3, r0
 80043c4:	461a      	mov	r2, r3
 80043c6:	687b      	ldr	r3, [r7, #4]
 80043c8:	701a      	strb	r2, [r3, #0]
  font_info->bbx_mode = u8g2_font_get_byte(font, 1);
 80043ca:	2101      	movs	r1, #1
 80043cc:	6838      	ldr	r0, [r7, #0]
 80043ce:	f7ff ffbf 	bl	8004350 <u8g2_font_get_byte>
 80043d2:	4603      	mov	r3, r0
 80043d4:	461a      	mov	r2, r3
 80043d6:	687b      	ldr	r3, [r7, #4]
 80043d8:	705a      	strb	r2, [r3, #1]
  font_info->bits_per_0 = u8g2_font_get_byte(font, 2);
 80043da:	2102      	movs	r1, #2
 80043dc:	6838      	ldr	r0, [r7, #0]
 80043de:	f7ff ffb7 	bl	8004350 <u8g2_font_get_byte>
 80043e2:	4603      	mov	r3, r0
 80043e4:	461a      	mov	r2, r3
 80043e6:	687b      	ldr	r3, [r7, #4]
 80043e8:	709a      	strb	r2, [r3, #2]
  font_info->bits_per_1 = u8g2_font_get_byte(font, 3);
 80043ea:	2103      	movs	r1, #3
 80043ec:	6838      	ldr	r0, [r7, #0]
 80043ee:	f7ff ffaf 	bl	8004350 <u8g2_font_get_byte>
 80043f2:	4603      	mov	r3, r0
 80043f4:	461a      	mov	r2, r3
 80043f6:	687b      	ldr	r3, [r7, #4]
 80043f8:	70da      	strb	r2, [r3, #3]
  
  /* offset 4 */
  font_info->bits_per_char_width = u8g2_font_get_byte(font, 4);
 80043fa:	2104      	movs	r1, #4
 80043fc:	6838      	ldr	r0, [r7, #0]
 80043fe:	f7ff ffa7 	bl	8004350 <u8g2_font_get_byte>
 8004402:	4603      	mov	r3, r0
 8004404:	461a      	mov	r2, r3
 8004406:	687b      	ldr	r3, [r7, #4]
 8004408:	711a      	strb	r2, [r3, #4]
  font_info->bits_per_char_height = u8g2_font_get_byte(font, 5);
 800440a:	2105      	movs	r1, #5
 800440c:	6838      	ldr	r0, [r7, #0]
 800440e:	f7ff ff9f 	bl	8004350 <u8g2_font_get_byte>
 8004412:	4603      	mov	r3, r0
 8004414:	461a      	mov	r2, r3
 8004416:	687b      	ldr	r3, [r7, #4]
 8004418:	715a      	strb	r2, [r3, #5]
  font_info->bits_per_char_x = u8g2_font_get_byte(font, 6);
 800441a:	2106      	movs	r1, #6
 800441c:	6838      	ldr	r0, [r7, #0]
 800441e:	f7ff ff97 	bl	8004350 <u8g2_font_get_byte>
 8004422:	4603      	mov	r3, r0
 8004424:	461a      	mov	r2, r3
 8004426:	687b      	ldr	r3, [r7, #4]
 8004428:	719a      	strb	r2, [r3, #6]
  font_info->bits_per_char_y = u8g2_font_get_byte(font, 7);
 800442a:	2107      	movs	r1, #7
 800442c:	6838      	ldr	r0, [r7, #0]
 800442e:	f7ff ff8f 	bl	8004350 <u8g2_font_get_byte>
 8004432:	4603      	mov	r3, r0
 8004434:	461a      	mov	r2, r3
 8004436:	687b      	ldr	r3, [r7, #4]
 8004438:	71da      	strb	r2, [r3, #7]
  font_info->bits_per_delta_x = u8g2_font_get_byte(font, 8);
 800443a:	2108      	movs	r1, #8
 800443c:	6838      	ldr	r0, [r7, #0]
 800443e:	f7ff ff87 	bl	8004350 <u8g2_font_get_byte>
 8004442:	4603      	mov	r3, r0
 8004444:	461a      	mov	r2, r3
 8004446:	687b      	ldr	r3, [r7, #4]
 8004448:	721a      	strb	r2, [r3, #8]
  
  /* offset 9 */
  font_info->max_char_width = u8g2_font_get_byte(font, 9);
 800444a:	2109      	movs	r1, #9
 800444c:	6838      	ldr	r0, [r7, #0]
 800444e:	f7ff ff7f 	bl	8004350 <u8g2_font_get_byte>
 8004452:	4603      	mov	r3, r0
 8004454:	b25a      	sxtb	r2, r3
 8004456:	687b      	ldr	r3, [r7, #4]
 8004458:	725a      	strb	r2, [r3, #9]
  font_info->max_char_height = u8g2_font_get_byte(font, 10);
 800445a:	210a      	movs	r1, #10
 800445c:	6838      	ldr	r0, [r7, #0]
 800445e:	f7ff ff77 	bl	8004350 <u8g2_font_get_byte>
 8004462:	4603      	mov	r3, r0
 8004464:	b25a      	sxtb	r2, r3
 8004466:	687b      	ldr	r3, [r7, #4]
 8004468:	729a      	strb	r2, [r3, #10]
  font_info->x_offset = u8g2_font_get_byte(font, 11);
 800446a:	210b      	movs	r1, #11
 800446c:	6838      	ldr	r0, [r7, #0]
 800446e:	f7ff ff6f 	bl	8004350 <u8g2_font_get_byte>
 8004472:	4603      	mov	r3, r0
 8004474:	b25a      	sxtb	r2, r3
 8004476:	687b      	ldr	r3, [r7, #4]
 8004478:	72da      	strb	r2, [r3, #11]
  font_info->y_offset = u8g2_font_get_byte(font, 12);
 800447a:	210c      	movs	r1, #12
 800447c:	6838      	ldr	r0, [r7, #0]
 800447e:	f7ff ff67 	bl	8004350 <u8g2_font_get_byte>
 8004482:	4603      	mov	r3, r0
 8004484:	b25a      	sxtb	r2, r3
 8004486:	687b      	ldr	r3, [r7, #4]
 8004488:	731a      	strb	r2, [r3, #12]
  
  /* offset 13 */
  font_info->ascent_A = u8g2_font_get_byte(font, 13);
 800448a:	210d      	movs	r1, #13
 800448c:	6838      	ldr	r0, [r7, #0]
 800448e:	f7ff ff5f 	bl	8004350 <u8g2_font_get_byte>
 8004492:	4603      	mov	r3, r0
 8004494:	b25a      	sxtb	r2, r3
 8004496:	687b      	ldr	r3, [r7, #4]
 8004498:	735a      	strb	r2, [r3, #13]
  font_info->descent_g = u8g2_font_get_byte(font, 14);
 800449a:	210e      	movs	r1, #14
 800449c:	6838      	ldr	r0, [r7, #0]
 800449e:	f7ff ff57 	bl	8004350 <u8g2_font_get_byte>
 80044a2:	4603      	mov	r3, r0
 80044a4:	b25a      	sxtb	r2, r3
 80044a6:	687b      	ldr	r3, [r7, #4]
 80044a8:	739a      	strb	r2, [r3, #14]
  font_info->ascent_para = u8g2_font_get_byte(font, 15);
 80044aa:	210f      	movs	r1, #15
 80044ac:	6838      	ldr	r0, [r7, #0]
 80044ae:	f7ff ff4f 	bl	8004350 <u8g2_font_get_byte>
 80044b2:	4603      	mov	r3, r0
 80044b4:	b25a      	sxtb	r2, r3
 80044b6:	687b      	ldr	r3, [r7, #4]
 80044b8:	73da      	strb	r2, [r3, #15]
  font_info->descent_para = u8g2_font_get_byte(font, 16);
 80044ba:	2110      	movs	r1, #16
 80044bc:	6838      	ldr	r0, [r7, #0]
 80044be:	f7ff ff47 	bl	8004350 <u8g2_font_get_byte>
 80044c2:	4603      	mov	r3, r0
 80044c4:	b25a      	sxtb	r2, r3
 80044c6:	687b      	ldr	r3, [r7, #4]
 80044c8:	741a      	strb	r2, [r3, #16]
  
  /* offset 17 */
  font_info->start_pos_upper_A = u8g2_font_get_word(font, 17);
 80044ca:	2111      	movs	r1, #17
 80044cc:	6838      	ldr	r0, [r7, #0]
 80044ce:	f7ff ff50 	bl	8004372 <u8g2_font_get_word>
 80044d2:	4603      	mov	r3, r0
 80044d4:	461a      	mov	r2, r3
 80044d6:	687b      	ldr	r3, [r7, #4]
 80044d8:	825a      	strh	r2, [r3, #18]
  font_info->start_pos_lower_a = u8g2_font_get_word(font, 19); 
 80044da:	2113      	movs	r1, #19
 80044dc:	6838      	ldr	r0, [r7, #0]
 80044de:	f7ff ff48 	bl	8004372 <u8g2_font_get_word>
 80044e2:	4603      	mov	r3, r0
 80044e4:	461a      	mov	r2, r3
 80044e6:	687b      	ldr	r3, [r7, #4]
 80044e8:	829a      	strh	r2, [r3, #20]
  
  /* offset 21 */
#ifdef U8G2_WITH_UNICODE
  font_info->start_pos_unicode = u8g2_font_get_word(font, 21); 
 80044ea:	2115      	movs	r1, #21
 80044ec:	6838      	ldr	r0, [r7, #0]
 80044ee:	f7ff ff40 	bl	8004372 <u8g2_font_get_word>
 80044f2:	4603      	mov	r3, r0
 80044f4:	461a      	mov	r2, r3
 80044f6:	687b      	ldr	r3, [r7, #4]
 80044f8:	82da      	strh	r2, [r3, #22]
#endif
}
 80044fa:	bf00      	nop
 80044fc:	3708      	adds	r7, #8
 80044fe:	46bd      	mov	sp, r7
 8004500:	bd80      	pop	{r7, pc}

08004502 <u8g2_font_decode_get_unsigned_bits>:
/*========================================================================*/
/* glyph handling */

/* optimized */
uint8_t u8g2_font_decode_get_unsigned_bits(u8g2_font_decode_t *f, uint8_t cnt) 
{
 8004502:	b480      	push	{r7}
 8004504:	b085      	sub	sp, #20
 8004506:	af00      	add	r7, sp, #0
 8004508:	6078      	str	r0, [r7, #4]
 800450a:	460b      	mov	r3, r1
 800450c:	70fb      	strb	r3, [r7, #3]
  uint8_t val;
  uint8_t bit_pos = f->decode_bit_pos;
 800450e:	687b      	ldr	r3, [r7, #4]
 8004510:	7b1b      	ldrb	r3, [r3, #12]
 8004512:	737b      	strb	r3, [r7, #13]
  uint8_t bit_pos_plus_cnt;
  
  //val = *(f->decode_ptr);
  val = u8x8_pgm_read( f->decode_ptr );  
 8004514:	687b      	ldr	r3, [r7, #4]
 8004516:	681b      	ldr	r3, [r3, #0]
 8004518:	781b      	ldrb	r3, [r3, #0]
 800451a:	73fb      	strb	r3, [r7, #15]
  
  val >>= bit_pos;
 800451c:	7bfa      	ldrb	r2, [r7, #15]
 800451e:	7b7b      	ldrb	r3, [r7, #13]
 8004520:	fa42 f303 	asr.w	r3, r2, r3
 8004524:	73fb      	strb	r3, [r7, #15]
  bit_pos_plus_cnt = bit_pos;
 8004526:	7b7b      	ldrb	r3, [r7, #13]
 8004528:	73bb      	strb	r3, [r7, #14]
  bit_pos_plus_cnt += cnt;
 800452a:	7bba      	ldrb	r2, [r7, #14]
 800452c:	78fb      	ldrb	r3, [r7, #3]
 800452e:	4413      	add	r3, r2
 8004530:	73bb      	strb	r3, [r7, #14]
  if ( bit_pos_plus_cnt >= 8 )
 8004532:	7bbb      	ldrb	r3, [r7, #14]
 8004534:	2b07      	cmp	r3, #7
 8004536:	d91a      	bls.n	800456e <u8g2_font_decode_get_unsigned_bits+0x6c>
  {
    uint8_t s = 8;
 8004538:	2308      	movs	r3, #8
 800453a:	733b      	strb	r3, [r7, #12]
    s -= bit_pos;
 800453c:	7b3a      	ldrb	r2, [r7, #12]
 800453e:	7b7b      	ldrb	r3, [r7, #13]
 8004540:	1ad3      	subs	r3, r2, r3
 8004542:	733b      	strb	r3, [r7, #12]
    f->decode_ptr++;
 8004544:	687b      	ldr	r3, [r7, #4]
 8004546:	681b      	ldr	r3, [r3, #0]
 8004548:	1c5a      	adds	r2, r3, #1
 800454a:	687b      	ldr	r3, [r7, #4]
 800454c:	601a      	str	r2, [r3, #0]
    //val |= *(f->decode_ptr) << (8-bit_pos);
    val |= u8x8_pgm_read( f->decode_ptr ) << (s);
 800454e:	687b      	ldr	r3, [r7, #4]
 8004550:	681b      	ldr	r3, [r3, #0]
 8004552:	781b      	ldrb	r3, [r3, #0]
 8004554:	461a      	mov	r2, r3
 8004556:	7b3b      	ldrb	r3, [r7, #12]
 8004558:	fa02 f303 	lsl.w	r3, r2, r3
 800455c:	b25a      	sxtb	r2, r3
 800455e:	f997 300f 	ldrsb.w	r3, [r7, #15]
 8004562:	4313      	orrs	r3, r2
 8004564:	b25b      	sxtb	r3, r3
 8004566:	73fb      	strb	r3, [r7, #15]
    //bit_pos -= 8;
    bit_pos_plus_cnt -= 8;
 8004568:	7bbb      	ldrb	r3, [r7, #14]
 800456a:	3b08      	subs	r3, #8
 800456c:	73bb      	strb	r3, [r7, #14]
  }
  val &= (1U<<cnt)-1;
 800456e:	78fb      	ldrb	r3, [r7, #3]
 8004570:	f04f 32ff 	mov.w	r2, #4294967295
 8004574:	fa02 f303 	lsl.w	r3, r2, r3
 8004578:	b2db      	uxtb	r3, r3
 800457a:	43db      	mvns	r3, r3
 800457c:	b2da      	uxtb	r2, r3
 800457e:	7bfb      	ldrb	r3, [r7, #15]
 8004580:	4013      	ands	r3, r2
 8004582:	73fb      	strb	r3, [r7, #15]
  //bit_pos += cnt;
  
  f->decode_bit_pos = bit_pos_plus_cnt;
 8004584:	687b      	ldr	r3, [r7, #4]
 8004586:	7bba      	ldrb	r2, [r7, #14]
 8004588:	731a      	strb	r2, [r3, #12]
  return val;
 800458a:	7bfb      	ldrb	r3, [r7, #15]
}
 800458c:	4618      	mov	r0, r3
 800458e:	3714      	adds	r7, #20
 8004590:	46bd      	mov	sp, r7
 8004592:	bc80      	pop	{r7}
 8004594:	4770      	bx	lr

08004596 <u8g2_font_decode_get_signed_bits>:
	r = bits(x)+1;

*/
/* optimized */
int8_t u8g2_font_decode_get_signed_bits(u8g2_font_decode_t *f, uint8_t cnt)
{
 8004596:	b580      	push	{r7, lr}
 8004598:	b084      	sub	sp, #16
 800459a:	af00      	add	r7, sp, #0
 800459c:	6078      	str	r0, [r7, #4]
 800459e:	460b      	mov	r3, r1
 80045a0:	70fb      	strb	r3, [r7, #3]
  int8_t v, d;
  v = (int8_t)u8g2_font_decode_get_unsigned_bits(f, cnt);
 80045a2:	78fb      	ldrb	r3, [r7, #3]
 80045a4:	4619      	mov	r1, r3
 80045a6:	6878      	ldr	r0, [r7, #4]
 80045a8:	f7ff ffab 	bl	8004502 <u8g2_font_decode_get_unsigned_bits>
 80045ac:	4603      	mov	r3, r0
 80045ae:	73fb      	strb	r3, [r7, #15]
  d = 1;
 80045b0:	2301      	movs	r3, #1
 80045b2:	73bb      	strb	r3, [r7, #14]
  cnt--;
 80045b4:	78fb      	ldrb	r3, [r7, #3]
 80045b6:	3b01      	subs	r3, #1
 80045b8:	70fb      	strb	r3, [r7, #3]
  d <<= cnt;
 80045ba:	f997 200e 	ldrsb.w	r2, [r7, #14]
 80045be:	78fb      	ldrb	r3, [r7, #3]
 80045c0:	fa02 f303 	lsl.w	r3, r2, r3
 80045c4:	73bb      	strb	r3, [r7, #14]
  v -= d;
 80045c6:	7bfa      	ldrb	r2, [r7, #15]
 80045c8:	7bbb      	ldrb	r3, [r7, #14]
 80045ca:	1ad3      	subs	r3, r2, r3
 80045cc:	b2db      	uxtb	r3, r3
 80045ce:	73fb      	strb	r3, [r7, #15]
  return v;
 80045d0:	f997 300f 	ldrsb.w	r3, [r7, #15]
  //return (int8_t)u8g2_font_decode_get_unsigned_bits(f, cnt) - ((1<<cnt)>>1);
}
 80045d4:	4618      	mov	r0, r3
 80045d6:	3710      	adds	r7, #16
 80045d8:	46bd      	mov	sp, r7
 80045da:	bd80      	pop	{r7, pc}

080045dc <u8g2_add_vector_y>:


#ifdef U8G2_WITH_FONT_ROTATION
u8g2_uint_t u8g2_add_vector_y(u8g2_uint_t dy, int8_t x, int8_t y, uint8_t dir)
{
 80045dc:	b490      	push	{r4, r7}
 80045de:	b082      	sub	sp, #8
 80045e0:	af00      	add	r7, sp, #0
 80045e2:	4604      	mov	r4, r0
 80045e4:	4608      	mov	r0, r1
 80045e6:	4611      	mov	r1, r2
 80045e8:	461a      	mov	r2, r3
 80045ea:	4623      	mov	r3, r4
 80045ec:	80fb      	strh	r3, [r7, #6]
 80045ee:	4603      	mov	r3, r0
 80045f0:	717b      	strb	r3, [r7, #5]
 80045f2:	460b      	mov	r3, r1
 80045f4:	713b      	strb	r3, [r7, #4]
 80045f6:	4613      	mov	r3, r2
 80045f8:	70fb      	strb	r3, [r7, #3]
  switch(dir)
 80045fa:	78fb      	ldrb	r3, [r7, #3]
 80045fc:	2b02      	cmp	r3, #2
 80045fe:	d014      	beq.n	800462a <u8g2_add_vector_y+0x4e>
 8004600:	2b02      	cmp	r3, #2
 8004602:	dc19      	bgt.n	8004638 <u8g2_add_vector_y+0x5c>
 8004604:	2b00      	cmp	r3, #0
 8004606:	d002      	beq.n	800460e <u8g2_add_vector_y+0x32>
 8004608:	2b01      	cmp	r3, #1
 800460a:	d007      	beq.n	800461c <u8g2_add_vector_y+0x40>
 800460c:	e014      	b.n	8004638 <u8g2_add_vector_y+0x5c>
  {
    case 0:
      dy += y;
 800460e:	f997 3004 	ldrsb.w	r3, [r7, #4]
 8004612:	b29a      	uxth	r2, r3
 8004614:	88fb      	ldrh	r3, [r7, #6]
 8004616:	4413      	add	r3, r2
 8004618:	80fb      	strh	r3, [r7, #6]
      break;
 800461a:	e014      	b.n	8004646 <u8g2_add_vector_y+0x6a>
    case 1:
      dy += x;
 800461c:	f997 3005 	ldrsb.w	r3, [r7, #5]
 8004620:	b29a      	uxth	r2, r3
 8004622:	88fb      	ldrh	r3, [r7, #6]
 8004624:	4413      	add	r3, r2
 8004626:	80fb      	strh	r3, [r7, #6]
      break;
 8004628:	e00d      	b.n	8004646 <u8g2_add_vector_y+0x6a>
    case 2:
      dy -= y;
 800462a:	f997 3004 	ldrsb.w	r3, [r7, #4]
 800462e:	b29b      	uxth	r3, r3
 8004630:	88fa      	ldrh	r2, [r7, #6]
 8004632:	1ad3      	subs	r3, r2, r3
 8004634:	80fb      	strh	r3, [r7, #6]
      break;
 8004636:	e006      	b.n	8004646 <u8g2_add_vector_y+0x6a>
    default:
      dy -= x;
 8004638:	f997 3005 	ldrsb.w	r3, [r7, #5]
 800463c:	b29b      	uxth	r3, r3
 800463e:	88fa      	ldrh	r2, [r7, #6]
 8004640:	1ad3      	subs	r3, r2, r3
 8004642:	80fb      	strh	r3, [r7, #6]
      break;      
 8004644:	bf00      	nop
  }
  return dy;
 8004646:	88fb      	ldrh	r3, [r7, #6]
}
 8004648:	4618      	mov	r0, r3
 800464a:	3708      	adds	r7, #8
 800464c:	46bd      	mov	sp, r7
 800464e:	bc90      	pop	{r4, r7}
 8004650:	4770      	bx	lr

08004652 <u8g2_add_vector_x>:

u8g2_uint_t u8g2_add_vector_x(u8g2_uint_t dx, int8_t x, int8_t y, uint8_t dir)
{
 8004652:	b490      	push	{r4, r7}
 8004654:	b082      	sub	sp, #8
 8004656:	af00      	add	r7, sp, #0
 8004658:	4604      	mov	r4, r0
 800465a:	4608      	mov	r0, r1
 800465c:	4611      	mov	r1, r2
 800465e:	461a      	mov	r2, r3
 8004660:	4623      	mov	r3, r4
 8004662:	80fb      	strh	r3, [r7, #6]
 8004664:	4603      	mov	r3, r0
 8004666:	717b      	strb	r3, [r7, #5]
 8004668:	460b      	mov	r3, r1
 800466a:	713b      	strb	r3, [r7, #4]
 800466c:	4613      	mov	r3, r2
 800466e:	70fb      	strb	r3, [r7, #3]
  switch(dir)
 8004670:	78fb      	ldrb	r3, [r7, #3]
 8004672:	2b02      	cmp	r3, #2
 8004674:	d014      	beq.n	80046a0 <u8g2_add_vector_x+0x4e>
 8004676:	2b02      	cmp	r3, #2
 8004678:	dc19      	bgt.n	80046ae <u8g2_add_vector_x+0x5c>
 800467a:	2b00      	cmp	r3, #0
 800467c:	d002      	beq.n	8004684 <u8g2_add_vector_x+0x32>
 800467e:	2b01      	cmp	r3, #1
 8004680:	d007      	beq.n	8004692 <u8g2_add_vector_x+0x40>
 8004682:	e014      	b.n	80046ae <u8g2_add_vector_x+0x5c>
  {
    case 0:
      dx += x;
 8004684:	f997 3005 	ldrsb.w	r3, [r7, #5]
 8004688:	b29a      	uxth	r2, r3
 800468a:	88fb      	ldrh	r3, [r7, #6]
 800468c:	4413      	add	r3, r2
 800468e:	80fb      	strh	r3, [r7, #6]
      break;
 8004690:	e014      	b.n	80046bc <u8g2_add_vector_x+0x6a>
    case 1:
      dx -= y;
 8004692:	f997 3004 	ldrsb.w	r3, [r7, #4]
 8004696:	b29b      	uxth	r3, r3
 8004698:	88fa      	ldrh	r2, [r7, #6]
 800469a:	1ad3      	subs	r3, r2, r3
 800469c:	80fb      	strh	r3, [r7, #6]
      break;
 800469e:	e00d      	b.n	80046bc <u8g2_add_vector_x+0x6a>
    case 2:
      dx -= x;
 80046a0:	f997 3005 	ldrsb.w	r3, [r7, #5]
 80046a4:	b29b      	uxth	r3, r3
 80046a6:	88fa      	ldrh	r2, [r7, #6]
 80046a8:	1ad3      	subs	r3, r2, r3
 80046aa:	80fb      	strh	r3, [r7, #6]
      break;
 80046ac:	e006      	b.n	80046bc <u8g2_add_vector_x+0x6a>
    default:
      dx += y;
 80046ae:	f997 3004 	ldrsb.w	r3, [r7, #4]
 80046b2:	b29a      	uxth	r2, r3
 80046b4:	88fb      	ldrh	r3, [r7, #6]
 80046b6:	4413      	add	r3, r2
 80046b8:	80fb      	strh	r3, [r7, #6]
      break;      
 80046ba:	bf00      	nop
  }
  return dx;
 80046bc:	88fb      	ldrh	r3, [r7, #6]
}
 80046be:	4618      	mov	r0, r3
 80046c0:	3708      	adds	r7, #8
 80046c2:	46bd      	mov	sp, r7
 80046c4:	bc90      	pop	{r4, r7}
 80046c6:	4770      	bx	lr

080046c8 <u8g2_font_decode_len>:
  Called by:
    u8g2_font_decode_glyph()
*/
/* optimized */
void u8g2_font_decode_len(u8g2_t *u8g2, uint8_t len, uint8_t is_foreground)
{
 80046c8:	b580      	push	{r7, lr}
 80046ca:	b088      	sub	sp, #32
 80046cc:	af02      	add	r7, sp, #8
 80046ce:	6078      	str	r0, [r7, #4]
 80046d0:	460b      	mov	r3, r1
 80046d2:	70fb      	strb	r3, [r7, #3]
 80046d4:	4613      	mov	r3, r2
 80046d6:	70bb      	strb	r3, [r7, #2]
  uint8_t lx,ly;
  
  /* target position on the screen */
  u8g2_uint_t x, y;
  
  u8g2_font_decode_t *decode = &(u8g2->font_decode);
 80046d8:	687b      	ldr	r3, [r7, #4]
 80046da:	3360      	adds	r3, #96	; 0x60
 80046dc:	613b      	str	r3, [r7, #16]
  
  cnt = len;
 80046de:	78fb      	ldrb	r3, [r7, #3]
 80046e0:	75fb      	strb	r3, [r7, #23]
  
  /* get the local position */
  lx = decode->x;
 80046e2:	693b      	ldr	r3, [r7, #16]
 80046e4:	f993 3008 	ldrsb.w	r3, [r3, #8]
 80046e8:	757b      	strb	r3, [r7, #21]
  ly = decode->y;
 80046ea:	693b      	ldr	r3, [r7, #16]
 80046ec:	f993 3009 	ldrsb.w	r3, [r3, #9]
 80046f0:	753b      	strb	r3, [r7, #20]
  
  for(;;)
  {
    /* calculate the number of pixel to the right edge of the glyph */
    rem = decode->glyph_width;
 80046f2:	693b      	ldr	r3, [r7, #16]
 80046f4:	f993 300a 	ldrsb.w	r3, [r3, #10]
 80046f8:	73fb      	strb	r3, [r7, #15]
    rem -= lx;
 80046fa:	7bfa      	ldrb	r2, [r7, #15]
 80046fc:	7d7b      	ldrb	r3, [r7, #21]
 80046fe:	1ad3      	subs	r3, r2, r3
 8004700:	73fb      	strb	r3, [r7, #15]
    
    /* calculate how many pixel to draw. This is either to the right edge */
    /* or lesser, if not enough pixel are left */
    current = rem;
 8004702:	7bfb      	ldrb	r3, [r7, #15]
 8004704:	75bb      	strb	r3, [r7, #22]
    if ( cnt < rem )
 8004706:	7dfa      	ldrb	r2, [r7, #23]
 8004708:	7bfb      	ldrb	r3, [r7, #15]
 800470a:	429a      	cmp	r2, r3
 800470c:	d201      	bcs.n	8004712 <u8g2_font_decode_len+0x4a>
      current = cnt;
 800470e:	7dfb      	ldrb	r3, [r7, #23]
 8004710:	75bb      	strb	r3, [r7, #22]
    
    /* now draw the line, but apply the rotation around the glyph target position */
    //u8g2_font_decode_draw_pixel(u8g2, lx,ly,current, is_foreground);

    /* get target position */
    x = decode->target_x;
 8004712:	693b      	ldr	r3, [r7, #16]
 8004714:	889b      	ldrh	r3, [r3, #4]
 8004716:	81bb      	strh	r3, [r7, #12]
    y = decode->target_y;
 8004718:	693b      	ldr	r3, [r7, #16]
 800471a:	88db      	ldrh	r3, [r3, #6]
 800471c:	817b      	strh	r3, [r7, #10]

    /* apply rotation */
#ifdef U8G2_WITH_FONT_ROTATION
    
    x = u8g2_add_vector_x(x, lx, ly, decode->dir);
 800471e:	f997 1015 	ldrsb.w	r1, [r7, #21]
 8004722:	f997 2014 	ldrsb.w	r2, [r7, #20]
 8004726:	693b      	ldr	r3, [r7, #16]
 8004728:	7c1b      	ldrb	r3, [r3, #16]
 800472a:	89b8      	ldrh	r0, [r7, #12]
 800472c:	f7ff ff91 	bl	8004652 <u8g2_add_vector_x>
 8004730:	4603      	mov	r3, r0
 8004732:	81bb      	strh	r3, [r7, #12]
    y = u8g2_add_vector_y(y, lx, ly, decode->dir);
 8004734:	f997 1015 	ldrsb.w	r1, [r7, #21]
 8004738:	f997 2014 	ldrsb.w	r2, [r7, #20]
 800473c:	693b      	ldr	r3, [r7, #16]
 800473e:	7c1b      	ldrb	r3, [r3, #16]
 8004740:	8978      	ldrh	r0, [r7, #10]
 8004742:	f7ff ff4b 	bl	80045dc <u8g2_add_vector_y>
 8004746:	4603      	mov	r3, r0
 8004748:	817b      	strh	r3, [r7, #10]
    x += lx;
    y += ly;
#endif
    
    /* draw foreground and background (if required) */
    if ( is_foreground )
 800474a:	78bb      	ldrb	r3, [r7, #2]
 800474c:	2b00      	cmp	r3, #0
 800474e:	d010      	beq.n	8004772 <u8g2_font_decode_len+0xaa>
    {
      u8g2->draw_color = decode->fg_color;			/* draw_color will be restored later */
 8004750:	693b      	ldr	r3, [r7, #16]
 8004752:	7b9a      	ldrb	r2, [r3, #14]
 8004754:	687b      	ldr	r3, [r7, #4]
 8004756:	f883 2092 	strb.w	r2, [r3, #146]	; 0x92
      u8g2_DrawHVLine(u8g2, 
 800475a:	7dbb      	ldrb	r3, [r7, #22]
 800475c:	b298      	uxth	r0, r3
 800475e:	693b      	ldr	r3, [r7, #16]
 8004760:	7c1b      	ldrb	r3, [r3, #16]
 8004762:	897a      	ldrh	r2, [r7, #10]
 8004764:	89b9      	ldrh	r1, [r7, #12]
 8004766:	9300      	str	r3, [sp, #0]
 8004768:	4603      	mov	r3, r0
 800476a:	6878      	ldr	r0, [r7, #4]
 800476c:	f000 fbfa 	bl	8004f64 <u8g2_DrawHVLine>
 8004770:	e013      	b.n	800479a <u8g2_font_decode_len+0xd2>
#else
	0
#endif
      );
    }
    else if ( decode->is_transparent == 0 )    
 8004772:	693b      	ldr	r3, [r7, #16]
 8004774:	7b5b      	ldrb	r3, [r3, #13]
 8004776:	2b00      	cmp	r3, #0
 8004778:	d10f      	bne.n	800479a <u8g2_font_decode_len+0xd2>
    {
      u8g2->draw_color = decode->bg_color;			/* draw_color will be restored later */
 800477a:	693b      	ldr	r3, [r7, #16]
 800477c:	7bda      	ldrb	r2, [r3, #15]
 800477e:	687b      	ldr	r3, [r7, #4]
 8004780:	f883 2092 	strb.w	r2, [r3, #146]	; 0x92
      u8g2_DrawHVLine(u8g2, 
 8004784:	7dbb      	ldrb	r3, [r7, #22]
 8004786:	b298      	uxth	r0, r3
 8004788:	693b      	ldr	r3, [r7, #16]
 800478a:	7c1b      	ldrb	r3, [r3, #16]
 800478c:	897a      	ldrh	r2, [r7, #10]
 800478e:	89b9      	ldrh	r1, [r7, #12]
 8004790:	9300      	str	r3, [sp, #0]
 8004792:	4603      	mov	r3, r0
 8004794:	6878      	ldr	r0, [r7, #4]
 8004796:	f000 fbe5 	bl	8004f64 <u8g2_DrawHVLine>
#endif
      );   
    }
    
    /* check, whether the end of the run length code has been reached */
    if ( cnt < rem )
 800479a:	7dfa      	ldrb	r2, [r7, #23]
 800479c:	7bfb      	ldrb	r3, [r7, #15]
 800479e:	429a      	cmp	r2, r3
 80047a0:	d309      	bcc.n	80047b6 <u8g2_font_decode_len+0xee>
      break;
    cnt -= rem;
 80047a2:	7dfa      	ldrb	r2, [r7, #23]
 80047a4:	7bfb      	ldrb	r3, [r7, #15]
 80047a6:	1ad3      	subs	r3, r2, r3
 80047a8:	75fb      	strb	r3, [r7, #23]
    lx = 0;
 80047aa:	2300      	movs	r3, #0
 80047ac:	757b      	strb	r3, [r7, #21]
    ly++;
 80047ae:	7d3b      	ldrb	r3, [r7, #20]
 80047b0:	3301      	adds	r3, #1
 80047b2:	753b      	strb	r3, [r7, #20]
    rem = decode->glyph_width;
 80047b4:	e79d      	b.n	80046f2 <u8g2_font_decode_len+0x2a>
      break;
 80047b6:	bf00      	nop
  }
  lx += cnt;
 80047b8:	7d7a      	ldrb	r2, [r7, #21]
 80047ba:	7dfb      	ldrb	r3, [r7, #23]
 80047bc:	4413      	add	r3, r2
 80047be:	757b      	strb	r3, [r7, #21]
  
  decode->x = lx;
 80047c0:	f997 2015 	ldrsb.w	r2, [r7, #21]
 80047c4:	693b      	ldr	r3, [r7, #16]
 80047c6:	721a      	strb	r2, [r3, #8]
  decode->y = ly;
 80047c8:	f997 2014 	ldrsb.w	r2, [r7, #20]
 80047cc:	693b      	ldr	r3, [r7, #16]
 80047ce:	725a      	strb	r2, [r3, #9]
  
}
 80047d0:	bf00      	nop
 80047d2:	3718      	adds	r7, #24
 80047d4:	46bd      	mov	sp, r7
 80047d6:	bd80      	pop	{r7, pc}

080047d8 <u8g2_font_setup_decode>:

static void u8g2_font_setup_decode(u8g2_t *u8g2, const uint8_t *glyph_data)
{
 80047d8:	b580      	push	{r7, lr}
 80047da:	b084      	sub	sp, #16
 80047dc:	af00      	add	r7, sp, #0
 80047de:	6078      	str	r0, [r7, #4]
 80047e0:	6039      	str	r1, [r7, #0]
  u8g2_font_decode_t *decode = &(u8g2->font_decode);
 80047e2:	687b      	ldr	r3, [r7, #4]
 80047e4:	3360      	adds	r3, #96	; 0x60
 80047e6:	60fb      	str	r3, [r7, #12]
  decode->decode_ptr = glyph_data;
 80047e8:	68fb      	ldr	r3, [r7, #12]
 80047ea:	683a      	ldr	r2, [r7, #0]
 80047ec:	601a      	str	r2, [r3, #0]
  decode->decode_bit_pos = 0;
 80047ee:	68fb      	ldr	r3, [r7, #12]
 80047f0:	2200      	movs	r2, #0
 80047f2:	731a      	strb	r2, [r3, #12]
  /*
  decode->decode_ptr += 1;
  decode->decode_ptr += 1;
  */
  
  decode->glyph_width = u8g2_font_decode_get_unsigned_bits(decode, u8g2->font_info.bits_per_char_width);
 80047f4:	687b      	ldr	r3, [r7, #4]
 80047f6:	f893 3078 	ldrb.w	r3, [r3, #120]	; 0x78
 80047fa:	4619      	mov	r1, r3
 80047fc:	68f8      	ldr	r0, [r7, #12]
 80047fe:	f7ff fe80 	bl	8004502 <u8g2_font_decode_get_unsigned_bits>
 8004802:	4603      	mov	r3, r0
 8004804:	b25a      	sxtb	r2, r3
 8004806:	68fb      	ldr	r3, [r7, #12]
 8004808:	729a      	strb	r2, [r3, #10]
  decode->glyph_height = u8g2_font_decode_get_unsigned_bits(decode,u8g2->font_info.bits_per_char_height);
 800480a:	687b      	ldr	r3, [r7, #4]
 800480c:	f893 3079 	ldrb.w	r3, [r3, #121]	; 0x79
 8004810:	4619      	mov	r1, r3
 8004812:	68f8      	ldr	r0, [r7, #12]
 8004814:	f7ff fe75 	bl	8004502 <u8g2_font_decode_get_unsigned_bits>
 8004818:	4603      	mov	r3, r0
 800481a:	b25a      	sxtb	r2, r3
 800481c:	68fb      	ldr	r3, [r7, #12]
 800481e:	72da      	strb	r2, [r3, #11]
  
  decode->fg_color = u8g2->draw_color;
 8004820:	687b      	ldr	r3, [r7, #4]
 8004822:	f893 2092 	ldrb.w	r2, [r3, #146]	; 0x92
 8004826:	68fb      	ldr	r3, [r7, #12]
 8004828:	739a      	strb	r2, [r3, #14]
  decode->bg_color = (decode->fg_color == 0 ? 1 : 0);
 800482a:	68fb      	ldr	r3, [r7, #12]
 800482c:	7b9b      	ldrb	r3, [r3, #14]
 800482e:	2b00      	cmp	r3, #0
 8004830:	bf0c      	ite	eq
 8004832:	2301      	moveq	r3, #1
 8004834:	2300      	movne	r3, #0
 8004836:	b2db      	uxtb	r3, r3
 8004838:	461a      	mov	r2, r3
 800483a:	68fb      	ldr	r3, [r7, #12]
 800483c:	73da      	strb	r2, [r3, #15]
}
 800483e:	bf00      	nop
 8004840:	3710      	adds	r7, #16
 8004842:	46bd      	mov	sp, r7
 8004844:	bd80      	pop	{r7, pc}
	...

08004848 <u8g2_font_decode_glyph>:
  Calls:
    u8g2_font_decode_len()
*/
/* optimized */
int8_t u8g2_font_decode_glyph(u8g2_t *u8g2, const uint8_t *glyph_data)
{
 8004848:	b580      	push	{r7, lr}
 800484a:	b08a      	sub	sp, #40	; 0x28
 800484c:	af02      	add	r7, sp, #8
 800484e:	6078      	str	r0, [r7, #4]
 8004850:	6039      	str	r1, [r7, #0]
  uint8_t a, b;
  int8_t x, y;
  int8_t d;
  int8_t h;
  u8g2_font_decode_t *decode = &(u8g2->font_decode);
 8004852:	687b      	ldr	r3, [r7, #4]
 8004854:	3360      	adds	r3, #96	; 0x60
 8004856:	617b      	str	r3, [r7, #20]
    
  u8g2_font_setup_decode(u8g2, glyph_data);
 8004858:	6839      	ldr	r1, [r7, #0]
 800485a:	6878      	ldr	r0, [r7, #4]
 800485c:	f7ff ffbc 	bl	80047d8 <u8g2_font_setup_decode>
  h = u8g2->font_decode.glyph_height;
 8004860:	687b      	ldr	r3, [r7, #4]
 8004862:	f893 306b 	ldrb.w	r3, [r3, #107]	; 0x6b
 8004866:	74fb      	strb	r3, [r7, #19]
  
  x = u8g2_font_decode_get_signed_bits(decode, u8g2->font_info.bits_per_char_x);
 8004868:	687b      	ldr	r3, [r7, #4]
 800486a:	f893 307a 	ldrb.w	r3, [r3, #122]	; 0x7a
 800486e:	4619      	mov	r1, r3
 8004870:	6978      	ldr	r0, [r7, #20]
 8004872:	f7ff fe90 	bl	8004596 <u8g2_font_decode_get_signed_bits>
 8004876:	4603      	mov	r3, r0
 8004878:	74bb      	strb	r3, [r7, #18]
  y = u8g2_font_decode_get_signed_bits(decode, u8g2->font_info.bits_per_char_y);
 800487a:	687b      	ldr	r3, [r7, #4]
 800487c:	f893 307b 	ldrb.w	r3, [r3, #123]	; 0x7b
 8004880:	4619      	mov	r1, r3
 8004882:	6978      	ldr	r0, [r7, #20]
 8004884:	f7ff fe87 	bl	8004596 <u8g2_font_decode_get_signed_bits>
 8004888:	4603      	mov	r3, r0
 800488a:	747b      	strb	r3, [r7, #17]
  d = u8g2_font_decode_get_signed_bits(decode, u8g2->font_info.bits_per_delta_x);
 800488c:	687b      	ldr	r3, [r7, #4]
 800488e:	f893 307c 	ldrb.w	r3, [r3, #124]	; 0x7c
 8004892:	4619      	mov	r1, r3
 8004894:	6978      	ldr	r0, [r7, #20]
 8004896:	f7ff fe7e 	bl	8004596 <u8g2_font_decode_get_signed_bits>
 800489a:	4603      	mov	r3, r0
 800489c:	743b      	strb	r3, [r7, #16]
  
  if ( decode->glyph_width > 0 )
 800489e:	697b      	ldr	r3, [r7, #20]
 80048a0:	f993 300a 	ldrsb.w	r3, [r3, #10]
 80048a4:	2b00      	cmp	r3, #0
 80048a6:	f340 80d7 	ble.w	8004a58 <u8g2_font_decode_glyph+0x210>
  {
#ifdef U8G2_WITH_FONT_ROTATION
    decode->target_x = u8g2_add_vector_x(decode->target_x, x, -(h+y), decode->dir);
 80048aa:	697b      	ldr	r3, [r7, #20]
 80048ac:	8898      	ldrh	r0, [r3, #4]
 80048ae:	7cfa      	ldrb	r2, [r7, #19]
 80048b0:	7c7b      	ldrb	r3, [r7, #17]
 80048b2:	4413      	add	r3, r2
 80048b4:	b2db      	uxtb	r3, r3
 80048b6:	425b      	negs	r3, r3
 80048b8:	b2db      	uxtb	r3, r3
 80048ba:	b25a      	sxtb	r2, r3
 80048bc:	697b      	ldr	r3, [r7, #20]
 80048be:	7c1b      	ldrb	r3, [r3, #16]
 80048c0:	f997 1012 	ldrsb.w	r1, [r7, #18]
 80048c4:	f7ff fec5 	bl	8004652 <u8g2_add_vector_x>
 80048c8:	4603      	mov	r3, r0
 80048ca:	461a      	mov	r2, r3
 80048cc:	697b      	ldr	r3, [r7, #20]
 80048ce:	809a      	strh	r2, [r3, #4]
    decode->target_y = u8g2_add_vector_y(decode->target_y, x, -(h+y), decode->dir);
 80048d0:	697b      	ldr	r3, [r7, #20]
 80048d2:	88d8      	ldrh	r0, [r3, #6]
 80048d4:	7cfa      	ldrb	r2, [r7, #19]
 80048d6:	7c7b      	ldrb	r3, [r7, #17]
 80048d8:	4413      	add	r3, r2
 80048da:	b2db      	uxtb	r3, r3
 80048dc:	425b      	negs	r3, r3
 80048de:	b2db      	uxtb	r3, r3
 80048e0:	b25a      	sxtb	r2, r3
 80048e2:	697b      	ldr	r3, [r7, #20]
 80048e4:	7c1b      	ldrb	r3, [r3, #16]
 80048e6:	f997 1012 	ldrsb.w	r1, [r7, #18]
 80048ea:	f7ff fe77 	bl	80045dc <u8g2_add_vector_y>
 80048ee:	4603      	mov	r3, r0
 80048f0:	461a      	mov	r2, r3
 80048f2:	697b      	ldr	r3, [r7, #20]
 80048f4:	80da      	strh	r2, [r3, #6]
    //u8g2_add_vector(&(decode->target_x), &(decode->target_y), x, -(h+y), decode->dir);

#ifdef U8G2_WITH_INTERSECTION
    {
      u8g2_uint_t x0, x1, y0, y1;
      x0 = decode->target_x;
 80048f6:	697b      	ldr	r3, [r7, #20]
 80048f8:	889b      	ldrh	r3, [r3, #4]
 80048fa:	83fb      	strh	r3, [r7, #30]
      y0 = decode->target_y;
 80048fc:	697b      	ldr	r3, [r7, #20]
 80048fe:	88db      	ldrh	r3, [r3, #6]
 8004900:	837b      	strh	r3, [r7, #26]
      x1 = x0;
 8004902:	8bfb      	ldrh	r3, [r7, #30]
 8004904:	83bb      	strh	r3, [r7, #28]
      y1 = y0;
 8004906:	8b7b      	ldrh	r3, [r7, #26]
 8004908:	833b      	strh	r3, [r7, #24]
      
#ifdef U8G2_WITH_FONT_ROTATION
      switch(decode->dir)
 800490a:	697b      	ldr	r3, [r7, #20]
 800490c:	7c1b      	ldrb	r3, [r3, #16]
 800490e:	2b03      	cmp	r3, #3
 8004910:	d85a      	bhi.n	80049c8 <u8g2_font_decode_glyph+0x180>
 8004912:	a201      	add	r2, pc, #4	; (adr r2, 8004918 <u8g2_font_decode_glyph+0xd0>)
 8004914:	f852 f023 	ldr.w	pc, [r2, r3, lsl #2]
 8004918:	08004929 	.word	0x08004929
 800491c:	08004945 	.word	0x08004945
 8004920:	0800496d 	.word	0x0800496d
 8004924:	080049a1 	.word	0x080049a1
      {
	case 0:
	    x1 += decode->glyph_width;
 8004928:	697b      	ldr	r3, [r7, #20]
 800492a:	f993 300a 	ldrsb.w	r3, [r3, #10]
 800492e:	b29a      	uxth	r2, r3
 8004930:	8bbb      	ldrh	r3, [r7, #28]
 8004932:	4413      	add	r3, r2
 8004934:	83bb      	strh	r3, [r7, #28]
	    y1 += h;
 8004936:	f997 3013 	ldrsb.w	r3, [r7, #19]
 800493a:	b29a      	uxth	r2, r3
 800493c:	8b3b      	ldrh	r3, [r7, #24]
 800493e:	4413      	add	r3, r2
 8004940:	833b      	strh	r3, [r7, #24]
	    break;
 8004942:	e041      	b.n	80049c8 <u8g2_font_decode_glyph+0x180>
	case 1:
	    x0 -= h;
 8004944:	f997 3013 	ldrsb.w	r3, [r7, #19]
 8004948:	b29b      	uxth	r3, r3
 800494a:	8bfa      	ldrh	r2, [r7, #30]
 800494c:	1ad3      	subs	r3, r2, r3
 800494e:	83fb      	strh	r3, [r7, #30]
	    x0++;	/* shift down, because of assymetric boundaries for the interseciton test */
 8004950:	8bfb      	ldrh	r3, [r7, #30]
 8004952:	3301      	adds	r3, #1
 8004954:	83fb      	strh	r3, [r7, #30]
	    x1++;
 8004956:	8bbb      	ldrh	r3, [r7, #28]
 8004958:	3301      	adds	r3, #1
 800495a:	83bb      	strh	r3, [r7, #28]
	    y1 += decode->glyph_width;
 800495c:	697b      	ldr	r3, [r7, #20]
 800495e:	f993 300a 	ldrsb.w	r3, [r3, #10]
 8004962:	b29a      	uxth	r2, r3
 8004964:	8b3b      	ldrh	r3, [r7, #24]
 8004966:	4413      	add	r3, r2
 8004968:	833b      	strh	r3, [r7, #24]
	    break;
 800496a:	e02d      	b.n	80049c8 <u8g2_font_decode_glyph+0x180>
	case 2:
	    x0 -= decode->glyph_width;
 800496c:	697b      	ldr	r3, [r7, #20]
 800496e:	f993 300a 	ldrsb.w	r3, [r3, #10]
 8004972:	b29b      	uxth	r3, r3
 8004974:	8bfa      	ldrh	r2, [r7, #30]
 8004976:	1ad3      	subs	r3, r2, r3
 8004978:	83fb      	strh	r3, [r7, #30]
	    x0++;	/* shift down, because of assymetric boundaries for the interseciton test */
 800497a:	8bfb      	ldrh	r3, [r7, #30]
 800497c:	3301      	adds	r3, #1
 800497e:	83fb      	strh	r3, [r7, #30]
	    x1++;
 8004980:	8bbb      	ldrh	r3, [r7, #28]
 8004982:	3301      	adds	r3, #1
 8004984:	83bb      	strh	r3, [r7, #28]
	    y0 -= h;
 8004986:	f997 3013 	ldrsb.w	r3, [r7, #19]
 800498a:	b29b      	uxth	r3, r3
 800498c:	8b7a      	ldrh	r2, [r7, #26]
 800498e:	1ad3      	subs	r3, r2, r3
 8004990:	837b      	strh	r3, [r7, #26]
	    y0++;	/* shift down, because of assymetric boundaries for the interseciton test */
 8004992:	8b7b      	ldrh	r3, [r7, #26]
 8004994:	3301      	adds	r3, #1
 8004996:	837b      	strh	r3, [r7, #26]
	    y1++;
 8004998:	8b3b      	ldrh	r3, [r7, #24]
 800499a:	3301      	adds	r3, #1
 800499c:	833b      	strh	r3, [r7, #24]
	    break;	  
 800499e:	e013      	b.n	80049c8 <u8g2_font_decode_glyph+0x180>
	case 3:
	    x1 += h;
 80049a0:	f997 3013 	ldrsb.w	r3, [r7, #19]
 80049a4:	b29a      	uxth	r2, r3
 80049a6:	8bbb      	ldrh	r3, [r7, #28]
 80049a8:	4413      	add	r3, r2
 80049aa:	83bb      	strh	r3, [r7, #28]
	    y0 -= decode->glyph_width;
 80049ac:	697b      	ldr	r3, [r7, #20]
 80049ae:	f993 300a 	ldrsb.w	r3, [r3, #10]
 80049b2:	b29b      	uxth	r3, r3
 80049b4:	8b7a      	ldrh	r2, [r7, #26]
 80049b6:	1ad3      	subs	r3, r2, r3
 80049b8:	837b      	strh	r3, [r7, #26]
	    y0++;	/* shift down, because of assymetric boundaries for the interseciton test */
 80049ba:	8b7b      	ldrh	r3, [r7, #26]
 80049bc:	3301      	adds	r3, #1
 80049be:	837b      	strh	r3, [r7, #26]
	    y1++;
 80049c0:	8b3b      	ldrh	r3, [r7, #24]
 80049c2:	3301      	adds	r3, #1
 80049c4:	833b      	strh	r3, [r7, #24]
	    break;	  
 80049c6:	bf00      	nop
#else /* U8G2_WITH_FONT_ROTATION */
      x1 += decode->glyph_width;
      y1 += h;      
#endif
      
      if ( u8g2_IsIntersection(u8g2, x0, y0, x1, y1) == 0 ) 
 80049c8:	8bb8      	ldrh	r0, [r7, #28]
 80049ca:	8b7a      	ldrh	r2, [r7, #26]
 80049cc:	8bf9      	ldrh	r1, [r7, #30]
 80049ce:	8b3b      	ldrh	r3, [r7, #24]
 80049d0:	9300      	str	r3, [sp, #0]
 80049d2:	4603      	mov	r3, r0
 80049d4:	6878      	ldr	r0, [r7, #4]
 80049d6:	f000 fbb2 	bl	800513e <u8g2_IsIntersection>
 80049da:	4603      	mov	r3, r0
 80049dc:	2b00      	cmp	r3, #0
 80049de:	d102      	bne.n	80049e6 <u8g2_font_decode_glyph+0x19e>
	return d;
 80049e0:	f997 3010 	ldrsb.w	r3, [r7, #16]
 80049e4:	e03a      	b.n	8004a5c <u8g2_font_decode_glyph+0x214>
    }
#endif /* U8G2_WITH_INTERSECTION */
   
    /* reset local x/y position */
    decode->x = 0;
 80049e6:	697b      	ldr	r3, [r7, #20]
 80049e8:	2200      	movs	r2, #0
 80049ea:	721a      	strb	r2, [r3, #8]
    decode->y = 0;
 80049ec:	697b      	ldr	r3, [r7, #20]
 80049ee:	2200      	movs	r2, #0
 80049f0:	725a      	strb	r2, [r3, #9]
    
    /* decode glyph */
    for(;;)
    {
      a = u8g2_font_decode_get_unsigned_bits(decode, u8g2->font_info.bits_per_0);
 80049f2:	687b      	ldr	r3, [r7, #4]
 80049f4:	f893 3076 	ldrb.w	r3, [r3, #118]	; 0x76
 80049f8:	4619      	mov	r1, r3
 80049fa:	6978      	ldr	r0, [r7, #20]
 80049fc:	f7ff fd81 	bl	8004502 <u8g2_font_decode_get_unsigned_bits>
 8004a00:	4603      	mov	r3, r0
 8004a02:	73fb      	strb	r3, [r7, #15]
      b = u8g2_font_decode_get_unsigned_bits(decode, u8g2->font_info.bits_per_1);
 8004a04:	687b      	ldr	r3, [r7, #4]
 8004a06:	f893 3077 	ldrb.w	r3, [r3, #119]	; 0x77
 8004a0a:	4619      	mov	r1, r3
 8004a0c:	6978      	ldr	r0, [r7, #20]
 8004a0e:	f7ff fd78 	bl	8004502 <u8g2_font_decode_get_unsigned_bits>
 8004a12:	4603      	mov	r3, r0
 8004a14:	73bb      	strb	r3, [r7, #14]
      do
      {
	u8g2_font_decode_len(u8g2, a, 0);
 8004a16:	7bfb      	ldrb	r3, [r7, #15]
 8004a18:	2200      	movs	r2, #0
 8004a1a:	4619      	mov	r1, r3
 8004a1c:	6878      	ldr	r0, [r7, #4]
 8004a1e:	f7ff fe53 	bl	80046c8 <u8g2_font_decode_len>
	u8g2_font_decode_len(u8g2, b, 1);
 8004a22:	7bbb      	ldrb	r3, [r7, #14]
 8004a24:	2201      	movs	r2, #1
 8004a26:	4619      	mov	r1, r3
 8004a28:	6878      	ldr	r0, [r7, #4]
 8004a2a:	f7ff fe4d 	bl	80046c8 <u8g2_font_decode_len>
      } while( u8g2_font_decode_get_unsigned_bits(decode, 1) != 0 );
 8004a2e:	2101      	movs	r1, #1
 8004a30:	6978      	ldr	r0, [r7, #20]
 8004a32:	f7ff fd66 	bl	8004502 <u8g2_font_decode_get_unsigned_bits>
 8004a36:	4603      	mov	r3, r0
 8004a38:	2b00      	cmp	r3, #0
 8004a3a:	d1ec      	bne.n	8004a16 <u8g2_font_decode_glyph+0x1ce>

      if ( decode->y >= h )
 8004a3c:	697b      	ldr	r3, [r7, #20]
 8004a3e:	f993 3009 	ldrsb.w	r3, [r3, #9]
 8004a42:	f997 2013 	ldrsb.w	r2, [r7, #19]
 8004a46:	429a      	cmp	r2, r3
 8004a48:	dd00      	ble.n	8004a4c <u8g2_font_decode_glyph+0x204>
      a = u8g2_font_decode_get_unsigned_bits(decode, u8g2->font_info.bits_per_0);
 8004a4a:	e7d2      	b.n	80049f2 <u8g2_font_decode_glyph+0x1aa>
	break;
 8004a4c:	bf00      	nop
    }
    
    /* restore the u8g2 draw color, because this is modified by the decode algo */
    u8g2->draw_color = decode->fg_color;
 8004a4e:	697b      	ldr	r3, [r7, #20]
 8004a50:	7b9a      	ldrb	r2, [r3, #14]
 8004a52:	687b      	ldr	r3, [r7, #4]
 8004a54:	f883 2092 	strb.w	r2, [r3, #146]	; 0x92
  }
  return d;
 8004a58:	f997 3010 	ldrsb.w	r3, [r7, #16]
}
 8004a5c:	4618      	mov	r0, r3
 8004a5e:	3720      	adds	r7, #32
 8004a60:	46bd      	mov	sp, r7
 8004a62:	bd80      	pop	{r7, pc}

08004a64 <u8g2_font_get_glyph_data>:
    encoding: Encoding (ASCII or Unicode) of the glyph
  Return:
    Address of the glyph data or NULL, if the encoding is not avialable in the font.
*/
const uint8_t *u8g2_font_get_glyph_data(u8g2_t *u8g2, uint16_t encoding)
{
 8004a64:	b580      	push	{r7, lr}
 8004a66:	b086      	sub	sp, #24
 8004a68:	af00      	add	r7, sp, #0
 8004a6a:	6078      	str	r0, [r7, #4]
 8004a6c:	460b      	mov	r3, r1
 8004a6e:	807b      	strh	r3, [r7, #2]
  const uint8_t *font = u8g2->font;
 8004a70:	687b      	ldr	r3, [r7, #4]
 8004a72:	6d9b      	ldr	r3, [r3, #88]	; 0x58
 8004a74:	617b      	str	r3, [r7, #20]
  font += U8G2_FONT_DATA_STRUCT_SIZE;
 8004a76:	697b      	ldr	r3, [r7, #20]
 8004a78:	3317      	adds	r3, #23
 8004a7a:	617b      	str	r3, [r7, #20]

  
  if ( encoding <= 255 )
 8004a7c:	887b      	ldrh	r3, [r7, #2]
 8004a7e:	2bff      	cmp	r3, #255	; 0xff
 8004a80:	d82a      	bhi.n	8004ad8 <u8g2_font_get_glyph_data+0x74>
  {
    if ( encoding >= 'a' )
 8004a82:	887b      	ldrh	r3, [r7, #2]
 8004a84:	2b60      	cmp	r3, #96	; 0x60
 8004a86:	d907      	bls.n	8004a98 <u8g2_font_get_glyph_data+0x34>
    {
      font += u8g2->font_info.start_pos_lower_a;
 8004a88:	687b      	ldr	r3, [r7, #4]
 8004a8a:	f8b3 3088 	ldrh.w	r3, [r3, #136]	; 0x88
 8004a8e:	461a      	mov	r2, r3
 8004a90:	697b      	ldr	r3, [r7, #20]
 8004a92:	4413      	add	r3, r2
 8004a94:	617b      	str	r3, [r7, #20]
 8004a96:	e009      	b.n	8004aac <u8g2_font_get_glyph_data+0x48>
    }
    else if ( encoding >= 'A' )
 8004a98:	887b      	ldrh	r3, [r7, #2]
 8004a9a:	2b40      	cmp	r3, #64	; 0x40
 8004a9c:	d906      	bls.n	8004aac <u8g2_font_get_glyph_data+0x48>
    {
      font += u8g2->font_info.start_pos_upper_A;
 8004a9e:	687b      	ldr	r3, [r7, #4]
 8004aa0:	f8b3 3086 	ldrh.w	r3, [r3, #134]	; 0x86
 8004aa4:	461a      	mov	r2, r3
 8004aa6:	697b      	ldr	r3, [r7, #20]
 8004aa8:	4413      	add	r3, r2
 8004aaa:	617b      	str	r3, [r7, #20]
    }
    
    for(;;)
    {
      if ( u8x8_pgm_read( font + 1 ) == 0 )
 8004aac:	697b      	ldr	r3, [r7, #20]
 8004aae:	3301      	adds	r3, #1
 8004ab0:	781b      	ldrb	r3, [r3, #0]
 8004ab2:	2b00      	cmp	r3, #0
 8004ab4:	d04e      	beq.n	8004b54 <u8g2_font_get_glyph_data+0xf0>
	break;
      if ( u8x8_pgm_read( font ) == encoding )
 8004ab6:	697b      	ldr	r3, [r7, #20]
 8004ab8:	781b      	ldrb	r3, [r3, #0]
 8004aba:	b29b      	uxth	r3, r3
 8004abc:	887a      	ldrh	r2, [r7, #2]
 8004abe:	429a      	cmp	r2, r3
 8004ac0:	d102      	bne.n	8004ac8 <u8g2_font_get_glyph_data+0x64>
      {
	return font+2;	/* skip encoding and glyph size */
 8004ac2:	697b      	ldr	r3, [r7, #20]
 8004ac4:	3302      	adds	r3, #2
 8004ac6:	e049      	b.n	8004b5c <u8g2_font_get_glyph_data+0xf8>
      }
      font += u8x8_pgm_read( font + 1 );
 8004ac8:	697b      	ldr	r3, [r7, #20]
 8004aca:	3301      	adds	r3, #1
 8004acc:	781b      	ldrb	r3, [r3, #0]
 8004ace:	461a      	mov	r2, r3
 8004ad0:	697b      	ldr	r3, [r7, #20]
 8004ad2:	4413      	add	r3, r2
 8004ad4:	617b      	str	r3, [r7, #20]
      if ( u8x8_pgm_read( font + 1 ) == 0 )
 8004ad6:	e7e9      	b.n	8004aac <u8g2_font_get_glyph_data+0x48>
//	font = u8g2->last_font_data;
//    }
//    else
//#endif 

    font += u8g2->font_info.start_pos_unicode;
 8004ad8:	687b      	ldr	r3, [r7, #4]
 8004ada:	f8b3 308a 	ldrh.w	r3, [r3, #138]	; 0x8a
 8004ade:	461a      	mov	r2, r3
 8004ae0:	697b      	ldr	r3, [r7, #20]
 8004ae2:	4413      	add	r3, r2
 8004ae4:	617b      	str	r3, [r7, #20]
    unicode_lookup_table = font; 
 8004ae6:	697b      	ldr	r3, [r7, #20]
 8004ae8:	613b      	str	r3, [r7, #16]
  
    /* issue 596: search for the glyph start in the unicode lookup table */
    do
    {
      font += u8g2_font_get_word(unicode_lookup_table, 0);
 8004aea:	2100      	movs	r1, #0
 8004aec:	6938      	ldr	r0, [r7, #16]
 8004aee:	f7ff fc40 	bl	8004372 <u8g2_font_get_word>
 8004af2:	4603      	mov	r3, r0
 8004af4:	461a      	mov	r2, r3
 8004af6:	697b      	ldr	r3, [r7, #20]
 8004af8:	4413      	add	r3, r2
 8004afa:	617b      	str	r3, [r7, #20]
      e = u8g2_font_get_word(unicode_lookup_table, 2);
 8004afc:	2102      	movs	r1, #2
 8004afe:	6938      	ldr	r0, [r7, #16]
 8004b00:	f7ff fc37 	bl	8004372 <u8g2_font_get_word>
 8004b04:	4603      	mov	r3, r0
 8004b06:	81fb      	strh	r3, [r7, #14]
      unicode_lookup_table+=4;
 8004b08:	693b      	ldr	r3, [r7, #16]
 8004b0a:	3304      	adds	r3, #4
 8004b0c:	613b      	str	r3, [r7, #16]
    } while( e < encoding );
 8004b0e:	89fa      	ldrh	r2, [r7, #14]
 8004b10:	887b      	ldrh	r3, [r7, #2]
 8004b12:	429a      	cmp	r2, r3
 8004b14:	d3e9      	bcc.n	8004aea <u8g2_font_get_glyph_data+0x86>
    
  
    for(;;)
    {
      e = u8x8_pgm_read( font );
 8004b16:	697b      	ldr	r3, [r7, #20]
 8004b18:	781b      	ldrb	r3, [r3, #0]
 8004b1a:	81fb      	strh	r3, [r7, #14]
      e <<= 8;
 8004b1c:	89fb      	ldrh	r3, [r7, #14]
 8004b1e:	021b      	lsls	r3, r3, #8
 8004b20:	81fb      	strh	r3, [r7, #14]
      e |= u8x8_pgm_read( font + 1 );
 8004b22:	697b      	ldr	r3, [r7, #20]
 8004b24:	3301      	adds	r3, #1
 8004b26:	781b      	ldrb	r3, [r3, #0]
 8004b28:	b29a      	uxth	r2, r3
 8004b2a:	89fb      	ldrh	r3, [r7, #14]
 8004b2c:	4313      	orrs	r3, r2
 8004b2e:	81fb      	strh	r3, [r7, #14]
//#ifdef  __unix__
//      if ( encoding < e )
//        break;
//#endif 

      if ( e == 0 )
 8004b30:	89fb      	ldrh	r3, [r7, #14]
 8004b32:	2b00      	cmp	r3, #0
 8004b34:	d010      	beq.n	8004b58 <u8g2_font_get_glyph_data+0xf4>
	break;
  
      if ( e == encoding )
 8004b36:	89fa      	ldrh	r2, [r7, #14]
 8004b38:	887b      	ldrh	r3, [r7, #2]
 8004b3a:	429a      	cmp	r2, r3
 8004b3c:	d102      	bne.n	8004b44 <u8g2_font_get_glyph_data+0xe0>
// removed, there is now the new index table
//#ifdef  __unix__
//	u8g2->last_font_data = font;
//	u8g2->last_unicode = encoding;
//#endif 
	return font+3;	/* skip encoding and glyph size */
 8004b3e:	697b      	ldr	r3, [r7, #20]
 8004b40:	3303      	adds	r3, #3
 8004b42:	e00b      	b.n	8004b5c <u8g2_font_get_glyph_data+0xf8>
      }
      font += u8x8_pgm_read( font + 2 );
 8004b44:	697b      	ldr	r3, [r7, #20]
 8004b46:	3302      	adds	r3, #2
 8004b48:	781b      	ldrb	r3, [r3, #0]
 8004b4a:	461a      	mov	r2, r3
 8004b4c:	697b      	ldr	r3, [r7, #20]
 8004b4e:	4413      	add	r3, r2
 8004b50:	617b      	str	r3, [r7, #20]
      e = u8x8_pgm_read( font );
 8004b52:	e7e0      	b.n	8004b16 <u8g2_font_get_glyph_data+0xb2>
	break;
 8004b54:	bf00      	nop
 8004b56:	e000      	b.n	8004b5a <u8g2_font_get_glyph_data+0xf6>
	break;
 8004b58:	bf00      	nop
    }  
  }
#endif
  
  return NULL;
 8004b5a:	2300      	movs	r3, #0
}
 8004b5c:	4618      	mov	r0, r3
 8004b5e:	3718      	adds	r7, #24
 8004b60:	46bd      	mov	sp, r7
 8004b62:	bd80      	pop	{r7, pc}

08004b64 <u8g2_font_draw_glyph>:

static u8g2_uint_t u8g2_font_draw_glyph(u8g2_t *u8g2, u8g2_uint_t x, u8g2_uint_t y, uint16_t encoding)
{
 8004b64:	b580      	push	{r7, lr}
 8004b66:	b086      	sub	sp, #24
 8004b68:	af00      	add	r7, sp, #0
 8004b6a:	60f8      	str	r0, [r7, #12]
 8004b6c:	4608      	mov	r0, r1
 8004b6e:	4611      	mov	r1, r2
 8004b70:	461a      	mov	r2, r3
 8004b72:	4603      	mov	r3, r0
 8004b74:	817b      	strh	r3, [r7, #10]
 8004b76:	460b      	mov	r3, r1
 8004b78:	813b      	strh	r3, [r7, #8]
 8004b7a:	4613      	mov	r3, r2
 8004b7c:	80fb      	strh	r3, [r7, #6]
  u8g2_uint_t dx = 0;
 8004b7e:	2300      	movs	r3, #0
 8004b80:	82fb      	strh	r3, [r7, #22]
  u8g2->font_decode.target_x = x;
 8004b82:	68fb      	ldr	r3, [r7, #12]
 8004b84:	897a      	ldrh	r2, [r7, #10]
 8004b86:	f8a3 2064 	strh.w	r2, [r3, #100]	; 0x64
  u8g2->font_decode.target_y = y;
 8004b8a:	68fb      	ldr	r3, [r7, #12]
 8004b8c:	893a      	ldrh	r2, [r7, #8]
 8004b8e:	f8a3 2066 	strh.w	r2, [r3, #102]	; 0x66
  //u8g2->font_decode.is_transparent = is_transparent; this is already set
  //u8g2->font_decode.dir = dir;
  const uint8_t *glyph_data = u8g2_font_get_glyph_data(u8g2, encoding);
 8004b92:	88fb      	ldrh	r3, [r7, #6]
 8004b94:	4619      	mov	r1, r3
 8004b96:	68f8      	ldr	r0, [r7, #12]
 8004b98:	f7ff ff64 	bl	8004a64 <u8g2_font_get_glyph_data>
 8004b9c:	6138      	str	r0, [r7, #16]
  if ( glyph_data != NULL )
 8004b9e:	693b      	ldr	r3, [r7, #16]
 8004ba0:	2b00      	cmp	r3, #0
 8004ba2:	d005      	beq.n	8004bb0 <u8g2_font_draw_glyph+0x4c>
  {
    dx = u8g2_font_decode_glyph(u8g2, glyph_data);
 8004ba4:	6939      	ldr	r1, [r7, #16]
 8004ba6:	68f8      	ldr	r0, [r7, #12]
 8004ba8:	f7ff fe4e 	bl	8004848 <u8g2_font_decode_glyph>
 8004bac:	4603      	mov	r3, r0
 8004bae:	82fb      	strh	r3, [r7, #22]
  }
  return dx;
 8004bb0:	8afb      	ldrh	r3, [r7, #22]
}
 8004bb2:	4618      	mov	r0, r3
 8004bb4:	3718      	adds	r7, #24
 8004bb6:	46bd      	mov	sp, r7
 8004bb8:	bd80      	pop	{r7, pc}
	...

08004bbc <u8g2_DrawGlyph>:
{
  u8g2->font_decode.is_transparent = is_transparent;		// new font procedures
}

u8g2_uint_t u8g2_DrawGlyph(u8g2_t *u8g2, u8g2_uint_t x, u8g2_uint_t y, uint16_t encoding)
{
 8004bbc:	b580      	push	{r7, lr}
 8004bbe:	b084      	sub	sp, #16
 8004bc0:	af00      	add	r7, sp, #0
 8004bc2:	60f8      	str	r0, [r7, #12]
 8004bc4:	4608      	mov	r0, r1
 8004bc6:	4611      	mov	r1, r2
 8004bc8:	461a      	mov	r2, r3
 8004bca:	4603      	mov	r3, r0
 8004bcc:	817b      	strh	r3, [r7, #10]
 8004bce:	460b      	mov	r3, r1
 8004bd0:	813b      	strh	r3, [r7, #8]
 8004bd2:	4613      	mov	r3, r2
 8004bd4:	80fb      	strh	r3, [r7, #6]
#ifdef U8G2_WITH_FONT_ROTATION
  switch(u8g2->font_decode.dir)
 8004bd6:	68fb      	ldr	r3, [r7, #12]
 8004bd8:	f893 3070 	ldrb.w	r3, [r3, #112]	; 0x70
 8004bdc:	2b03      	cmp	r3, #3
 8004bde:	d833      	bhi.n	8004c48 <u8g2_DrawGlyph+0x8c>
 8004be0:	a201      	add	r2, pc, #4	; (adr r2, 8004be8 <u8g2_DrawGlyph+0x2c>)
 8004be2:	f852 f023 	ldr.w	pc, [r2, r3, lsl #2]
 8004be6:	bf00      	nop
 8004be8:	08004bf9 	.word	0x08004bf9
 8004bec:	08004c0d 	.word	0x08004c0d
 8004bf0:	08004c21 	.word	0x08004c21
 8004bf4:	08004c35 	.word	0x08004c35
  {
    case 0:
      y += u8g2->font_calc_vref(u8g2);
 8004bf8:	68fb      	ldr	r3, [r7, #12]
 8004bfa:	6ddb      	ldr	r3, [r3, #92]	; 0x5c
 8004bfc:	68f8      	ldr	r0, [r7, #12]
 8004bfe:	4798      	blx	r3
 8004c00:	4603      	mov	r3, r0
 8004c02:	461a      	mov	r2, r3
 8004c04:	893b      	ldrh	r3, [r7, #8]
 8004c06:	4413      	add	r3, r2
 8004c08:	813b      	strh	r3, [r7, #8]
      break;
 8004c0a:	e01d      	b.n	8004c48 <u8g2_DrawGlyph+0x8c>
    case 1:
      x -= u8g2->font_calc_vref(u8g2);
 8004c0c:	68fb      	ldr	r3, [r7, #12]
 8004c0e:	6ddb      	ldr	r3, [r3, #92]	; 0x5c
 8004c10:	68f8      	ldr	r0, [r7, #12]
 8004c12:	4798      	blx	r3
 8004c14:	4603      	mov	r3, r0
 8004c16:	461a      	mov	r2, r3
 8004c18:	897b      	ldrh	r3, [r7, #10]
 8004c1a:	1a9b      	subs	r3, r3, r2
 8004c1c:	817b      	strh	r3, [r7, #10]
      break;
 8004c1e:	e013      	b.n	8004c48 <u8g2_DrawGlyph+0x8c>
    case 2:
      y -= u8g2->font_calc_vref(u8g2);
 8004c20:	68fb      	ldr	r3, [r7, #12]
 8004c22:	6ddb      	ldr	r3, [r3, #92]	; 0x5c
 8004c24:	68f8      	ldr	r0, [r7, #12]
 8004c26:	4798      	blx	r3
 8004c28:	4603      	mov	r3, r0
 8004c2a:	461a      	mov	r2, r3
 8004c2c:	893b      	ldrh	r3, [r7, #8]
 8004c2e:	1a9b      	subs	r3, r3, r2
 8004c30:	813b      	strh	r3, [r7, #8]
      break;
 8004c32:	e009      	b.n	8004c48 <u8g2_DrawGlyph+0x8c>
    case 3:
      x += u8g2->font_calc_vref(u8g2);
 8004c34:	68fb      	ldr	r3, [r7, #12]
 8004c36:	6ddb      	ldr	r3, [r3, #92]	; 0x5c
 8004c38:	68f8      	ldr	r0, [r7, #12]
 8004c3a:	4798      	blx	r3
 8004c3c:	4603      	mov	r3, r0
 8004c3e:	461a      	mov	r2, r3
 8004c40:	897b      	ldrh	r3, [r7, #10]
 8004c42:	4413      	add	r3, r2
 8004c44:	817b      	strh	r3, [r7, #10]
      break;
 8004c46:	bf00      	nop
  }
#else
  y += u8g2->font_calc_vref(u8g2);
#endif
  return u8g2_font_draw_glyph(u8g2, x, y, encoding);
 8004c48:	88fb      	ldrh	r3, [r7, #6]
 8004c4a:	893a      	ldrh	r2, [r7, #8]
 8004c4c:	8979      	ldrh	r1, [r7, #10]
 8004c4e:	68f8      	ldr	r0, [r7, #12]
 8004c50:	f7ff ff88 	bl	8004b64 <u8g2_font_draw_glyph>
 8004c54:	4603      	mov	r3, r0
}
 8004c56:	4618      	mov	r0, r3
 8004c58:	3710      	adds	r7, #16
 8004c5a:	46bd      	mov	sp, r7
 8004c5c:	bd80      	pop	{r7, pc}
 8004c5e:	bf00      	nop

08004c60 <u8g2_draw_string>:

static u8g2_uint_t u8g2_draw_string(u8g2_t *u8g2, u8g2_uint_t x, u8g2_uint_t y, const char *str) U8G2_NOINLINE;
static u8g2_uint_t u8g2_draw_string(u8g2_t *u8g2, u8g2_uint_t x, u8g2_uint_t y, const char *str)
{
 8004c60:	b580      	push	{r7, lr}
 8004c62:	b086      	sub	sp, #24
 8004c64:	af00      	add	r7, sp, #0
 8004c66:	60f8      	str	r0, [r7, #12]
 8004c68:	607b      	str	r3, [r7, #4]
 8004c6a:	460b      	mov	r3, r1
 8004c6c:	817b      	strh	r3, [r7, #10]
 8004c6e:	4613      	mov	r3, r2
 8004c70:	813b      	strh	r3, [r7, #8]
  uint16_t e;
  u8g2_uint_t delta, sum;
  u8x8_utf8_init(u8g2_GetU8x8(u8g2));
 8004c72:	68f8      	ldr	r0, [r7, #12]
 8004c74:	f000 fccc 	bl	8005610 <u8x8_utf8_init>
  sum = 0;
 8004c78:	2300      	movs	r3, #0
 8004c7a:	82fb      	strh	r3, [r7, #22]
  for(;;)
  {
    e = u8g2->u8x8.next_cb(u8g2_GetU8x8(u8g2), (uint8_t)*str);
 8004c7c:	68fb      	ldr	r3, [r7, #12]
 8004c7e:	685b      	ldr	r3, [r3, #4]
 8004c80:	687a      	ldr	r2, [r7, #4]
 8004c82:	7812      	ldrb	r2, [r2, #0]
 8004c84:	4611      	mov	r1, r2
 8004c86:	68f8      	ldr	r0, [r7, #12]
 8004c88:	4798      	blx	r3
 8004c8a:	4603      	mov	r3, r0
 8004c8c:	82bb      	strh	r3, [r7, #20]
    if ( e == 0x0ffff )
 8004c8e:	8abb      	ldrh	r3, [r7, #20]
 8004c90:	f64f 72ff 	movw	r2, #65535	; 0xffff
 8004c94:	4293      	cmp	r3, r2
 8004c96:	d038      	beq.n	8004d0a <u8g2_draw_string+0xaa>
      break;
    str++;
 8004c98:	687b      	ldr	r3, [r7, #4]
 8004c9a:	3301      	adds	r3, #1
 8004c9c:	607b      	str	r3, [r7, #4]
    if ( e != 0x0fffe )
 8004c9e:	8abb      	ldrh	r3, [r7, #20]
 8004ca0:	f64f 72fe 	movw	r2, #65534	; 0xfffe
 8004ca4:	4293      	cmp	r3, r2
 8004ca6:	d0e9      	beq.n	8004c7c <u8g2_draw_string+0x1c>
    {
      delta = u8g2_DrawGlyph(u8g2, x, y, e);
 8004ca8:	8abb      	ldrh	r3, [r7, #20]
 8004caa:	893a      	ldrh	r2, [r7, #8]
 8004cac:	8979      	ldrh	r1, [r7, #10]
 8004cae:	68f8      	ldr	r0, [r7, #12]
 8004cb0:	f7ff ff84 	bl	8004bbc <u8g2_DrawGlyph>
 8004cb4:	4603      	mov	r3, r0
 8004cb6:	827b      	strh	r3, [r7, #18]
    
#ifdef U8G2_WITH_FONT_ROTATION
      switch(u8g2->font_decode.dir)
 8004cb8:	68fb      	ldr	r3, [r7, #12]
 8004cba:	f893 3070 	ldrb.w	r3, [r3, #112]	; 0x70
 8004cbe:	2b03      	cmp	r3, #3
 8004cc0:	d81e      	bhi.n	8004d00 <u8g2_draw_string+0xa0>
 8004cc2:	a201      	add	r2, pc, #4	; (adr r2, 8004cc8 <u8g2_draw_string+0x68>)
 8004cc4:	f852 f023 	ldr.w	pc, [r2, r3, lsl #2]
 8004cc8:	08004cd9 	.word	0x08004cd9
 8004ccc:	08004ce3 	.word	0x08004ce3
 8004cd0:	08004ced 	.word	0x08004ced
 8004cd4:	08004cf7 	.word	0x08004cf7
      {
	case 0:
	  x += delta;
 8004cd8:	897a      	ldrh	r2, [r7, #10]
 8004cda:	8a7b      	ldrh	r3, [r7, #18]
 8004cdc:	4413      	add	r3, r2
 8004cde:	817b      	strh	r3, [r7, #10]
	  break;
 8004ce0:	e00e      	b.n	8004d00 <u8g2_draw_string+0xa0>
	case 1:
	  y += delta;
 8004ce2:	893a      	ldrh	r2, [r7, #8]
 8004ce4:	8a7b      	ldrh	r3, [r7, #18]
 8004ce6:	4413      	add	r3, r2
 8004ce8:	813b      	strh	r3, [r7, #8]
	  break;
 8004cea:	e009      	b.n	8004d00 <u8g2_draw_string+0xa0>
	case 2:
	  x -= delta;
 8004cec:	897a      	ldrh	r2, [r7, #10]
 8004cee:	8a7b      	ldrh	r3, [r7, #18]
 8004cf0:	1ad3      	subs	r3, r2, r3
 8004cf2:	817b      	strh	r3, [r7, #10]
	  break;
 8004cf4:	e004      	b.n	8004d00 <u8g2_draw_string+0xa0>
	case 3:
	  y -= delta;
 8004cf6:	893a      	ldrh	r2, [r7, #8]
 8004cf8:	8a7b      	ldrh	r3, [r7, #18]
 8004cfa:	1ad3      	subs	r3, r2, r3
 8004cfc:	813b      	strh	r3, [r7, #8]
	  break;
 8004cfe:	bf00      	nop

#else
      x += delta;
#endif

      sum += delta;    
 8004d00:	8afa      	ldrh	r2, [r7, #22]
 8004d02:	8a7b      	ldrh	r3, [r7, #18]
 8004d04:	4413      	add	r3, r2
 8004d06:	82fb      	strh	r3, [r7, #22]
    e = u8g2->u8x8.next_cb(u8g2_GetU8x8(u8g2), (uint8_t)*str);
 8004d08:	e7b8      	b.n	8004c7c <u8g2_draw_string+0x1c>
      break;
 8004d0a:	bf00      	nop
    }
  }
  return sum;
 8004d0c:	8afb      	ldrh	r3, [r7, #22]
}
 8004d0e:	4618      	mov	r0, r3
 8004d10:	3718      	adds	r7, #24
 8004d12:	46bd      	mov	sp, r7
 8004d14:	bd80      	pop	{r7, pc}
 8004d16:	bf00      	nop

08004d18 <u8g2_DrawStr>:

u8g2_uint_t u8g2_DrawStr(u8g2_t *u8g2, u8g2_uint_t x, u8g2_uint_t y, const char *str)
{
 8004d18:	b580      	push	{r7, lr}
 8004d1a:	b084      	sub	sp, #16
 8004d1c:	af00      	add	r7, sp, #0
 8004d1e:	60f8      	str	r0, [r7, #12]
 8004d20:	607b      	str	r3, [r7, #4]
 8004d22:	460b      	mov	r3, r1
 8004d24:	817b      	strh	r3, [r7, #10]
 8004d26:	4613      	mov	r3, r2
 8004d28:	813b      	strh	r3, [r7, #8]
  u8g2->u8x8.next_cb = u8x8_ascii_next;
 8004d2a:	68fb      	ldr	r3, [r7, #12]
 8004d2c:	4a06      	ldr	r2, [pc, #24]	; (8004d48 <u8g2_DrawStr+0x30>)
 8004d2e:	605a      	str	r2, [r3, #4]
  return u8g2_draw_string(u8g2, x, y, str);
 8004d30:	893a      	ldrh	r2, [r7, #8]
 8004d32:	8979      	ldrh	r1, [r7, #10]
 8004d34:	687b      	ldr	r3, [r7, #4]
 8004d36:	68f8      	ldr	r0, [r7, #12]
 8004d38:	f7ff ff92 	bl	8004c60 <u8g2_draw_string>
 8004d3c:	4603      	mov	r3, r0
}
 8004d3e:	4618      	mov	r0, r3
 8004d40:	3710      	adds	r7, #16
 8004d42:	46bd      	mov	sp, r7
 8004d44:	bd80      	pop	{r7, pc}
 8004d46:	bf00      	nop
 8004d48:	0800562b 	.word	0x0800562b

08004d4c <u8g2_UpdateRefHeight>:
/*===============================================*/

/* set ascent/descent for reference point calculation */

void u8g2_UpdateRefHeight(u8g2_t *u8g2)
{
 8004d4c:	b480      	push	{r7}
 8004d4e:	b083      	sub	sp, #12
 8004d50:	af00      	add	r7, sp, #0
 8004d52:	6078      	str	r0, [r7, #4]
  if ( u8g2->font == NULL )
 8004d54:	687b      	ldr	r3, [r7, #4]
 8004d56:	6d9b      	ldr	r3, [r3, #88]	; 0x58
 8004d58:	2b00      	cmp	r3, #0
 8004d5a:	d05d      	beq.n	8004e18 <u8g2_UpdateRefHeight+0xcc>
    return;
  u8g2->font_ref_ascent = u8g2->font_info.ascent_A;
 8004d5c:	687b      	ldr	r3, [r7, #4]
 8004d5e:	f993 2081 	ldrsb.w	r2, [r3, #129]	; 0x81
 8004d62:	687b      	ldr	r3, [r7, #4]
 8004d64:	f883 208e 	strb.w	r2, [r3, #142]	; 0x8e
  u8g2->font_ref_descent = u8g2->font_info.descent_g;
 8004d68:	687b      	ldr	r3, [r7, #4]
 8004d6a:	f993 2082 	ldrsb.w	r2, [r3, #130]	; 0x82
 8004d6e:	687b      	ldr	r3, [r7, #4]
 8004d70:	f883 208f 	strb.w	r2, [r3, #143]	; 0x8f
  if ( u8g2->font_height_mode == U8G2_FONT_HEIGHT_MODE_TEXT )
 8004d74:	687b      	ldr	r3, [r7, #4]
 8004d76:	f893 308d 	ldrb.w	r3, [r3, #141]	; 0x8d
 8004d7a:	2b00      	cmp	r3, #0
 8004d7c:	d04d      	beq.n	8004e1a <u8g2_UpdateRefHeight+0xce>
  {
  }
  else if ( u8g2->font_height_mode == U8G2_FONT_HEIGHT_MODE_XTEXT )
 8004d7e:	687b      	ldr	r3, [r7, #4]
 8004d80:	f893 308d 	ldrb.w	r3, [r3, #141]	; 0x8d
 8004d84:	2b01      	cmp	r3, #1
 8004d86:	d11c      	bne.n	8004dc2 <u8g2_UpdateRefHeight+0x76>
  {
    if ( u8g2->font_ref_ascent < u8g2->font_info.ascent_para )
 8004d88:	687b      	ldr	r3, [r7, #4]
 8004d8a:	f993 208e 	ldrsb.w	r2, [r3, #142]	; 0x8e
 8004d8e:	687b      	ldr	r3, [r7, #4]
 8004d90:	f993 3083 	ldrsb.w	r3, [r3, #131]	; 0x83
 8004d94:	429a      	cmp	r2, r3
 8004d96:	da05      	bge.n	8004da4 <u8g2_UpdateRefHeight+0x58>
      u8g2->font_ref_ascent = u8g2->font_info.ascent_para;
 8004d98:	687b      	ldr	r3, [r7, #4]
 8004d9a:	f993 2083 	ldrsb.w	r2, [r3, #131]	; 0x83
 8004d9e:	687b      	ldr	r3, [r7, #4]
 8004da0:	f883 208e 	strb.w	r2, [r3, #142]	; 0x8e
    if ( u8g2->font_ref_descent > u8g2->font_info.descent_para )
 8004da4:	687b      	ldr	r3, [r7, #4]
 8004da6:	f993 208f 	ldrsb.w	r2, [r3, #143]	; 0x8f
 8004daa:	687b      	ldr	r3, [r7, #4]
 8004dac:	f993 3084 	ldrsb.w	r3, [r3, #132]	; 0x84
 8004db0:	429a      	cmp	r2, r3
 8004db2:	dd32      	ble.n	8004e1a <u8g2_UpdateRefHeight+0xce>
      u8g2->font_ref_descent = u8g2->font_info.descent_para;
 8004db4:	687b      	ldr	r3, [r7, #4]
 8004db6:	f993 2084 	ldrsb.w	r2, [r3, #132]	; 0x84
 8004dba:	687b      	ldr	r3, [r7, #4]
 8004dbc:	f883 208f 	strb.w	r2, [r3, #143]	; 0x8f
 8004dc0:	e02b      	b.n	8004e1a <u8g2_UpdateRefHeight+0xce>
  }
  else
  {
    if ( u8g2->font_ref_ascent < u8g2->font_info.max_char_height+u8g2->font_info.y_offset )
 8004dc2:	687b      	ldr	r3, [r7, #4]
 8004dc4:	f993 308e 	ldrsb.w	r3, [r3, #142]	; 0x8e
 8004dc8:	461a      	mov	r2, r3
 8004dca:	687b      	ldr	r3, [r7, #4]
 8004dcc:	f993 307e 	ldrsb.w	r3, [r3, #126]	; 0x7e
 8004dd0:	4619      	mov	r1, r3
 8004dd2:	687b      	ldr	r3, [r7, #4]
 8004dd4:	f993 3080 	ldrsb.w	r3, [r3, #128]	; 0x80
 8004dd8:	440b      	add	r3, r1
 8004dda:	429a      	cmp	r2, r3
 8004ddc:	da0d      	bge.n	8004dfa <u8g2_UpdateRefHeight+0xae>
      u8g2->font_ref_ascent = u8g2->font_info.max_char_height+u8g2->font_info.y_offset;
 8004dde:	687b      	ldr	r3, [r7, #4]
 8004de0:	f993 307e 	ldrsb.w	r3, [r3, #126]	; 0x7e
 8004de4:	b2da      	uxtb	r2, r3
 8004de6:	687b      	ldr	r3, [r7, #4]
 8004de8:	f993 3080 	ldrsb.w	r3, [r3, #128]	; 0x80
 8004dec:	b2db      	uxtb	r3, r3
 8004dee:	4413      	add	r3, r2
 8004df0:	b2db      	uxtb	r3, r3
 8004df2:	b25a      	sxtb	r2, r3
 8004df4:	687b      	ldr	r3, [r7, #4]
 8004df6:	f883 208e 	strb.w	r2, [r3, #142]	; 0x8e
    if ( u8g2->font_ref_descent > u8g2->font_info.y_offset )
 8004dfa:	687b      	ldr	r3, [r7, #4]
 8004dfc:	f993 208f 	ldrsb.w	r2, [r3, #143]	; 0x8f
 8004e00:	687b      	ldr	r3, [r7, #4]
 8004e02:	f993 3080 	ldrsb.w	r3, [r3, #128]	; 0x80
 8004e06:	429a      	cmp	r2, r3
 8004e08:	dd07      	ble.n	8004e1a <u8g2_UpdateRefHeight+0xce>
      u8g2->font_ref_descent = u8g2->font_info.y_offset;
 8004e0a:	687b      	ldr	r3, [r7, #4]
 8004e0c:	f993 2080 	ldrsb.w	r2, [r3, #128]	; 0x80
 8004e10:	687b      	ldr	r3, [r7, #4]
 8004e12:	f883 208f 	strb.w	r2, [r3, #143]	; 0x8f
 8004e16:	e000      	b.n	8004e1a <u8g2_UpdateRefHeight+0xce>
    return;
 8004e18:	bf00      	nop
  }  
}
 8004e1a:	370c      	adds	r7, #12
 8004e1c:	46bd      	mov	sp, r7
 8004e1e:	bc80      	pop	{r7}
 8004e20:	4770      	bx	lr

08004e22 <u8g2_font_calc_vref_font>:

/*===============================================*/
/* callback procedures to correct the y position */

u8g2_uint_t u8g2_font_calc_vref_font(U8X8_UNUSED u8g2_t *u8g2)
{
 8004e22:	b480      	push	{r7}
 8004e24:	b083      	sub	sp, #12
 8004e26:	af00      	add	r7, sp, #0
 8004e28:	6078      	str	r0, [r7, #4]
  return 0;
 8004e2a:	2300      	movs	r3, #0
}
 8004e2c:	4618      	mov	r0, r3
 8004e2e:	370c      	adds	r7, #12
 8004e30:	46bd      	mov	sp, r7
 8004e32:	bc80      	pop	{r7}
 8004e34:	4770      	bx	lr
	...

08004e38 <u8g2_SetFontPosBaseline>:

void u8g2_SetFontPosBaseline(u8g2_t *u8g2)
{
 8004e38:	b480      	push	{r7}
 8004e3a:	b083      	sub	sp, #12
 8004e3c:	af00      	add	r7, sp, #0
 8004e3e:	6078      	str	r0, [r7, #4]
  u8g2->font_calc_vref = u8g2_font_calc_vref_font;
 8004e40:	687b      	ldr	r3, [r7, #4]
 8004e42:	4a03      	ldr	r2, [pc, #12]	; (8004e50 <u8g2_SetFontPosBaseline+0x18>)
 8004e44:	65da      	str	r2, [r3, #92]	; 0x5c
}
 8004e46:	bf00      	nop
 8004e48:	370c      	adds	r7, #12
 8004e4a:	46bd      	mov	sp, r7
 8004e4c:	bc80      	pop	{r7}
 8004e4e:	4770      	bx	lr
 8004e50:	08004e23 	.word	0x08004e23

08004e54 <u8g2_SetFont>:
}

/*===============================================*/

void u8g2_SetFont(u8g2_t *u8g2, const uint8_t  *font)
{
 8004e54:	b580      	push	{r7, lr}
 8004e56:	b082      	sub	sp, #8
 8004e58:	af00      	add	r7, sp, #0
 8004e5a:	6078      	str	r0, [r7, #4]
 8004e5c:	6039      	str	r1, [r7, #0]
  if ( u8g2->font != font )
 8004e5e:	687b      	ldr	r3, [r7, #4]
 8004e60:	6d9b      	ldr	r3, [r3, #88]	; 0x58
 8004e62:	683a      	ldr	r2, [r7, #0]
 8004e64:	429a      	cmp	r2, r3
 8004e66:	d00b      	beq.n	8004e80 <u8g2_SetFont+0x2c>
  {
//#ifdef  __unix__
//	u8g2->last_font_data = NULL;
//	u8g2->last_unicode = 0x0ffff;
//#endif 
    u8g2->font = font;
 8004e68:	687b      	ldr	r3, [r7, #4]
 8004e6a:	683a      	ldr	r2, [r7, #0]
 8004e6c:	659a      	str	r2, [r3, #88]	; 0x58
    u8g2_read_font_info(&(u8g2->font_info), font);
 8004e6e:	687b      	ldr	r3, [r7, #4]
 8004e70:	3374      	adds	r3, #116	; 0x74
 8004e72:	6839      	ldr	r1, [r7, #0]
 8004e74:	4618      	mov	r0, r3
 8004e76:	f7ff fa9b 	bl	80043b0 <u8g2_read_font_info>
    u8g2_UpdateRefHeight(u8g2);
 8004e7a:	6878      	ldr	r0, [r7, #4]
 8004e7c:	f7ff ff66 	bl	8004d4c <u8g2_UpdateRefHeight>
    /* u8g2_SetFontPosBaseline(u8g2); */ /* removed with issue 195 */
  }
}
 8004e80:	bf00      	nop
 8004e82:	3708      	adds	r7, #8
 8004e84:	46bd      	mov	sp, r7
 8004e86:	bd80      	pop	{r7, pc}

08004e88 <u8g2_clip_intersection2>:
  will return 0 if there is no intersection and if a > b

*/

static uint8_t u8g2_clip_intersection2(u8g2_uint_t *ap, u8g2_uint_t *len, u8g2_uint_t c, u8g2_uint_t d)
{
 8004e88:	b480      	push	{r7}
 8004e8a:	b087      	sub	sp, #28
 8004e8c:	af00      	add	r7, sp, #0
 8004e8e:	60f8      	str	r0, [r7, #12]
 8004e90:	60b9      	str	r1, [r7, #8]
 8004e92:	4611      	mov	r1, r2
 8004e94:	461a      	mov	r2, r3
 8004e96:	460b      	mov	r3, r1
 8004e98:	80fb      	strh	r3, [r7, #6]
 8004e9a:	4613      	mov	r3, r2
 8004e9c:	80bb      	strh	r3, [r7, #4]
  u8g2_uint_t a = *ap;
 8004e9e:	68fb      	ldr	r3, [r7, #12]
 8004ea0:	881b      	ldrh	r3, [r3, #0]
 8004ea2:	82fb      	strh	r3, [r7, #22]
  u8g2_uint_t b;
  b  = a;
 8004ea4:	8afb      	ldrh	r3, [r7, #22]
 8004ea6:	82bb      	strh	r3, [r7, #20]
  b += *len;
 8004ea8:	68bb      	ldr	r3, [r7, #8]
 8004eaa:	881a      	ldrh	r2, [r3, #0]
 8004eac:	8abb      	ldrh	r3, [r7, #20]
 8004eae:	4413      	add	r3, r2
 8004eb0:	82bb      	strh	r3, [r7, #20]
  /* be removed completly (be aware about memory curruption for wrong */
  /* arguments) or return 0 for a>b (will lead to skipped lines for wrong */
  /* arguments) */  
  
  /* removing the following if clause completly may lead to memory corruption of a>b */
  if ( a > b )
 8004eb2:	8afa      	ldrh	r2, [r7, #22]
 8004eb4:	8abb      	ldrh	r3, [r7, #20]
 8004eb6:	429a      	cmp	r2, r3
 8004eb8:	d90b      	bls.n	8004ed2 <u8g2_clip_intersection2+0x4a>
  {    
    /* replacing this if with a simple "return 0;" will not handle the case with negative a */    
    if ( a < d )
 8004eba:	8afa      	ldrh	r2, [r7, #22]
 8004ebc:	88bb      	ldrh	r3, [r7, #4]
 8004ebe:	429a      	cmp	r2, r3
 8004ec0:	d205      	bcs.n	8004ece <u8g2_clip_intersection2+0x46>
    {
      b = d;
 8004ec2:	88bb      	ldrh	r3, [r7, #4]
 8004ec4:	82bb      	strh	r3, [r7, #20]
      b--;
 8004ec6:	8abb      	ldrh	r3, [r7, #20]
 8004ec8:	3b01      	subs	r3, #1
 8004eca:	82bb      	strh	r3, [r7, #20]
 8004ecc:	e001      	b.n	8004ed2 <u8g2_clip_intersection2+0x4a>
    }
    else
    {
      a = c;
 8004ece:	88fb      	ldrh	r3, [r7, #6]
 8004ed0:	82fb      	strh	r3, [r7, #22]
    }
  }
  
  /* from now on, the asumption a <= b is ok */
  
  if ( a >= d )
 8004ed2:	8afa      	ldrh	r2, [r7, #22]
 8004ed4:	88bb      	ldrh	r3, [r7, #4]
 8004ed6:	429a      	cmp	r2, r3
 8004ed8:	d301      	bcc.n	8004ede <u8g2_clip_intersection2+0x56>
    return 0;
 8004eda:	2300      	movs	r3, #0
 8004edc:	e01c      	b.n	8004f18 <u8g2_clip_intersection2+0x90>
  if ( b <= c )
 8004ede:	8aba      	ldrh	r2, [r7, #20]
 8004ee0:	88fb      	ldrh	r3, [r7, #6]
 8004ee2:	429a      	cmp	r2, r3
 8004ee4:	d801      	bhi.n	8004eea <u8g2_clip_intersection2+0x62>
    return 0;
 8004ee6:	2300      	movs	r3, #0
 8004ee8:	e016      	b.n	8004f18 <u8g2_clip_intersection2+0x90>
  if ( a < c )		
 8004eea:	8afa      	ldrh	r2, [r7, #22]
 8004eec:	88fb      	ldrh	r3, [r7, #6]
 8004eee:	429a      	cmp	r2, r3
 8004ef0:	d201      	bcs.n	8004ef6 <u8g2_clip_intersection2+0x6e>
    a = c;
 8004ef2:	88fb      	ldrh	r3, [r7, #6]
 8004ef4:	82fb      	strh	r3, [r7, #22]
  if ( b > d )
 8004ef6:	8aba      	ldrh	r2, [r7, #20]
 8004ef8:	88bb      	ldrh	r3, [r7, #4]
 8004efa:	429a      	cmp	r2, r3
 8004efc:	d901      	bls.n	8004f02 <u8g2_clip_intersection2+0x7a>
    b = d;
 8004efe:	88bb      	ldrh	r3, [r7, #4]
 8004f00:	82bb      	strh	r3, [r7, #20]
  
  *ap = a;
 8004f02:	68fb      	ldr	r3, [r7, #12]
 8004f04:	8afa      	ldrh	r2, [r7, #22]
 8004f06:	801a      	strh	r2, [r3, #0]
  b -= a;
 8004f08:	8aba      	ldrh	r2, [r7, #20]
 8004f0a:	8afb      	ldrh	r3, [r7, #22]
 8004f0c:	1ad3      	subs	r3, r2, r3
 8004f0e:	82bb      	strh	r3, [r7, #20]
  *len = b;
 8004f10:	68bb      	ldr	r3, [r7, #8]
 8004f12:	8aba      	ldrh	r2, [r7, #20]
 8004f14:	801a      	strh	r2, [r3, #0]
  return 1;
 8004f16:	2301      	movs	r3, #1
}
 8004f18:	4618      	mov	r0, r3
 8004f1a:	371c      	adds	r7, #28
 8004f1c:	46bd      	mov	sp, r7
 8004f1e:	bc80      	pop	{r7}
 8004f20:	4770      	bx	lr

08004f22 <u8g2_draw_hv_line_2dir>:
  This function first adjusts the y position to the local buffer. Then it
  will clip the line and call u8g2_draw_low_level_hv_line()

*/
void u8g2_draw_hv_line_2dir(u8g2_t *u8g2, u8g2_uint_t x, u8g2_uint_t y, u8g2_uint_t len, uint8_t dir)
{
 8004f22:	b590      	push	{r4, r7, lr}
 8004f24:	b087      	sub	sp, #28
 8004f26:	af02      	add	r7, sp, #8
 8004f28:	60f8      	str	r0, [r7, #12]
 8004f2a:	4608      	mov	r0, r1
 8004f2c:	4611      	mov	r1, r2
 8004f2e:	461a      	mov	r2, r3
 8004f30:	4603      	mov	r3, r0
 8004f32:	817b      	strh	r3, [r7, #10]
 8004f34:	460b      	mov	r3, r1
 8004f36:	813b      	strh	r3, [r7, #8]
 8004f38:	4613      	mov	r3, r2
 8004f3a:	80fb      	strh	r3, [r7, #6]

  /* clipping happens before the display rotation */

  /* transform to pixel buffer coordinates */
  y -= u8g2->pixel_curr_row;
 8004f3c:	68fb      	ldr	r3, [r7, #12]
 8004f3e:	8fdb      	ldrh	r3, [r3, #62]	; 0x3e
 8004f40:	893a      	ldrh	r2, [r7, #8]
 8004f42:	1ad3      	subs	r3, r2, r3
 8004f44:	813b      	strh	r3, [r7, #8]
  
  u8g2->ll_hvline(u8g2, x, y, len, dir);
 8004f46:	68fb      	ldr	r3, [r7, #12]
 8004f48:	6adc      	ldr	r4, [r3, #44]	; 0x2c
 8004f4a:	88f8      	ldrh	r0, [r7, #6]
 8004f4c:	893a      	ldrh	r2, [r7, #8]
 8004f4e:	8979      	ldrh	r1, [r7, #10]
 8004f50:	f897 3020 	ldrb.w	r3, [r7, #32]
 8004f54:	9300      	str	r3, [sp, #0]
 8004f56:	4603      	mov	r3, r0
 8004f58:	68f8      	ldr	r0, [r7, #12]
 8004f5a:	47a0      	blx	r4
}
 8004f5c:	bf00      	nop
 8004f5e:	3714      	adds	r7, #20
 8004f60:	46bd      	mov	sp, r7
 8004f62:	bd90      	pop	{r4, r7, pc}

08004f64 <u8g2_DrawHVLine>:
  This function should be called by the user.
  
  "dir" may have 4 directions: 0 (left to right), 1, 2, 3 (down up)
*/
void u8g2_DrawHVLine(u8g2_t *u8g2, u8g2_uint_t x, u8g2_uint_t y, u8g2_uint_t len, uint8_t dir)
{
 8004f64:	b590      	push	{r4, r7, lr}
 8004f66:	b087      	sub	sp, #28
 8004f68:	af02      	add	r7, sp, #8
 8004f6a:	60f8      	str	r0, [r7, #12]
 8004f6c:	4608      	mov	r0, r1
 8004f6e:	4611      	mov	r1, r2
 8004f70:	461a      	mov	r2, r3
 8004f72:	4603      	mov	r3, r0
 8004f74:	817b      	strh	r3, [r7, #10]
 8004f76:	460b      	mov	r3, r1
 8004f78:	813b      	strh	r3, [r7, #8]
 8004f7a:	4613      	mov	r3, r2
 8004f7c:	80fb      	strh	r3, [r7, #6]
  /* Make a call to the callback function (e.g. u8g2_draw_l90_r0). */
  /* The callback may rotate the hv line */
  /* after rotation this will call u8g2_draw_hv_line_4dir() */
  
#ifdef U8G2_WITH_CLIP_WINDOW_SUPPORT
  if ( u8g2->is_page_clip_window_intersection != 0 )
 8004f7e:	68fb      	ldr	r3, [r7, #12]
 8004f80:	f893 308c 	ldrb.w	r3, [r3, #140]	; 0x8c
 8004f84:	2b00      	cmp	r3, #0
 8004f86:	d075      	beq.n	8005074 <u8g2_DrawHVLine+0x110>
#endif /* U8G2_WITH_CLIP_WINDOW_SUPPORT */
    if ( len != 0 )
 8004f88:	88fb      	ldrh	r3, [r7, #6]
 8004f8a:	2b00      	cmp	r3, #0
 8004f8c:	d072      	beq.n	8005074 <u8g2_DrawHVLine+0x110>
    {
    
      /* convert to two directions */    
      if ( len > 1 )
 8004f8e:	88fb      	ldrh	r3, [r7, #6]
 8004f90:	2b01      	cmp	r3, #1
 8004f92:	d91a      	bls.n	8004fca <u8g2_DrawHVLine+0x66>
      {
	if ( dir == 2 )
 8004f94:	f897 3020 	ldrb.w	r3, [r7, #32]
 8004f98:	2b02      	cmp	r3, #2
 8004f9a:	d109      	bne.n	8004fb0 <u8g2_DrawHVLine+0x4c>
	{
	  x -= len;
 8004f9c:	897a      	ldrh	r2, [r7, #10]
 8004f9e:	88fb      	ldrh	r3, [r7, #6]
 8004fa0:	1ad3      	subs	r3, r2, r3
 8004fa2:	b29b      	uxth	r3, r3
 8004fa4:	817b      	strh	r3, [r7, #10]
	  x++;
 8004fa6:	897b      	ldrh	r3, [r7, #10]
 8004fa8:	3301      	adds	r3, #1
 8004faa:	b29b      	uxth	r3, r3
 8004fac:	817b      	strh	r3, [r7, #10]
 8004fae:	e00c      	b.n	8004fca <u8g2_DrawHVLine+0x66>
	}
	else if ( dir == 3 )
 8004fb0:	f897 3020 	ldrb.w	r3, [r7, #32]
 8004fb4:	2b03      	cmp	r3, #3
 8004fb6:	d108      	bne.n	8004fca <u8g2_DrawHVLine+0x66>
	{
	  y -= len;
 8004fb8:	893a      	ldrh	r2, [r7, #8]
 8004fba:	88fb      	ldrh	r3, [r7, #6]
 8004fbc:	1ad3      	subs	r3, r2, r3
 8004fbe:	b29b      	uxth	r3, r3
 8004fc0:	813b      	strh	r3, [r7, #8]
	  y++;
 8004fc2:	893b      	ldrh	r3, [r7, #8]
 8004fc4:	3301      	adds	r3, #1
 8004fc6:	b29b      	uxth	r3, r3
 8004fc8:	813b      	strh	r3, [r7, #8]
	}
      }
      dir &= 1;  
 8004fca:	f897 3020 	ldrb.w	r3, [r7, #32]
 8004fce:	f003 0301 	and.w	r3, r3, #1
 8004fd2:	f887 3020 	strb.w	r3, [r7, #32]
      
      /* clip against the user window */
      if ( dir == 0 )
 8004fd6:	f897 3020 	ldrb.w	r3, [r7, #32]
 8004fda:	2b00      	cmp	r3, #0
 8004fdc:	d11a      	bne.n	8005014 <u8g2_DrawHVLine+0xb0>
      {
	if ( y < u8g2->user_y0 )
 8004fde:	68fb      	ldr	r3, [r7, #12]
 8004fe0:	f8b3 204c 	ldrh.w	r2, [r3, #76]	; 0x4c
 8004fe4:	893b      	ldrh	r3, [r7, #8]
 8004fe6:	429a      	cmp	r2, r3
 8004fe8:	d83b      	bhi.n	8005062 <u8g2_DrawHVLine+0xfe>
	  return;
	if ( y >= u8g2->user_y1 )
 8004fea:	68fb      	ldr	r3, [r7, #12]
 8004fec:	f8b3 204e 	ldrh.w	r2, [r3, #78]	; 0x4e
 8004ff0:	893b      	ldrh	r3, [r7, #8]
 8004ff2:	429a      	cmp	r2, r3
 8004ff4:	d937      	bls.n	8005066 <u8g2_DrawHVLine+0x102>
	  return;
	if ( u8g2_clip_intersection2(&x, &len, u8g2->user_x0, u8g2->user_x1) == 0 )
 8004ff6:	68fb      	ldr	r3, [r7, #12]
 8004ff8:	f8b3 2048 	ldrh.w	r2, [r3, #72]	; 0x48
 8004ffc:	68fb      	ldr	r3, [r7, #12]
 8004ffe:	f8b3 304a 	ldrh.w	r3, [r3, #74]	; 0x4a
 8005002:	1db9      	adds	r1, r7, #6
 8005004:	f107 000a 	add.w	r0, r7, #10
 8005008:	f7ff ff3e 	bl	8004e88 <u8g2_clip_intersection2>
 800500c:	4603      	mov	r3, r0
 800500e:	2b00      	cmp	r3, #0
 8005010:	d11a      	bne.n	8005048 <u8g2_DrawHVLine+0xe4>
	  return;
 8005012:	e02f      	b.n	8005074 <u8g2_DrawHVLine+0x110>
      }
      else
      {
	if ( x < u8g2->user_x0 )
 8005014:	68fb      	ldr	r3, [r7, #12]
 8005016:	f8b3 2048 	ldrh.w	r2, [r3, #72]	; 0x48
 800501a:	897b      	ldrh	r3, [r7, #10]
 800501c:	429a      	cmp	r2, r3
 800501e:	d824      	bhi.n	800506a <u8g2_DrawHVLine+0x106>
	  return;
	if ( x >= u8g2->user_x1 )
 8005020:	68fb      	ldr	r3, [r7, #12]
 8005022:	f8b3 204a 	ldrh.w	r2, [r3, #74]	; 0x4a
 8005026:	897b      	ldrh	r3, [r7, #10]
 8005028:	429a      	cmp	r2, r3
 800502a:	d920      	bls.n	800506e <u8g2_DrawHVLine+0x10a>
	  return;
	if ( u8g2_clip_intersection2(&y, &len, u8g2->user_y0, u8g2->user_y1) == 0 )
 800502c:	68fb      	ldr	r3, [r7, #12]
 800502e:	f8b3 204c 	ldrh.w	r2, [r3, #76]	; 0x4c
 8005032:	68fb      	ldr	r3, [r7, #12]
 8005034:	f8b3 304e 	ldrh.w	r3, [r3, #78]	; 0x4e
 8005038:	1db9      	adds	r1, r7, #6
 800503a:	f107 0008 	add.w	r0, r7, #8
 800503e:	f7ff ff23 	bl	8004e88 <u8g2_clip_intersection2>
 8005042:	4603      	mov	r3, r0
 8005044:	2b00      	cmp	r3, #0
 8005046:	d014      	beq.n	8005072 <u8g2_DrawHVLine+0x10e>
	  return;
      }
      
      
      u8g2->cb->draw_l90(u8g2, x, y, len, dir);
 8005048:	68fb      	ldr	r3, [r7, #12]
 800504a:	6b1b      	ldr	r3, [r3, #48]	; 0x30
 800504c:	689c      	ldr	r4, [r3, #8]
 800504e:	8979      	ldrh	r1, [r7, #10]
 8005050:	893a      	ldrh	r2, [r7, #8]
 8005052:	88f8      	ldrh	r0, [r7, #6]
 8005054:	f897 3020 	ldrb.w	r3, [r7, #32]
 8005058:	9300      	str	r3, [sp, #0]
 800505a:	4603      	mov	r3, r0
 800505c:	68f8      	ldr	r0, [r7, #12]
 800505e:	47a0      	blx	r4
 8005060:	e008      	b.n	8005074 <u8g2_DrawHVLine+0x110>
	  return;
 8005062:	bf00      	nop
 8005064:	e006      	b.n	8005074 <u8g2_DrawHVLine+0x110>
	  return;
 8005066:	bf00      	nop
 8005068:	e004      	b.n	8005074 <u8g2_DrawHVLine+0x110>
	  return;
 800506a:	bf00      	nop
 800506c:	e002      	b.n	8005074 <u8g2_DrawHVLine+0x110>
	  return;
 800506e:	bf00      	nop
 8005070:	e000      	b.n	8005074 <u8g2_DrawHVLine+0x110>
	  return;
 8005072:	bf00      	nop
    }
}
 8005074:	3714      	adds	r7, #20
 8005076:	46bd      	mov	sp, r7
 8005078:	bd90      	pop	{r4, r7, pc}

0800507a <u8g2_DrawVLine>:
// #endif /* U8G2_WITH_INTERSECTION */
  u8g2_DrawHVLine(u8g2, x, y, len, 0);
}

void u8g2_DrawVLine(u8g2_t *u8g2, u8g2_uint_t x, u8g2_uint_t y, u8g2_uint_t len)
{
 800507a:	b580      	push	{r7, lr}
 800507c:	b086      	sub	sp, #24
 800507e:	af02      	add	r7, sp, #8
 8005080:	60f8      	str	r0, [r7, #12]
 8005082:	4608      	mov	r0, r1
 8005084:	4611      	mov	r1, r2
 8005086:	461a      	mov	r2, r3
 8005088:	4603      	mov	r3, r0
 800508a:	817b      	strh	r3, [r7, #10]
 800508c:	460b      	mov	r3, r1
 800508e:	813b      	strh	r3, [r7, #8]
 8005090:	4613      	mov	r3, r2
 8005092:	80fb      	strh	r3, [r7, #6]
// #ifdef U8G2_WITH_INTERSECTION
//   if ( u8g2_IsIntersection(u8g2, x, y, x+1, y+len) == 0 ) 
//     return;
// #endif /* U8G2_WITH_INTERSECTION */
  u8g2_DrawHVLine(u8g2, x, y, len, 1);
 8005094:	88fb      	ldrh	r3, [r7, #6]
 8005096:	893a      	ldrh	r2, [r7, #8]
 8005098:	8979      	ldrh	r1, [r7, #10]
 800509a:	2001      	movs	r0, #1
 800509c:	9000      	str	r0, [sp, #0]
 800509e:	68f8      	ldr	r0, [r7, #12]
 80050a0:	f7ff ff60 	bl	8004f64 <u8g2_DrawHVLine>
}
 80050a4:	bf00      	nop
 80050a6:	3710      	adds	r7, #16
 80050a8:	46bd      	mov	sp, r7
 80050aa:	bd80      	pop	{r7, pc}

080050ac <u8g2_SetDrawColor>:

  7 Jan 2017: Allow color value 2 for XOR operation.
  
*/
void u8g2_SetDrawColor(u8g2_t *u8g2, uint8_t color)
{
 80050ac:	b480      	push	{r7}
 80050ae:	b083      	sub	sp, #12
 80050b0:	af00      	add	r7, sp, #0
 80050b2:	6078      	str	r0, [r7, #4]
 80050b4:	460b      	mov	r3, r1
 80050b6:	70fb      	strb	r3, [r7, #3]
  u8g2->draw_color = color;	/* u8g2_SetDrawColor: just assign the argument */ 
 80050b8:	687b      	ldr	r3, [r7, #4]
 80050ba:	78fa      	ldrb	r2, [r7, #3]
 80050bc:	f883 2092 	strb.w	r2, [r3, #146]	; 0x92
  if ( color >= 3 )
 80050c0:	78fb      	ldrb	r3, [r7, #3]
 80050c2:	2b02      	cmp	r3, #2
 80050c4:	d903      	bls.n	80050ce <u8g2_SetDrawColor+0x22>
    u8g2->draw_color = 1;	/* u8g2_SetDrawColor: make color as one if arg is invalid */
 80050c6:	687b      	ldr	r3, [r7, #4]
 80050c8:	2201      	movs	r2, #1
 80050ca:	f883 2092 	strb.w	r2, [r3, #146]	; 0x92
}
 80050ce:	bf00      	nop
 80050d0:	370c      	adds	r7, #12
 80050d2:	46bd      	mov	sp, r7
 80050d4:	bc80      	pop	{r7}
 80050d6:	4770      	bx	lr

080050d8 <u8g2_is_intersection_decision_tree>:
  version with asymetric boundaries.
  a1 and v1 are excluded
  v0 == v1 is not support end return 1
*/
uint8_t u8g2_is_intersection_decision_tree(u8g2_uint_t a0, u8g2_uint_t a1, u8g2_uint_t v0, u8g2_uint_t v1)
{
 80050d8:	b490      	push	{r4, r7}
 80050da:	b082      	sub	sp, #8
 80050dc:	af00      	add	r7, sp, #0
 80050de:	4604      	mov	r4, r0
 80050e0:	4608      	mov	r0, r1
 80050e2:	4611      	mov	r1, r2
 80050e4:	461a      	mov	r2, r3
 80050e6:	4623      	mov	r3, r4
 80050e8:	80fb      	strh	r3, [r7, #6]
 80050ea:	4603      	mov	r3, r0
 80050ec:	80bb      	strh	r3, [r7, #4]
 80050ee:	460b      	mov	r3, r1
 80050f0:	807b      	strh	r3, [r7, #2]
 80050f2:	4613      	mov	r3, r2
 80050f4:	803b      	strh	r3, [r7, #0]
  if ( v0 < a1 )		// v0 <= a1
 80050f6:	887a      	ldrh	r2, [r7, #2]
 80050f8:	88bb      	ldrh	r3, [r7, #4]
 80050fa:	429a      	cmp	r2, r3
 80050fc:	d20d      	bcs.n	800511a <u8g2_is_intersection_decision_tree+0x42>
  {
    if ( v1 > a0 )	// v1 >= a0
 80050fe:	883a      	ldrh	r2, [r7, #0]
 8005100:	88fb      	ldrh	r3, [r7, #6]
 8005102:	429a      	cmp	r2, r3
 8005104:	d901      	bls.n	800510a <u8g2_is_intersection_decision_tree+0x32>
    {
      return 1;
 8005106:	2301      	movs	r3, #1
 8005108:	e014      	b.n	8005134 <u8g2_is_intersection_decision_tree+0x5c>
    }
    else
    {
      if ( v0 > v1 )	// v0 > v1
 800510a:	887a      	ldrh	r2, [r7, #2]
 800510c:	883b      	ldrh	r3, [r7, #0]
 800510e:	429a      	cmp	r2, r3
 8005110:	d901      	bls.n	8005116 <u8g2_is_intersection_decision_tree+0x3e>
      {
	return 1;
 8005112:	2301      	movs	r3, #1
 8005114:	e00e      	b.n	8005134 <u8g2_is_intersection_decision_tree+0x5c>
      }
      else
      {
	return 0;
 8005116:	2300      	movs	r3, #0
 8005118:	e00c      	b.n	8005134 <u8g2_is_intersection_decision_tree+0x5c>
      }
    }
  }
  else
  {
    if ( v1 > a0 )	// v1 >= a0
 800511a:	883a      	ldrh	r2, [r7, #0]
 800511c:	88fb      	ldrh	r3, [r7, #6]
 800511e:	429a      	cmp	r2, r3
 8005120:	d907      	bls.n	8005132 <u8g2_is_intersection_decision_tree+0x5a>
    {
      if ( v0 > v1 )	// v0 > v1
 8005122:	887a      	ldrh	r2, [r7, #2]
 8005124:	883b      	ldrh	r3, [r7, #0]
 8005126:	429a      	cmp	r2, r3
 8005128:	d901      	bls.n	800512e <u8g2_is_intersection_decision_tree+0x56>
      {
	return 1;
 800512a:	2301      	movs	r3, #1
 800512c:	e002      	b.n	8005134 <u8g2_is_intersection_decision_tree+0x5c>
      }
      else
      {
	return 0;
 800512e:	2300      	movs	r3, #0
 8005130:	e000      	b.n	8005134 <u8g2_is_intersection_decision_tree+0x5c>
      }
    }
    else
    {
      return 0;
 8005132:	2300      	movs	r3, #0
    }
  }
}
 8005134:	4618      	mov	r0, r3
 8005136:	3708      	adds	r7, #8
 8005138:	46bd      	mov	sp, r7
 800513a:	bc90      	pop	{r4, r7}
 800513c:	4770      	bx	lr

0800513e <u8g2_IsIntersection>:



/* upper limits are not included (asymetric boundaries) */
uint8_t u8g2_IsIntersection(u8g2_t *u8g2, u8g2_uint_t x0, u8g2_uint_t y0, u8g2_uint_t x1, u8g2_uint_t y1)
{
 800513e:	b580      	push	{r7, lr}
 8005140:	b084      	sub	sp, #16
 8005142:	af00      	add	r7, sp, #0
 8005144:	60f8      	str	r0, [r7, #12]
 8005146:	4608      	mov	r0, r1
 8005148:	4611      	mov	r1, r2
 800514a:	461a      	mov	r2, r3
 800514c:	4603      	mov	r3, r0
 800514e:	817b      	strh	r3, [r7, #10]
 8005150:	460b      	mov	r3, r1
 8005152:	813b      	strh	r3, [r7, #8]
 8005154:	4613      	mov	r3, r2
 8005156:	80fb      	strh	r3, [r7, #6]
  if ( u8g2_is_intersection_decision_tree(u8g2->user_y0, u8g2->user_y1, y0, y1) == 0 )
 8005158:	68fb      	ldr	r3, [r7, #12]
 800515a:	f8b3 004c 	ldrh.w	r0, [r3, #76]	; 0x4c
 800515e:	68fb      	ldr	r3, [r7, #12]
 8005160:	f8b3 104e 	ldrh.w	r1, [r3, #78]	; 0x4e
 8005164:	8b3b      	ldrh	r3, [r7, #24]
 8005166:	893a      	ldrh	r2, [r7, #8]
 8005168:	f7ff ffb6 	bl	80050d8 <u8g2_is_intersection_decision_tree>
 800516c:	4603      	mov	r3, r0
 800516e:	2b00      	cmp	r3, #0
 8005170:	d101      	bne.n	8005176 <u8g2_IsIntersection+0x38>
    return 0; 
 8005172:	2300      	movs	r3, #0
 8005174:	e00a      	b.n	800518c <u8g2_IsIntersection+0x4e>
  
  return u8g2_is_intersection_decision_tree(u8g2->user_x0, u8g2->user_x1, x0, x1);
 8005176:	68fb      	ldr	r3, [r7, #12]
 8005178:	f8b3 0048 	ldrh.w	r0, [r3, #72]	; 0x48
 800517c:	68fb      	ldr	r3, [r7, #12]
 800517e:	f8b3 104a 	ldrh.w	r1, [r3, #74]	; 0x4a
 8005182:	88fb      	ldrh	r3, [r7, #6]
 8005184:	897a      	ldrh	r2, [r7, #10]
 8005186:	f7ff ffa7 	bl	80050d8 <u8g2_is_intersection_decision_tree>
 800518a:	4603      	mov	r3, r0
}
 800518c:	4618      	mov	r0, r3
 800518e:	3710      	adds	r7, #16
 8005190:	46bd      	mov	sp, r7
 8005192:	bd80      	pop	{r7, pc}

08005194 <u8g2_ll_hvline_vertical_top_lsb>:
		1: vertical line (top to bottom)
  asumption: 
    all clipping done
*/
void u8g2_ll_hvline_vertical_top_lsb(u8g2_t *u8g2, u8g2_uint_t x, u8g2_uint_t y, u8g2_uint_t len, uint8_t dir)
{
 8005194:	b480      	push	{r7}
 8005196:	b089      	sub	sp, #36	; 0x24
 8005198:	af00      	add	r7, sp, #0
 800519a:	60f8      	str	r0, [r7, #12]
 800519c:	4608      	mov	r0, r1
 800519e:	4611      	mov	r1, r2
 80051a0:	461a      	mov	r2, r3
 80051a2:	4603      	mov	r3, r0
 80051a4:	817b      	strh	r3, [r7, #10]
 80051a6:	460b      	mov	r3, r1
 80051a8:	813b      	strh	r3, [r7, #8]
 80051aa:	4613      	mov	r3, r2
 80051ac:	80fb      	strh	r3, [r7, #6]
  //assert(x < u8g2_GetU8x8(u8g2)->display_info->tile_width*8);
  //assert(y >= u8g2->buf_y0);
  //assert(y < u8g2_GetU8x8(u8g2)->display_info->tile_height*8);
  
  /* bytes are vertical, lsb on top (y=0), msb at bottom (y=7) */
  bit_pos = y;		/* overflow truncate is ok here... */
 80051ae:	893b      	ldrh	r3, [r7, #8]
 80051b0:	76fb      	strb	r3, [r7, #27]
  bit_pos &= 7; 	/* ... because only the lowest 3 bits are needed */
 80051b2:	7efb      	ldrb	r3, [r7, #27]
 80051b4:	f003 0307 	and.w	r3, r3, #7
 80051b8:	76fb      	strb	r3, [r7, #27]
  mask = 1;
 80051ba:	2301      	movs	r3, #1
 80051bc:	763b      	strb	r3, [r7, #24]
  mask <<= bit_pos;
 80051be:	7e3a      	ldrb	r2, [r7, #24]
 80051c0:	7efb      	ldrb	r3, [r7, #27]
 80051c2:	fa02 f303 	lsl.w	r3, r2, r3
 80051c6:	763b      	strb	r3, [r7, #24]

  or_mask = 0;
 80051c8:	2300      	movs	r3, #0
 80051ca:	76bb      	strb	r3, [r7, #26]
  xor_mask = 0;
 80051cc:	2300      	movs	r3, #0
 80051ce:	767b      	strb	r3, [r7, #25]
  if ( u8g2->draw_color <= 1 )
 80051d0:	68fb      	ldr	r3, [r7, #12]
 80051d2:	f893 3092 	ldrb.w	r3, [r3, #146]	; 0x92
 80051d6:	2b01      	cmp	r3, #1
 80051d8:	d801      	bhi.n	80051de <u8g2_ll_hvline_vertical_top_lsb+0x4a>
    or_mask  = mask;
 80051da:	7e3b      	ldrb	r3, [r7, #24]
 80051dc:	76bb      	strb	r3, [r7, #26]
  if ( u8g2->draw_color != 1 )
 80051de:	68fb      	ldr	r3, [r7, #12]
 80051e0:	f893 3092 	ldrb.w	r3, [r3, #146]	; 0x92
 80051e4:	2b01      	cmp	r3, #1
 80051e6:	d001      	beq.n	80051ec <u8g2_ll_hvline_vertical_top_lsb+0x58>
    xor_mask = mask;
 80051e8:	7e3b      	ldrb	r3, [r7, #24]
 80051ea:	767b      	strb	r3, [r7, #25]


  offset = y;		/* y might be 8 or 16 bit, but we need 16 bit, so use a 16 bit variable */
 80051ec:	893b      	ldrh	r3, [r7, #8]
 80051ee:	82fb      	strh	r3, [r7, #22]
  offset &= ~7;
 80051f0:	8afb      	ldrh	r3, [r7, #22]
 80051f2:	f023 0307 	bic.w	r3, r3, #7
 80051f6:	82fb      	strh	r3, [r7, #22]
  offset *= u8g2_GetU8x8(u8g2)->display_info->tile_width;
 80051f8:	68fb      	ldr	r3, [r7, #12]
 80051fa:	681b      	ldr	r3, [r3, #0]
 80051fc:	7c1b      	ldrb	r3, [r3, #16]
 80051fe:	b29b      	uxth	r3, r3
 8005200:	8afa      	ldrh	r2, [r7, #22]
 8005202:	fb02 f303 	mul.w	r3, r2, r3
 8005206:	82fb      	strh	r3, [r7, #22]
  ptr = u8g2->tile_buf_ptr;
 8005208:	68fb      	ldr	r3, [r7, #12]
 800520a:	6b5b      	ldr	r3, [r3, #52]	; 0x34
 800520c:	61fb      	str	r3, [r7, #28]
  ptr += offset;
 800520e:	8afb      	ldrh	r3, [r7, #22]
 8005210:	69fa      	ldr	r2, [r7, #28]
 8005212:	4413      	add	r3, r2
 8005214:	61fb      	str	r3, [r7, #28]
  ptr += x;
 8005216:	897b      	ldrh	r3, [r7, #10]
 8005218:	69fa      	ldr	r2, [r7, #28]
 800521a:	4413      	add	r3, r2
 800521c:	61fb      	str	r3, [r7, #28]
  
  if ( dir == 0 )
 800521e:	f897 3028 	ldrb.w	r3, [r7, #40]	; 0x28
 8005222:	2b00      	cmp	r3, #0
 8005224:	d117      	bne.n	8005256 <u8g2_ll_hvline_vertical_top_lsb+0xc2>
      do
      {
#ifdef __unix
	assert(ptr < max_ptr);
#endif
	*ptr |= or_mask;
 8005226:	69fb      	ldr	r3, [r7, #28]
 8005228:	781a      	ldrb	r2, [r3, #0]
 800522a:	7ebb      	ldrb	r3, [r7, #26]
 800522c:	4313      	orrs	r3, r2
 800522e:	b2da      	uxtb	r2, r3
 8005230:	69fb      	ldr	r3, [r7, #28]
 8005232:	701a      	strb	r2, [r3, #0]
	*ptr ^= xor_mask;
 8005234:	69fb      	ldr	r3, [r7, #28]
 8005236:	781a      	ldrb	r2, [r3, #0]
 8005238:	7e7b      	ldrb	r3, [r7, #25]
 800523a:	4053      	eors	r3, r2
 800523c:	b2da      	uxtb	r2, r3
 800523e:	69fb      	ldr	r3, [r7, #28]
 8005240:	701a      	strb	r2, [r3, #0]
	ptr++;
 8005242:	69fb      	ldr	r3, [r7, #28]
 8005244:	3301      	adds	r3, #1
 8005246:	61fb      	str	r3, [r7, #28]
	len--;
 8005248:	88fb      	ldrh	r3, [r7, #6]
 800524a:	3b01      	subs	r3, #1
 800524c:	80fb      	strh	r3, [r7, #6]
      } while( len != 0 );
 800524e:	88fb      	ldrh	r3, [r7, #6]
 8005250:	2b00      	cmp	r3, #0
 8005252:	d1e8      	bne.n	8005226 <u8g2_ll_hvline_vertical_top_lsb+0x92>
	or_mask <<= 1;
	xor_mask <<= 1;
      }
    } while( len != 0 );
  }
}
 8005254:	e038      	b.n	80052c8 <u8g2_ll_hvline_vertical_top_lsb+0x134>
      *ptr |= or_mask;
 8005256:	69fb      	ldr	r3, [r7, #28]
 8005258:	781a      	ldrb	r2, [r3, #0]
 800525a:	7ebb      	ldrb	r3, [r7, #26]
 800525c:	4313      	orrs	r3, r2
 800525e:	b2da      	uxtb	r2, r3
 8005260:	69fb      	ldr	r3, [r7, #28]
 8005262:	701a      	strb	r2, [r3, #0]
      *ptr ^= xor_mask;
 8005264:	69fb      	ldr	r3, [r7, #28]
 8005266:	781a      	ldrb	r2, [r3, #0]
 8005268:	7e7b      	ldrb	r3, [r7, #25]
 800526a:	4053      	eors	r3, r2
 800526c:	b2da      	uxtb	r2, r3
 800526e:	69fb      	ldr	r3, [r7, #28]
 8005270:	701a      	strb	r2, [r3, #0]
      bit_pos++;
 8005272:	7efb      	ldrb	r3, [r7, #27]
 8005274:	3301      	adds	r3, #1
 8005276:	76fb      	strb	r3, [r7, #27]
      bit_pos &= 7;
 8005278:	7efb      	ldrb	r3, [r7, #27]
 800527a:	f003 0307 	and.w	r3, r3, #7
 800527e:	76fb      	strb	r3, [r7, #27]
      len--;
 8005280:	88fb      	ldrh	r3, [r7, #6]
 8005282:	3b01      	subs	r3, #1
 8005284:	80fb      	strh	r3, [r7, #6]
      if ( bit_pos == 0 )
 8005286:	7efb      	ldrb	r3, [r7, #27]
 8005288:	2b00      	cmp	r3, #0
 800528a:	d114      	bne.n	80052b6 <u8g2_ll_hvline_vertical_top_lsb+0x122>
	ptr+=u8g2->pixel_buf_width;	/* 6 Jan 17: Changed u8g2->width to u8g2->pixel_buf_width, issue #148 */
 800528c:	68fb      	ldr	r3, [r7, #12]
 800528e:	8f5b      	ldrh	r3, [r3, #58]	; 0x3a
 8005290:	461a      	mov	r2, r3
 8005292:	69fb      	ldr	r3, [r7, #28]
 8005294:	4413      	add	r3, r2
 8005296:	61fb      	str	r3, [r7, #28]
	if ( u8g2->draw_color <= 1 )
 8005298:	68fb      	ldr	r3, [r7, #12]
 800529a:	f893 3092 	ldrb.w	r3, [r3, #146]	; 0x92
 800529e:	2b01      	cmp	r3, #1
 80052a0:	d801      	bhi.n	80052a6 <u8g2_ll_hvline_vertical_top_lsb+0x112>
	  or_mask  = 1;
 80052a2:	2301      	movs	r3, #1
 80052a4:	76bb      	strb	r3, [r7, #26]
	if ( u8g2->draw_color != 1 )
 80052a6:	68fb      	ldr	r3, [r7, #12]
 80052a8:	f893 3092 	ldrb.w	r3, [r3, #146]	; 0x92
 80052ac:	2b01      	cmp	r3, #1
 80052ae:	d008      	beq.n	80052c2 <u8g2_ll_hvline_vertical_top_lsb+0x12e>
	  xor_mask = 1;
 80052b0:	2301      	movs	r3, #1
 80052b2:	767b      	strb	r3, [r7, #25]
 80052b4:	e005      	b.n	80052c2 <u8g2_ll_hvline_vertical_top_lsb+0x12e>
	or_mask <<= 1;
 80052b6:	7ebb      	ldrb	r3, [r7, #26]
 80052b8:	005b      	lsls	r3, r3, #1
 80052ba:	76bb      	strb	r3, [r7, #26]
	xor_mask <<= 1;
 80052bc:	7e7b      	ldrb	r3, [r7, #25]
 80052be:	005b      	lsls	r3, r3, #1
 80052c0:	767b      	strb	r3, [r7, #25]
    } while( len != 0 );
 80052c2:	88fb      	ldrh	r3, [r7, #6]
 80052c4:	2b00      	cmp	r3, #0
 80052c6:	d1c6      	bne.n	8005256 <u8g2_ll_hvline_vertical_top_lsb+0xc2>
}
 80052c8:	bf00      	nop
 80052ca:	3724      	adds	r7, #36	; 0x24
 80052cc:	46bd      	mov	sp, r7
 80052ce:	bc80      	pop	{r7}
 80052d0:	4770      	bx	lr

080052d2 <u8g2_SetMaxClipWindow>:


#ifdef U8G2_WITH_CLIP_WINDOW_SUPPORT

void u8g2_SetMaxClipWindow(u8g2_t *u8g2)
{
 80052d2:	b580      	push	{r7, lr}
 80052d4:	b082      	sub	sp, #8
 80052d6:	af00      	add	r7, sp, #0
 80052d8:	6078      	str	r0, [r7, #4]
  u8g2->clip_x0 = 0;
 80052da:	687b      	ldr	r3, [r7, #4]
 80052dc:	2200      	movs	r2, #0
 80052de:	f8a3 2050 	strh.w	r2, [r3, #80]	; 0x50
  u8g2->clip_y0 = 0;
 80052e2:	687b      	ldr	r3, [r7, #4]
 80052e4:	2200      	movs	r2, #0
 80052e6:	f8a3 2054 	strh.w	r2, [r3, #84]	; 0x54
  u8g2->clip_x1 = (u8g2_uint_t)~(u8g2_uint_t)0;
 80052ea:	687b      	ldr	r3, [r7, #4]
 80052ec:	f64f 72ff 	movw	r2, #65535	; 0xffff
 80052f0:	f8a3 2052 	strh.w	r2, [r3, #82]	; 0x52
  u8g2->clip_y1 = (u8g2_uint_t)~(u8g2_uint_t)0;
 80052f4:	687b      	ldr	r3, [r7, #4]
 80052f6:	f64f 72ff 	movw	r2, #65535	; 0xffff
 80052fa:	f8a3 2056 	strh.w	r2, [r3, #86]	; 0x56
  
  u8g2->cb->update_page_win(u8g2);
 80052fe:	687b      	ldr	r3, [r7, #4]
 8005300:	6b1b      	ldr	r3, [r3, #48]	; 0x30
 8005302:	685b      	ldr	r3, [r3, #4]
 8005304:	6878      	ldr	r0, [r7, #4]
 8005306:	4798      	blx	r3
}
 8005308:	bf00      	nop
 800530a:	3708      	adds	r7, #8
 800530c:	46bd      	mov	sp, r7
 800530e:	bd80      	pop	{r7, pc}

08005310 <u8g2_SetupBuffer>:
/*
  This procedure is called after setting up the display (u8x8 structure).
  --> This is the central init procedure for u8g2 object
*/
void u8g2_SetupBuffer(u8g2_t *u8g2, uint8_t *buf, uint8_t tile_buf_height, u8g2_draw_ll_hvline_cb ll_hvline_cb, const u8g2_cb_t *u8g2_cb)
{
 8005310:	b580      	push	{r7, lr}
 8005312:	b084      	sub	sp, #16
 8005314:	af00      	add	r7, sp, #0
 8005316:	60f8      	str	r0, [r7, #12]
 8005318:	60b9      	str	r1, [r7, #8]
 800531a:	603b      	str	r3, [r7, #0]
 800531c:	4613      	mov	r3, r2
 800531e:	71fb      	strb	r3, [r7, #7]
  u8g2->font = NULL;
 8005320:	68fb      	ldr	r3, [r7, #12]
 8005322:	2200      	movs	r2, #0
 8005324:	659a      	str	r2, [r3, #88]	; 0x58
  //u8g2->kerning = NULL;
  //u8g2->get_kerning_cb = u8g2_GetNullKerning;
  
  //u8g2->ll_hvline = u8g2_ll_hvline_vertical_top_lsb;
  u8g2->ll_hvline = ll_hvline_cb;
 8005326:	68fb      	ldr	r3, [r7, #12]
 8005328:	683a      	ldr	r2, [r7, #0]
 800532a:	62da      	str	r2, [r3, #44]	; 0x2c
  
  u8g2->tile_buf_ptr = buf;
 800532c:	68fb      	ldr	r3, [r7, #12]
 800532e:	68ba      	ldr	r2, [r7, #8]
 8005330:	635a      	str	r2, [r3, #52]	; 0x34
  u8g2->tile_buf_height = tile_buf_height;
 8005332:	68fb      	ldr	r3, [r7, #12]
 8005334:	79fa      	ldrb	r2, [r7, #7]
 8005336:	f883 2038 	strb.w	r2, [r3, #56]	; 0x38
  
  u8g2->tile_curr_row = 0;
 800533a:	68fb      	ldr	r3, [r7, #12]
 800533c:	2200      	movs	r2, #0
 800533e:	f883 2039 	strb.w	r2, [r3, #57]	; 0x39
  
  u8g2->font_decode.is_transparent = 0; /* issue 443 */
 8005342:	68fb      	ldr	r3, [r7, #12]
 8005344:	2200      	movs	r2, #0
 8005346:	f883 206d 	strb.w	r2, [r3, #109]	; 0x6d
  u8g2->bitmap_transparency = 0;
 800534a:	68fb      	ldr	r3, [r7, #12]
 800534c:	2200      	movs	r2, #0
 800534e:	f883 2091 	strb.w	r2, [r3, #145]	; 0x91
  
  u8g2->draw_color = 1;
 8005352:	68fb      	ldr	r3, [r7, #12]
 8005354:	2201      	movs	r2, #1
 8005356:	f883 2092 	strb.w	r2, [r3, #146]	; 0x92
  u8g2->is_auto_page_clear = 1;
 800535a:	68fb      	ldr	r3, [r7, #12]
 800535c:	2201      	movs	r2, #1
 800535e:	f883 2093 	strb.w	r2, [r3, #147]	; 0x93
  
  u8g2->cb = u8g2_cb;
 8005362:	68fb      	ldr	r3, [r7, #12]
 8005364:	69ba      	ldr	r2, [r7, #24]
 8005366:	631a      	str	r2, [r3, #48]	; 0x30
  u8g2->cb->update_dimension(u8g2);
 8005368:	68fb      	ldr	r3, [r7, #12]
 800536a:	6b1b      	ldr	r3, [r3, #48]	; 0x30
 800536c:	681b      	ldr	r3, [r3, #0]
 800536e:	68f8      	ldr	r0, [r7, #12]
 8005370:	4798      	blx	r3
#ifdef U8G2_WITH_CLIP_WINDOW_SUPPORT
  u8g2_SetMaxClipWindow(u8g2);		/* assign a clip window and call the update() procedure */
 8005372:	68f8      	ldr	r0, [r7, #12]
 8005374:	f7ff ffad 	bl	80052d2 <u8g2_SetMaxClipWindow>
#else
  u8g2->cb->update_page_win(u8g2);
#endif

  u8g2_SetFontPosBaseline(u8g2);  /* issue 195 */
 8005378:	68f8      	ldr	r0, [r7, #12]
 800537a:	f7ff fd5d 	bl	8004e38 <u8g2_SetFontPosBaseline>
  
#ifdef U8G2_WITH_FONT_ROTATION  
  u8g2->font_decode.dir = 0;
 800537e:	68fb      	ldr	r3, [r7, #12]
 8005380:	2200      	movs	r2, #0
 8005382:	f883 2070 	strb.w	r2, [r3, #112]	; 0x70
#endif
}
 8005386:	bf00      	nop
 8005388:	3710      	adds	r7, #16
 800538a:	46bd      	mov	sp, r7
 800538c:	bd80      	pop	{r7, pc}

0800538e <u8g2_update_dimension_common>:
    u8g2_uint_t buf_y0;
    u8g2_uint_t buf_y1; 	
*/

static void u8g2_update_dimension_common(u8g2_t *u8g2)
{
 800538e:	b480      	push	{r7}
 8005390:	b085      	sub	sp, #20
 8005392:	af00      	add	r7, sp, #0
 8005394:	6078      	str	r0, [r7, #4]
  const u8x8_display_info_t *display_info = u8g2_GetU8x8(u8g2)->display_info;
 8005396:	687b      	ldr	r3, [r7, #4]
 8005398:	681b      	ldr	r3, [r3, #0]
 800539a:	60bb      	str	r3, [r7, #8]
  u8g2_uint_t t;
  
  t = u8g2->tile_buf_height;
 800539c:	687b      	ldr	r3, [r7, #4]
 800539e:	f893 3038 	ldrb.w	r3, [r3, #56]	; 0x38
 80053a2:	81fb      	strh	r3, [r7, #14]
  t *= 8;
 80053a4:	89fb      	ldrh	r3, [r7, #14]
 80053a6:	00db      	lsls	r3, r3, #3
 80053a8:	81fb      	strh	r3, [r7, #14]
  u8g2->pixel_buf_height = t;
 80053aa:	687b      	ldr	r3, [r7, #4]
 80053ac:	89fa      	ldrh	r2, [r7, #14]
 80053ae:	879a      	strh	r2, [r3, #60]	; 0x3c
  
  t = display_info->tile_width;
 80053b0:	68bb      	ldr	r3, [r7, #8]
 80053b2:	7c1b      	ldrb	r3, [r3, #16]
 80053b4:	81fb      	strh	r3, [r7, #14]
#ifndef U8G2_16BIT
  if ( t >= 32 )
    t = 31;
#endif
  t *= 8;
 80053b6:	89fb      	ldrh	r3, [r7, #14]
 80053b8:	00db      	lsls	r3, r3, #3
 80053ba:	81fb      	strh	r3, [r7, #14]
  u8g2->pixel_buf_width = t;
 80053bc:	687b      	ldr	r3, [r7, #4]
 80053be:	89fa      	ldrh	r2, [r7, #14]
 80053c0:	875a      	strh	r2, [r3, #58]	; 0x3a
  
  t = u8g2->tile_curr_row;
 80053c2:	687b      	ldr	r3, [r7, #4]
 80053c4:	f893 3039 	ldrb.w	r3, [r3, #57]	; 0x39
 80053c8:	81fb      	strh	r3, [r7, #14]
  t *= 8;
 80053ca:	89fb      	ldrh	r3, [r7, #14]
 80053cc:	00db      	lsls	r3, r3, #3
 80053ce:	81fb      	strh	r3, [r7, #14]
  u8g2->pixel_curr_row = t;
 80053d0:	687b      	ldr	r3, [r7, #4]
 80053d2:	89fa      	ldrh	r2, [r7, #14]
 80053d4:	87da      	strh	r2, [r3, #62]	; 0x3e
  
  t = u8g2->tile_buf_height;
 80053d6:	687b      	ldr	r3, [r7, #4]
 80053d8:	f893 3038 	ldrb.w	r3, [r3, #56]	; 0x38
 80053dc:	81fb      	strh	r3, [r7, #14]
  /* handle the case, where the buffer is larger than the (remaining) part of the display */
  if ( t + u8g2->tile_curr_row > display_info->tile_height )
 80053de:	89fb      	ldrh	r3, [r7, #14]
 80053e0:	687a      	ldr	r2, [r7, #4]
 80053e2:	f892 2039 	ldrb.w	r2, [r2, #57]	; 0x39
 80053e6:	4413      	add	r3, r2
 80053e8:	68ba      	ldr	r2, [r7, #8]
 80053ea:	7c52      	ldrb	r2, [r2, #17]
 80053ec:	4293      	cmp	r3, r2
 80053ee:	dd08      	ble.n	8005402 <u8g2_update_dimension_common+0x74>
    t = display_info->tile_height - u8g2->tile_curr_row;
 80053f0:	68bb      	ldr	r3, [r7, #8]
 80053f2:	7c5b      	ldrb	r3, [r3, #17]
 80053f4:	b29a      	uxth	r2, r3
 80053f6:	687b      	ldr	r3, [r7, #4]
 80053f8:	f893 3039 	ldrb.w	r3, [r3, #57]	; 0x39
 80053fc:	b29b      	uxth	r3, r3
 80053fe:	1ad3      	subs	r3, r2, r3
 8005400:	81fb      	strh	r3, [r7, #14]
  t *= 8;
 8005402:	89fb      	ldrh	r3, [r7, #14]
 8005404:	00db      	lsls	r3, r3, #3
 8005406:	81fb      	strh	r3, [r7, #14]
  
  u8g2->buf_y0 = u8g2->pixel_curr_row;   
 8005408:	687b      	ldr	r3, [r7, #4]
 800540a:	8fda      	ldrh	r2, [r3, #62]	; 0x3e
 800540c:	687b      	ldr	r3, [r7, #4]
 800540e:	f8a3 2040 	strh.w	r2, [r3, #64]	; 0x40
  u8g2->buf_y1 = u8g2->buf_y0;
 8005412:	687b      	ldr	r3, [r7, #4]
 8005414:	f8b3 2040 	ldrh.w	r2, [r3, #64]	; 0x40
 8005418:	687b      	ldr	r3, [r7, #4]
 800541a:	f8a3 2042 	strh.w	r2, [r3, #66]	; 0x42
  u8g2->buf_y1 += t;
 800541e:	687b      	ldr	r3, [r7, #4]
 8005420:	f8b3 2042 	ldrh.w	r2, [r3, #66]	; 0x42
 8005424:	89fb      	ldrh	r3, [r7, #14]
 8005426:	4413      	add	r3, r2
 8005428:	b29a      	uxth	r2, r3
 800542a:	687b      	ldr	r3, [r7, #4]
 800542c:	f8a3 2042 	strh.w	r2, [r3, #66]	; 0x42

  
#ifdef U8G2_16BIT
  u8g2->width = display_info->pixel_width;
 8005430:	68bb      	ldr	r3, [r7, #8]
 8005432:	8a9a      	ldrh	r2, [r3, #20]
 8005434:	687b      	ldr	r3, [r7, #4]
 8005436:	f8a3 2044 	strh.w	r2, [r3, #68]	; 0x44
  u8g2->height = display_info->pixel_height;
 800543a:	68bb      	ldr	r3, [r7, #8]
 800543c:	8ada      	ldrh	r2, [r3, #22]
 800543e:	687b      	ldr	r3, [r7, #4]
 8005440:	f8a3 2046 	strh.w	r2, [r3, #70]	; 0x46
  if ( display_info->pixel_width <= 240 )
    u8g2->width = display_info->pixel_width;
  u8g2->height = display_info->pixel_height;
#endif

}
 8005444:	bf00      	nop
 8005446:	3714      	adds	r7, #20
 8005448:	46bd      	mov	sp, r7
 800544a:	bc80      	pop	{r7}
 800544c:	4770      	bx	lr

0800544e <u8g2_apply_clip_window>:
/*==========================================================*/
/* apply clip window */

#ifdef U8G2_WITH_CLIP_WINDOW_SUPPORT
static void u8g2_apply_clip_window(u8g2_t *u8g2)
{
 800544e:	b580      	push	{r7, lr}
 8005450:	b084      	sub	sp, #16
 8005452:	af02      	add	r7, sp, #8
 8005454:	6078      	str	r0, [r7, #4]
  /* check aganst the current user_??? window */
  if ( u8g2_IsIntersection(u8g2, u8g2->clip_x0, u8g2->clip_y0, u8g2->clip_x1, u8g2->clip_y1) == 0 ) 
 8005456:	687b      	ldr	r3, [r7, #4]
 8005458:	f8b3 1050 	ldrh.w	r1, [r3, #80]	; 0x50
 800545c:	687b      	ldr	r3, [r7, #4]
 800545e:	f8b3 2054 	ldrh.w	r2, [r3, #84]	; 0x54
 8005462:	687b      	ldr	r3, [r7, #4]
 8005464:	f8b3 0052 	ldrh.w	r0, [r3, #82]	; 0x52
 8005468:	687b      	ldr	r3, [r7, #4]
 800546a:	f8b3 3056 	ldrh.w	r3, [r3, #86]	; 0x56
 800546e:	9300      	str	r3, [sp, #0]
 8005470:	4603      	mov	r3, r0
 8005472:	6878      	ldr	r0, [r7, #4]
 8005474:	f7ff fe63 	bl	800513e <u8g2_IsIntersection>
 8005478:	4603      	mov	r3, r0
 800547a:	2b00      	cmp	r3, #0
 800547c:	d104      	bne.n	8005488 <u8g2_apply_clip_window+0x3a>
  {
    u8g2->is_page_clip_window_intersection = 0;
 800547e:	687b      	ldr	r3, [r7, #4]
 8005480:	2200      	movs	r2, #0
 8005482:	f883 208c 	strb.w	r2, [r3, #140]	; 0x8c
    if ( u8g2->user_y0 < u8g2->clip_y0 )
      u8g2->user_y0 = u8g2->clip_y0;
    if ( u8g2->user_y1 > u8g2->clip_y1 )
      u8g2->user_y1 = u8g2->clip_y1;
  }
}
 8005486:	e03b      	b.n	8005500 <u8g2_apply_clip_window+0xb2>
    u8g2->is_page_clip_window_intersection = 1;
 8005488:	687b      	ldr	r3, [r7, #4]
 800548a:	2201      	movs	r2, #1
 800548c:	f883 208c 	strb.w	r2, [r3, #140]	; 0x8c
    if ( u8g2->user_x0 < u8g2->clip_x0 )
 8005490:	687b      	ldr	r3, [r7, #4]
 8005492:	f8b3 2048 	ldrh.w	r2, [r3, #72]	; 0x48
 8005496:	687b      	ldr	r3, [r7, #4]
 8005498:	f8b3 3050 	ldrh.w	r3, [r3, #80]	; 0x50
 800549c:	429a      	cmp	r2, r3
 800549e:	d205      	bcs.n	80054ac <u8g2_apply_clip_window+0x5e>
      u8g2->user_x0 = u8g2->clip_x0;
 80054a0:	687b      	ldr	r3, [r7, #4]
 80054a2:	f8b3 2050 	ldrh.w	r2, [r3, #80]	; 0x50
 80054a6:	687b      	ldr	r3, [r7, #4]
 80054a8:	f8a3 2048 	strh.w	r2, [r3, #72]	; 0x48
    if ( u8g2->user_x1 > u8g2->clip_x1 )
 80054ac:	687b      	ldr	r3, [r7, #4]
 80054ae:	f8b3 204a 	ldrh.w	r2, [r3, #74]	; 0x4a
 80054b2:	687b      	ldr	r3, [r7, #4]
 80054b4:	f8b3 3052 	ldrh.w	r3, [r3, #82]	; 0x52
 80054b8:	429a      	cmp	r2, r3
 80054ba:	d905      	bls.n	80054c8 <u8g2_apply_clip_window+0x7a>
      u8g2->user_x1 = u8g2->clip_x1;
 80054bc:	687b      	ldr	r3, [r7, #4]
 80054be:	f8b3 2052 	ldrh.w	r2, [r3, #82]	; 0x52
 80054c2:	687b      	ldr	r3, [r7, #4]
 80054c4:	f8a3 204a 	strh.w	r2, [r3, #74]	; 0x4a
    if ( u8g2->user_y0 < u8g2->clip_y0 )
 80054c8:	687b      	ldr	r3, [r7, #4]
 80054ca:	f8b3 204c 	ldrh.w	r2, [r3, #76]	; 0x4c
 80054ce:	687b      	ldr	r3, [r7, #4]
 80054d0:	f8b3 3054 	ldrh.w	r3, [r3, #84]	; 0x54
 80054d4:	429a      	cmp	r2, r3
 80054d6:	d205      	bcs.n	80054e4 <u8g2_apply_clip_window+0x96>
      u8g2->user_y0 = u8g2->clip_y0;
 80054d8:	687b      	ldr	r3, [r7, #4]
 80054da:	f8b3 2054 	ldrh.w	r2, [r3, #84]	; 0x54
 80054de:	687b      	ldr	r3, [r7, #4]
 80054e0:	f8a3 204c 	strh.w	r2, [r3, #76]	; 0x4c
    if ( u8g2->user_y1 > u8g2->clip_y1 )
 80054e4:	687b      	ldr	r3, [r7, #4]
 80054e6:	f8b3 204e 	ldrh.w	r2, [r3, #78]	; 0x4e
 80054ea:	687b      	ldr	r3, [r7, #4]
 80054ec:	f8b3 3056 	ldrh.w	r3, [r3, #86]	; 0x56
 80054f0:	429a      	cmp	r2, r3
 80054f2:	d905      	bls.n	8005500 <u8g2_apply_clip_window+0xb2>
      u8g2->user_y1 = u8g2->clip_y1;
 80054f4:	687b      	ldr	r3, [r7, #4]
 80054f6:	f8b3 2056 	ldrh.w	r2, [r3, #86]	; 0x56
 80054fa:	687b      	ldr	r3, [r7, #4]
 80054fc:	f8a3 204e 	strh.w	r2, [r3, #78]	; 0x4e
}
 8005500:	bf00      	nop
 8005502:	3708      	adds	r7, #8
 8005504:	46bd      	mov	sp, r7
 8005506:	bd80      	pop	{r7, pc}

08005508 <u8g2_update_dimension_r2>:
  u8g2_apply_clip_window(u8g2);
#endif /* U8G2_WITH_CLIP_WINDOW_SUPPORT */
}

void u8g2_update_dimension_r2(u8g2_t *u8g2)
{
 8005508:	b580      	push	{r7, lr}
 800550a:	b082      	sub	sp, #8
 800550c:	af00      	add	r7, sp, #0
 800550e:	6078      	str	r0, [r7, #4]
  u8g2_update_dimension_common(u8g2);
 8005510:	6878      	ldr	r0, [r7, #4]
 8005512:	f7ff ff3c 	bl	800538e <u8g2_update_dimension_common>
}
 8005516:	bf00      	nop
 8005518:	3708      	adds	r7, #8
 800551a:	46bd      	mov	sp, r7
 800551c:	bd80      	pop	{r7, pc}

0800551e <u8g2_update_page_win_r2>:

void u8g2_update_page_win_r2(u8g2_t *u8g2)
{
 800551e:	b580      	push	{r7, lr}
 8005520:	b082      	sub	sp, #8
 8005522:	af00      	add	r7, sp, #0
 8005524:	6078      	str	r0, [r7, #4]
  u8g2->user_x0 = 0;
 8005526:	687b      	ldr	r3, [r7, #4]
 8005528:	2200      	movs	r2, #0
 800552a:	f8a3 2048 	strh.w	r2, [r3, #72]	; 0x48
  u8g2->user_x1 = u8g2->width;	/* pixel_buf_width replaced with width */
 800552e:	687b      	ldr	r3, [r7, #4]
 8005530:	f8b3 2044 	ldrh.w	r2, [r3, #68]	; 0x44
 8005534:	687b      	ldr	r3, [r7, #4]
 8005536:	f8a3 204a 	strh.w	r2, [r3, #74]	; 0x4a
  
  /* there are ases where the height is not a multiple of 8. */
  /* in such a case u8g2->buf_y1 might be heigher than u8g2->height */
  u8g2->user_y0 = 0;
 800553a:	687b      	ldr	r3, [r7, #4]
 800553c:	2200      	movs	r2, #0
 800553e:	f8a3 204c 	strh.w	r2, [r3, #76]	; 0x4c
  if ( u8g2->height >= u8g2->buf_y1 )
 8005542:	687b      	ldr	r3, [r7, #4]
 8005544:	f8b3 2046 	ldrh.w	r2, [r3, #70]	; 0x46
 8005548:	687b      	ldr	r3, [r7, #4]
 800554a:	f8b3 3042 	ldrh.w	r3, [r3, #66]	; 0x42
 800554e:	429a      	cmp	r2, r3
 8005550:	d30a      	bcc.n	8005568 <u8g2_update_page_win_r2+0x4a>
    u8g2->user_y0 = u8g2->height - u8g2->buf_y1;
 8005552:	687b      	ldr	r3, [r7, #4]
 8005554:	f8b3 2046 	ldrh.w	r2, [r3, #70]	; 0x46
 8005558:	687b      	ldr	r3, [r7, #4]
 800555a:	f8b3 3042 	ldrh.w	r3, [r3, #66]	; 0x42
 800555e:	1ad3      	subs	r3, r2, r3
 8005560:	b29a      	uxth	r2, r3
 8005562:	687b      	ldr	r3, [r7, #4]
 8005564:	f8a3 204c 	strh.w	r2, [r3, #76]	; 0x4c
  u8g2->user_y1 = u8g2->height - u8g2->buf_y0;
 8005568:	687b      	ldr	r3, [r7, #4]
 800556a:	f8b3 2046 	ldrh.w	r2, [r3, #70]	; 0x46
 800556e:	687b      	ldr	r3, [r7, #4]
 8005570:	f8b3 3040 	ldrh.w	r3, [r3, #64]	; 0x40
 8005574:	1ad3      	subs	r3, r2, r3
 8005576:	b29a      	uxth	r2, r3
 8005578:	687b      	ldr	r3, [r7, #4]
 800557a:	f8a3 204e 	strh.w	r2, [r3, #78]	; 0x4e

#ifdef U8G2_WITH_CLIP_WINDOW_SUPPORT
  u8g2_apply_clip_window(u8g2);
 800557e:	6878      	ldr	r0, [r7, #4]
 8005580:	f7ff ff65 	bl	800544e <u8g2_apply_clip_window>
#endif /* U8G2_WITH_CLIP_WINDOW_SUPPORT */
}
 8005584:	bf00      	nop
 8005586:	3708      	adds	r7, #8
 8005588:	46bd      	mov	sp, r7
 800558a:	bd80      	pop	{r7, pc}

0800558c <u8g2_draw_l90_r2>:
  
  u8g2_draw_hv_line_2dir(u8g2, xx, yy, len, dir);
}

void u8g2_draw_l90_r2(u8g2_t *u8g2, u8g2_uint_t x, u8g2_uint_t y, u8g2_uint_t len, uint8_t dir)
{
 800558c:	b580      	push	{r7, lr}
 800558e:	b088      	sub	sp, #32
 8005590:	af02      	add	r7, sp, #8
 8005592:	60f8      	str	r0, [r7, #12]
 8005594:	4608      	mov	r0, r1
 8005596:	4611      	mov	r1, r2
 8005598:	461a      	mov	r2, r3
 800559a:	4603      	mov	r3, r0
 800559c:	817b      	strh	r3, [r7, #10]
 800559e:	460b      	mov	r3, r1
 80055a0:	813b      	strh	r3, [r7, #8]
 80055a2:	4613      	mov	r3, r2
 80055a4:	80fb      	strh	r3, [r7, #6]
    yy -= len;
    yy++;
  }
  */

  yy = u8g2->height;
 80055a6:	68fb      	ldr	r3, [r7, #12]
 80055a8:	f8b3 3046 	ldrh.w	r3, [r3, #70]	; 0x46
 80055ac:	82bb      	strh	r3, [r7, #20]
  yy -= y;
 80055ae:	8aba      	ldrh	r2, [r7, #20]
 80055b0:	893b      	ldrh	r3, [r7, #8]
 80055b2:	1ad3      	subs	r3, r2, r3
 80055b4:	82bb      	strh	r3, [r7, #20]
  
  xx = u8g2->width;
 80055b6:	68fb      	ldr	r3, [r7, #12]
 80055b8:	f8b3 3044 	ldrh.w	r3, [r3, #68]	; 0x44
 80055bc:	82fb      	strh	r3, [r7, #22]
  xx -= x;
 80055be:	8afa      	ldrh	r2, [r7, #22]
 80055c0:	897b      	ldrh	r3, [r7, #10]
 80055c2:	1ad3      	subs	r3, r2, r3
 80055c4:	82fb      	strh	r3, [r7, #22]
  
  if ( dir == 0 )
 80055c6:	f897 3020 	ldrb.w	r3, [r7, #32]
 80055ca:	2b00      	cmp	r3, #0
 80055cc:	d107      	bne.n	80055de <u8g2_draw_l90_r2+0x52>
  {
    yy--;
 80055ce:	8abb      	ldrh	r3, [r7, #20]
 80055d0:	3b01      	subs	r3, #1
 80055d2:	82bb      	strh	r3, [r7, #20]
    xx -= len;
 80055d4:	8afa      	ldrh	r2, [r7, #22]
 80055d6:	88fb      	ldrh	r3, [r7, #6]
 80055d8:	1ad3      	subs	r3, r2, r3
 80055da:	82fb      	strh	r3, [r7, #22]
 80055dc:	e00a      	b.n	80055f4 <u8g2_draw_l90_r2+0x68>
  }
  else if ( dir == 1 )
 80055de:	f897 3020 	ldrb.w	r3, [r7, #32]
 80055e2:	2b01      	cmp	r3, #1
 80055e4:	d106      	bne.n	80055f4 <u8g2_draw_l90_r2+0x68>
  {
    xx--;
 80055e6:	8afb      	ldrh	r3, [r7, #22]
 80055e8:	3b01      	subs	r3, #1
 80055ea:	82fb      	strh	r3, [r7, #22]
    yy -= len;
 80055ec:	8aba      	ldrh	r2, [r7, #20]
 80055ee:	88fb      	ldrh	r3, [r7, #6]
 80055f0:	1ad3      	subs	r3, r2, r3
 80055f2:	82bb      	strh	r3, [r7, #20]
  }

  u8g2_draw_hv_line_2dir(u8g2, xx, yy, len, dir);
 80055f4:	88f8      	ldrh	r0, [r7, #6]
 80055f6:	8aba      	ldrh	r2, [r7, #20]
 80055f8:	8af9      	ldrh	r1, [r7, #22]
 80055fa:	f897 3020 	ldrb.w	r3, [r7, #32]
 80055fe:	9300      	str	r3, [sp, #0]
 8005600:	4603      	mov	r3, r0
 8005602:	68f8      	ldr	r0, [r7, #12]
 8005604:	f7ff fc8d 	bl	8004f22 <u8g2_draw_hv_line_2dir>
}
 8005608:	bf00      	nop
 800560a:	3718      	adds	r7, #24
 800560c:	46bd      	mov	sp, r7
 800560e:	bd80      	pop	{r7, pc}

08005610 <u8x8_utf8_init>:

*/

/* reset the internal state machine */
void u8x8_utf8_init(u8x8_t *u8x8)
{
 8005610:	b480      	push	{r7}
 8005612:	b083      	sub	sp, #12
 8005614:	af00      	add	r7, sp, #0
 8005616:	6078      	str	r0, [r7, #4]
  u8x8->utf8_state = 0;	/* also reset during u8x8_SetupDefaults() */
 8005618:	687b      	ldr	r3, [r7, #4]
 800561a:	2200      	movs	r2, #0
 800561c:	f883 2026 	strb.w	r2, [r3, #38]	; 0x26
}
 8005620:	bf00      	nop
 8005622:	370c      	adds	r7, #12
 8005624:	46bd      	mov	sp, r7
 8005626:	bc80      	pop	{r7}
 8005628:	4770      	bx	lr

0800562a <u8x8_ascii_next>:

uint16_t u8x8_ascii_next(U8X8_UNUSED u8x8_t *u8x8, uint8_t b)
{
 800562a:	b480      	push	{r7}
 800562c:	b083      	sub	sp, #12
 800562e:	af00      	add	r7, sp, #0
 8005630:	6078      	str	r0, [r7, #4]
 8005632:	460b      	mov	r3, r1
 8005634:	70fb      	strb	r3, [r7, #3]
  if ( b == 0 || b == '\n' ) /* '\n' terminates the string to support the string list procedures */
 8005636:	78fb      	ldrb	r3, [r7, #3]
 8005638:	2b00      	cmp	r3, #0
 800563a:	d002      	beq.n	8005642 <u8x8_ascii_next+0x18>
 800563c:	78fb      	ldrb	r3, [r7, #3]
 800563e:	2b0a      	cmp	r3, #10
 8005640:	d102      	bne.n	8005648 <u8x8_ascii_next+0x1e>
    return 0x0ffff;	/* end of string detected*/
 8005642:	f64f 73ff 	movw	r3, #65535	; 0xffff
 8005646:	e001      	b.n	800564c <u8x8_ascii_next+0x22>
  return b;
 8005648:	78fb      	ldrb	r3, [r7, #3]
 800564a:	b29b      	uxth	r3, r3
}
 800564c:	4618      	mov	r0, r3
 800564e:	370c      	adds	r7, #12
 8005650:	46bd      	mov	sp, r7
 8005652:	bc80      	pop	{r7}
 8005654:	4770      	bx	lr

08005656 <u8x8_byte_SetDC>:
*/

#include "u8x8.h"

uint8_t u8x8_byte_SetDC(u8x8_t *u8x8, uint8_t dc)
{
 8005656:	b590      	push	{r4, r7, lr}
 8005658:	b083      	sub	sp, #12
 800565a:	af00      	add	r7, sp, #0
 800565c:	6078      	str	r0, [r7, #4]
 800565e:	460b      	mov	r3, r1
 8005660:	70fb      	strb	r3, [r7, #3]
  return u8x8->byte_cb(u8x8, U8X8_MSG_BYTE_SET_DC, dc, NULL);
 8005662:	687b      	ldr	r3, [r7, #4]
 8005664:	691c      	ldr	r4, [r3, #16]
 8005666:	78fa      	ldrb	r2, [r7, #3]
 8005668:	2300      	movs	r3, #0
 800566a:	2120      	movs	r1, #32
 800566c:	6878      	ldr	r0, [r7, #4]
 800566e:	47a0      	blx	r4
 8005670:	4603      	mov	r3, r0
}
 8005672:	4618      	mov	r0, r3
 8005674:	370c      	adds	r7, #12
 8005676:	46bd      	mov	sp, r7
 8005678:	bd90      	pop	{r4, r7, pc}

0800567a <u8x8_byte_SendBytes>:

uint8_t u8x8_byte_SendBytes(u8x8_t *u8x8, uint8_t cnt, uint8_t *data)
{
 800567a:	b590      	push	{r4, r7, lr}
 800567c:	b085      	sub	sp, #20
 800567e:	af00      	add	r7, sp, #0
 8005680:	60f8      	str	r0, [r7, #12]
 8005682:	460b      	mov	r3, r1
 8005684:	607a      	str	r2, [r7, #4]
 8005686:	72fb      	strb	r3, [r7, #11]
  return u8x8->byte_cb(u8x8, U8X8_MSG_BYTE_SEND, cnt, (void *)data);
 8005688:	68fb      	ldr	r3, [r7, #12]
 800568a:	691c      	ldr	r4, [r3, #16]
 800568c:	7afa      	ldrb	r2, [r7, #11]
 800568e:	687b      	ldr	r3, [r7, #4]
 8005690:	2117      	movs	r1, #23
 8005692:	68f8      	ldr	r0, [r7, #12]
 8005694:	47a0      	blx	r4
 8005696:	4603      	mov	r3, r0
}
 8005698:	4618      	mov	r0, r3
 800569a:	3714      	adds	r7, #20
 800569c:	46bd      	mov	sp, r7
 800569e:	bd90      	pop	{r4, r7, pc}

080056a0 <u8x8_byte_SendByte>:

uint8_t u8x8_byte_SendByte(u8x8_t *u8x8, uint8_t byte)
{
 80056a0:	b580      	push	{r7, lr}
 80056a2:	b082      	sub	sp, #8
 80056a4:	af00      	add	r7, sp, #0
 80056a6:	6078      	str	r0, [r7, #4]
 80056a8:	460b      	mov	r3, r1
 80056aa:	70fb      	strb	r3, [r7, #3]
  return u8x8_byte_SendBytes(u8x8, 1, &byte);
 80056ac:	1cfb      	adds	r3, r7, #3
 80056ae:	461a      	mov	r2, r3
 80056b0:	2101      	movs	r1, #1
 80056b2:	6878      	ldr	r0, [r7, #4]
 80056b4:	f7ff ffe1 	bl	800567a <u8x8_byte_SendBytes>
 80056b8:	4603      	mov	r3, r0
}
 80056ba:	4618      	mov	r0, r3
 80056bc:	3708      	adds	r7, #8
 80056be:	46bd      	mov	sp, r7
 80056c0:	bd80      	pop	{r7, pc}

080056c2 <u8x8_cad_SendCmd>:
*/

#include "u8x8.h"

uint8_t u8x8_cad_SendCmd(u8x8_t *u8x8, uint8_t cmd)
{
 80056c2:	b590      	push	{r4, r7, lr}
 80056c4:	b083      	sub	sp, #12
 80056c6:	af00      	add	r7, sp, #0
 80056c8:	6078      	str	r0, [r7, #4]
 80056ca:	460b      	mov	r3, r1
 80056cc:	70fb      	strb	r3, [r7, #3]
  return u8x8->cad_cb(u8x8, U8X8_MSG_CAD_SEND_CMD, cmd, NULL);
 80056ce:	687b      	ldr	r3, [r7, #4]
 80056d0:	68dc      	ldr	r4, [r3, #12]
 80056d2:	78fa      	ldrb	r2, [r7, #3]
 80056d4:	2300      	movs	r3, #0
 80056d6:	2115      	movs	r1, #21
 80056d8:	6878      	ldr	r0, [r7, #4]
 80056da:	47a0      	blx	r4
 80056dc:	4603      	mov	r3, r0
}
 80056de:	4618      	mov	r0, r3
 80056e0:	370c      	adds	r7, #12
 80056e2:	46bd      	mov	sp, r7
 80056e4:	bd90      	pop	{r4, r7, pc}

080056e6 <u8x8_cad_SendArg>:

uint8_t u8x8_cad_SendArg(u8x8_t *u8x8, uint8_t arg)
{
 80056e6:	b590      	push	{r4, r7, lr}
 80056e8:	b083      	sub	sp, #12
 80056ea:	af00      	add	r7, sp, #0
 80056ec:	6078      	str	r0, [r7, #4]
 80056ee:	460b      	mov	r3, r1
 80056f0:	70fb      	strb	r3, [r7, #3]
  return u8x8->cad_cb(u8x8, U8X8_MSG_CAD_SEND_ARG, arg, NULL);
 80056f2:	687b      	ldr	r3, [r7, #4]
 80056f4:	68dc      	ldr	r4, [r3, #12]
 80056f6:	78fa      	ldrb	r2, [r7, #3]
 80056f8:	2300      	movs	r3, #0
 80056fa:	2116      	movs	r1, #22
 80056fc:	6878      	ldr	r0, [r7, #4]
 80056fe:	47a0      	blx	r4
 8005700:	4603      	mov	r3, r0
}
 8005702:	4618      	mov	r0, r3
 8005704:	370c      	adds	r7, #12
 8005706:	46bd      	mov	sp, r7
 8005708:	bd90      	pop	{r4, r7, pc}

0800570a <u8x8_cad_SendData>:
  }
  return 1;
}

uint8_t u8x8_cad_SendData(u8x8_t *u8x8, uint8_t cnt, uint8_t *data)
{
 800570a:	b590      	push	{r4, r7, lr}
 800570c:	b085      	sub	sp, #20
 800570e:	af00      	add	r7, sp, #0
 8005710:	60f8      	str	r0, [r7, #12]
 8005712:	460b      	mov	r3, r1
 8005714:	607a      	str	r2, [r7, #4]
 8005716:	72fb      	strb	r3, [r7, #11]
  return u8x8->cad_cb(u8x8, U8X8_MSG_CAD_SEND_DATA, cnt, data);
 8005718:	68fb      	ldr	r3, [r7, #12]
 800571a:	68dc      	ldr	r4, [r3, #12]
 800571c:	7afa      	ldrb	r2, [r7, #11]
 800571e:	687b      	ldr	r3, [r7, #4]
 8005720:	2117      	movs	r1, #23
 8005722:	68f8      	ldr	r0, [r7, #12]
 8005724:	47a0      	blx	r4
 8005726:	4603      	mov	r3, r0
}
 8005728:	4618      	mov	r0, r3
 800572a:	3714      	adds	r7, #20
 800572c:	46bd      	mov	sp, r7
 800572e:	bd90      	pop	{r4, r7, pc}

08005730 <u8x8_cad_StartTransfer>:

uint8_t u8x8_cad_StartTransfer(u8x8_t *u8x8)
{
 8005730:	b590      	push	{r4, r7, lr}
 8005732:	b083      	sub	sp, #12
 8005734:	af00      	add	r7, sp, #0
 8005736:	6078      	str	r0, [r7, #4]
  return u8x8->cad_cb(u8x8, U8X8_MSG_CAD_START_TRANSFER, 0, NULL);
 8005738:	687b      	ldr	r3, [r7, #4]
 800573a:	68dc      	ldr	r4, [r3, #12]
 800573c:	2300      	movs	r3, #0
 800573e:	2200      	movs	r2, #0
 8005740:	2118      	movs	r1, #24
 8005742:	6878      	ldr	r0, [r7, #4]
 8005744:	47a0      	blx	r4
 8005746:	4603      	mov	r3, r0
}
 8005748:	4618      	mov	r0, r3
 800574a:	370c      	adds	r7, #12
 800574c:	46bd      	mov	sp, r7
 800574e:	bd90      	pop	{r4, r7, pc}

08005750 <u8x8_cad_EndTransfer>:

uint8_t u8x8_cad_EndTransfer(u8x8_t *u8x8)
{
 8005750:	b590      	push	{r4, r7, lr}
 8005752:	b083      	sub	sp, #12
 8005754:	af00      	add	r7, sp, #0
 8005756:	6078      	str	r0, [r7, #4]
  return u8x8->cad_cb(u8x8, U8X8_MSG_CAD_END_TRANSFER, 0, NULL);
 8005758:	687b      	ldr	r3, [r7, #4]
 800575a:	68dc      	ldr	r4, [r3, #12]
 800575c:	2300      	movs	r3, #0
 800575e:	2200      	movs	r2, #0
 8005760:	2119      	movs	r1, #25
 8005762:	6878      	ldr	r0, [r7, #4]
 8005764:	47a0      	blx	r4
 8005766:	4603      	mov	r3, r0
}
 8005768:	4618      	mov	r0, r3
 800576a:	370c      	adds	r7, #12
 800576c:	46bd      	mov	sp, r7
 800576e:	bd90      	pop	{r4, r7, pc}

08005770 <u8x8_cad_SendSequence>:
  254 milli	delay by milliseconds
  255		end of sequence
*/

void u8x8_cad_SendSequence(u8x8_t *u8x8, uint8_t const *data)
{
 8005770:	b590      	push	{r4, r7, lr}
 8005772:	b085      	sub	sp, #20
 8005774:	af00      	add	r7, sp, #0
 8005776:	6078      	str	r0, [r7, #4]
 8005778:	6039      	str	r1, [r7, #0]
  uint8_t cmd;
  uint8_t v;

  for(;;)
  {
    cmd = *data;
 800577a:	683b      	ldr	r3, [r7, #0]
 800577c:	781b      	ldrb	r3, [r3, #0]
 800577e:	73fb      	strb	r3, [r7, #15]
    data++;
 8005780:	683b      	ldr	r3, [r7, #0]
 8005782:	3301      	adds	r3, #1
 8005784:	603b      	str	r3, [r7, #0]
    switch( cmd )
 8005786:	7bfb      	ldrb	r3, [r7, #15]
 8005788:	2bfe      	cmp	r3, #254	; 0xfe
 800578a:	d031      	beq.n	80057f0 <u8x8_cad_SendSequence+0x80>
 800578c:	2bfe      	cmp	r3, #254	; 0xfe
 800578e:	dc3d      	bgt.n	800580c <u8x8_cad_SendSequence+0x9c>
 8005790:	2b19      	cmp	r3, #25
 8005792:	dc3b      	bgt.n	800580c <u8x8_cad_SendSequence+0x9c>
 8005794:	2b18      	cmp	r3, #24
 8005796:	da23      	bge.n	80057e0 <u8x8_cad_SendSequence+0x70>
 8005798:	2b16      	cmp	r3, #22
 800579a:	dc02      	bgt.n	80057a2 <u8x8_cad_SendSequence+0x32>
 800579c:	2b15      	cmp	r3, #21
 800579e:	da03      	bge.n	80057a8 <u8x8_cad_SendSequence+0x38>
	  v = *data;
	  u8x8_gpio_Delay(u8x8, U8X8_MSG_DELAY_MILLI, v);	    
	  data++;
	  break;
      default:
	return;
 80057a0:	e034      	b.n	800580c <u8x8_cad_SendSequence+0x9c>
    switch( cmd )
 80057a2:	2b17      	cmp	r3, #23
 80057a4:	d00e      	beq.n	80057c4 <u8x8_cad_SendSequence+0x54>
	return;
 80057a6:	e031      	b.n	800580c <u8x8_cad_SendSequence+0x9c>
	  v = *data;
 80057a8:	683b      	ldr	r3, [r7, #0]
 80057aa:	781b      	ldrb	r3, [r3, #0]
 80057ac:	73bb      	strb	r3, [r7, #14]
	  u8x8->cad_cb(u8x8, cmd, v, NULL);
 80057ae:	687b      	ldr	r3, [r7, #4]
 80057b0:	68dc      	ldr	r4, [r3, #12]
 80057b2:	7bba      	ldrb	r2, [r7, #14]
 80057b4:	7bf9      	ldrb	r1, [r7, #15]
 80057b6:	2300      	movs	r3, #0
 80057b8:	6878      	ldr	r0, [r7, #4]
 80057ba:	47a0      	blx	r4
	  data++;
 80057bc:	683b      	ldr	r3, [r7, #0]
 80057be:	3301      	adds	r3, #1
 80057c0:	603b      	str	r3, [r7, #0]
	  break;
 80057c2:	e022      	b.n	800580a <u8x8_cad_SendSequence+0x9a>
	  v = *data;
 80057c4:	683b      	ldr	r3, [r7, #0]
 80057c6:	781b      	ldrb	r3, [r3, #0]
 80057c8:	73bb      	strb	r3, [r7, #14]
	  u8x8_cad_SendData(u8x8, 1, &v);
 80057ca:	f107 030e 	add.w	r3, r7, #14
 80057ce:	461a      	mov	r2, r3
 80057d0:	2101      	movs	r1, #1
 80057d2:	6878      	ldr	r0, [r7, #4]
 80057d4:	f7ff ff99 	bl	800570a <u8x8_cad_SendData>
	  data++;
 80057d8:	683b      	ldr	r3, [r7, #0]
 80057da:	3301      	adds	r3, #1
 80057dc:	603b      	str	r3, [r7, #0]
	  break;
 80057de:	e014      	b.n	800580a <u8x8_cad_SendSequence+0x9a>
	  u8x8->cad_cb(u8x8, cmd, 0, NULL);
 80057e0:	687b      	ldr	r3, [r7, #4]
 80057e2:	68dc      	ldr	r4, [r3, #12]
 80057e4:	7bf9      	ldrb	r1, [r7, #15]
 80057e6:	2300      	movs	r3, #0
 80057e8:	2200      	movs	r2, #0
 80057ea:	6878      	ldr	r0, [r7, #4]
 80057ec:	47a0      	blx	r4
	  break;
 80057ee:	e00c      	b.n	800580a <u8x8_cad_SendSequence+0x9a>
	  v = *data;
 80057f0:	683b      	ldr	r3, [r7, #0]
 80057f2:	781b      	ldrb	r3, [r3, #0]
 80057f4:	73bb      	strb	r3, [r7, #14]
	  u8x8_gpio_Delay(u8x8, U8X8_MSG_DELAY_MILLI, v);	    
 80057f6:	7bbb      	ldrb	r3, [r7, #14]
 80057f8:	461a      	mov	r2, r3
 80057fa:	2129      	movs	r1, #41	; 0x29
 80057fc:	6878      	ldr	r0, [r7, #4]
 80057fe:	f000 f9ec 	bl	8005bda <u8x8_gpio_call>
	  data++;
 8005802:	683b      	ldr	r3, [r7, #0]
 8005804:	3301      	adds	r3, #1
 8005806:	603b      	str	r3, [r7, #0]
	  break;
 8005808:	bf00      	nop
    cmd = *data;
 800580a:	e7b6      	b.n	800577a <u8x8_cad_SendSequence+0xa>
	return;
 800580c:	bf00      	nop
    }
  }
}
 800580e:	3714      	adds	r7, #20
 8005810:	46bd      	mov	sp, r7
 8005812:	bd90      	pop	{r4, r7, pc}

08005814 <u8x8_cad_001>:
  convert to bytes by using 
    dc = 0 for commands and args and
    dc = 1 for data
*/
uint8_t u8x8_cad_001(u8x8_t *u8x8, uint8_t msg, uint8_t arg_int, void *arg_ptr)
{
 8005814:	b590      	push	{r4, r7, lr}
 8005816:	b085      	sub	sp, #20
 8005818:	af00      	add	r7, sp, #0
 800581a:	60f8      	str	r0, [r7, #12]
 800581c:	607b      	str	r3, [r7, #4]
 800581e:	460b      	mov	r3, r1
 8005820:	72fb      	strb	r3, [r7, #11]
 8005822:	4613      	mov	r3, r2
 8005824:	72bb      	strb	r3, [r7, #10]
  switch(msg)
 8005826:	7afb      	ldrb	r3, [r7, #11]
 8005828:	3b14      	subs	r3, #20
 800582a:	2b05      	cmp	r3, #5
 800582c:	d82f      	bhi.n	800588e <u8x8_cad_001+0x7a>
 800582e:	a201      	add	r2, pc, #4	; (adr r2, 8005834 <u8x8_cad_001+0x20>)
 8005830:	f852 f023 	ldr.w	pc, [r2, r3, lsl #2]
 8005834:	0800587d 	.word	0x0800587d
 8005838:	0800584d 	.word	0x0800584d
 800583c:	08005861 	.word	0x08005861
 8005840:	08005875 	.word	0x08005875
 8005844:	0800587d 	.word	0x0800587d
 8005848:	0800587d 	.word	0x0800587d
  {
    case U8X8_MSG_CAD_SEND_CMD:
      u8x8_byte_SetDC(u8x8, 0);
 800584c:	2100      	movs	r1, #0
 800584e:	68f8      	ldr	r0, [r7, #12]
 8005850:	f7ff ff01 	bl	8005656 <u8x8_byte_SetDC>
      u8x8_byte_SendByte(u8x8, arg_int);
 8005854:	7abb      	ldrb	r3, [r7, #10]
 8005856:	4619      	mov	r1, r3
 8005858:	68f8      	ldr	r0, [r7, #12]
 800585a:	f7ff ff21 	bl	80056a0 <u8x8_byte_SendByte>
      break;
 800585e:	e018      	b.n	8005892 <u8x8_cad_001+0x7e>
    case U8X8_MSG_CAD_SEND_ARG:
      u8x8_byte_SetDC(u8x8, 0);
 8005860:	2100      	movs	r1, #0
 8005862:	68f8      	ldr	r0, [r7, #12]
 8005864:	f7ff fef7 	bl	8005656 <u8x8_byte_SetDC>
      u8x8_byte_SendByte(u8x8, arg_int);
 8005868:	7abb      	ldrb	r3, [r7, #10]
 800586a:	4619      	mov	r1, r3
 800586c:	68f8      	ldr	r0, [r7, #12]
 800586e:	f7ff ff17 	bl	80056a0 <u8x8_byte_SendByte>
      break;
 8005872:	e00e      	b.n	8005892 <u8x8_cad_001+0x7e>
    case U8X8_MSG_CAD_SEND_DATA:
      u8x8_byte_SetDC(u8x8, 1);
 8005874:	2101      	movs	r1, #1
 8005876:	68f8      	ldr	r0, [r7, #12]
 8005878:	f7ff feed 	bl	8005656 <u8x8_byte_SetDC>
      //break;
      /* fall through */
    case U8X8_MSG_CAD_INIT:
    case U8X8_MSG_CAD_START_TRANSFER:
    case U8X8_MSG_CAD_END_TRANSFER:
      return u8x8->byte_cb(u8x8, msg, arg_int, arg_ptr);
 800587c:	68fb      	ldr	r3, [r7, #12]
 800587e:	691c      	ldr	r4, [r3, #16]
 8005880:	7aba      	ldrb	r2, [r7, #10]
 8005882:	7af9      	ldrb	r1, [r7, #11]
 8005884:	687b      	ldr	r3, [r7, #4]
 8005886:	68f8      	ldr	r0, [r7, #12]
 8005888:	47a0      	blx	r4
 800588a:	4603      	mov	r3, r0
 800588c:	e002      	b.n	8005894 <u8x8_cad_001+0x80>
    default:
      return 0;
 800588e:	2300      	movs	r3, #0
 8005890:	e000      	b.n	8005894 <u8x8_cad_001+0x80>
  }
  return 1;
 8005892:	2301      	movs	r3, #1
}
 8005894:	4618      	mov	r0, r3
 8005896:	3714      	adds	r7, #20
 8005898:	46bd      	mov	sp, r7
 800589a:	bd90      	pop	{r4, r7, pc}

0800589c <u8x8_d_st7565_common>:
  /* pixel_width = */ 128,
  /* pixel_height = */ 64
};

uint8_t u8x8_d_st7565_common(u8x8_t *u8x8, uint8_t msg, uint8_t arg_int, void *arg_ptr)
{
 800589c:	b580      	push	{r7, lr}
 800589e:	b086      	sub	sp, #24
 80058a0:	af00      	add	r7, sp, #0
 80058a2:	60f8      	str	r0, [r7, #12]
 80058a4:	607b      	str	r3, [r7, #4]
 80058a6:	460b      	mov	r3, r1
 80058a8:	72fb      	strb	r3, [r7, #11]
 80058aa:	4613      	mov	r3, r2
 80058ac:	72bb      	strb	r3, [r7, #10]
  uint8_t x, c;
  uint8_t *ptr;
  switch(msg)
 80058ae:	7afb      	ldrb	r3, [r7, #11]
 80058b0:	2b0f      	cmp	r3, #15
 80058b2:	d006      	beq.n	80058c2 <u8x8_d_st7565_common+0x26>
 80058b4:	2b0f      	cmp	r3, #15
 80058b6:	dc71      	bgt.n	800599c <u8x8_d_st7565_common+0x100>
 80058b8:	2b0b      	cmp	r3, #11
 80058ba:	d050      	beq.n	800595e <u8x8_d_st7565_common+0xc2>
 80058bc:	2b0e      	cmp	r3, #14
 80058be:	d05b      	beq.n	8005978 <u8x8_d_st7565_common+0xdc>
 80058c0:	e06c      	b.n	800599c <u8x8_d_st7565_common+0x100>
  {
    case U8X8_MSG_DISPLAY_DRAW_TILE:
      u8x8_cad_StartTransfer(u8x8);
 80058c2:	68f8      	ldr	r0, [r7, #12]
 80058c4:	f7ff ff34 	bl	8005730 <u8x8_cad_StartTransfer>
    
      x = ((u8x8_tile_t *)arg_ptr)->x_pos;
 80058c8:	687b      	ldr	r3, [r7, #4]
 80058ca:	795b      	ldrb	r3, [r3, #5]
 80058cc:	75bb      	strb	r3, [r7, #22]
      x *= 8;
 80058ce:	7dbb      	ldrb	r3, [r7, #22]
 80058d0:	00db      	lsls	r3, r3, #3
 80058d2:	75bb      	strb	r3, [r7, #22]
      x += u8x8->x_offset;
 80058d4:	68fb      	ldr	r3, [r7, #12]
 80058d6:	f893 2022 	ldrb.w	r2, [r3, #34]	; 0x22
 80058da:	7dbb      	ldrb	r3, [r7, #22]
 80058dc:	4413      	add	r3, r2
 80058de:	75bb      	strb	r3, [r7, #22]
      u8x8_cad_SendCmd(u8x8, 0x010 | (x>>4) );
 80058e0:	7dbb      	ldrb	r3, [r7, #22]
 80058e2:	091b      	lsrs	r3, r3, #4
 80058e4:	b2db      	uxtb	r3, r3
 80058e6:	f043 0310 	orr.w	r3, r3, #16
 80058ea:	b2db      	uxtb	r3, r3
 80058ec:	4619      	mov	r1, r3
 80058ee:	68f8      	ldr	r0, [r7, #12]
 80058f0:	f7ff fee7 	bl	80056c2 <u8x8_cad_SendCmd>
      u8x8_cad_SendCmd(u8x8, 0x000 | ((x&15)));
 80058f4:	7dbb      	ldrb	r3, [r7, #22]
 80058f6:	f003 030f 	and.w	r3, r3, #15
 80058fa:	b2db      	uxtb	r3, r3
 80058fc:	4619      	mov	r1, r3
 80058fe:	68f8      	ldr	r0, [r7, #12]
 8005900:	f7ff fedf 	bl	80056c2 <u8x8_cad_SendCmd>
      u8x8_cad_SendCmd(u8x8, 0x0b0 | (((u8x8_tile_t *)arg_ptr)->y_pos));
 8005904:	687b      	ldr	r3, [r7, #4]
 8005906:	799b      	ldrb	r3, [r3, #6]
 8005908:	f063 034f 	orn	r3, r3, #79	; 0x4f
 800590c:	b2db      	uxtb	r3, r3
 800590e:	4619      	mov	r1, r3
 8005910:	68f8      	ldr	r0, [r7, #12]
 8005912:	f7ff fed6 	bl	80056c2 <u8x8_cad_SendCmd>
    
      c = ((u8x8_tile_t *)arg_ptr)->cnt;
 8005916:	687b      	ldr	r3, [r7, #4]
 8005918:	791b      	ldrb	r3, [r3, #4]
 800591a:	75fb      	strb	r3, [r7, #23]
      c *= 8;
 800591c:	7dfb      	ldrb	r3, [r7, #23]
 800591e:	00db      	lsls	r3, r3, #3
 8005920:	75fb      	strb	r3, [r7, #23]
      ptr = ((u8x8_tile_t *)arg_ptr)->tile_ptr;
 8005922:	687b      	ldr	r3, [r7, #4]
 8005924:	681b      	ldr	r3, [r3, #0]
 8005926:	613b      	str	r3, [r7, #16]
      /* 
	The following if condition checks the hardware limits of the st7565 
	controller: It is not allowed to write beyond the display limits.
	This is in fact an issue within flip mode.
      */
      if ( c + x > 132u )
 8005928:	7dfa      	ldrb	r2, [r7, #23]
 800592a:	7dbb      	ldrb	r3, [r7, #22]
 800592c:	4413      	add	r3, r2
 800592e:	2b84      	cmp	r3, #132	; 0x84
 8005930:	d905      	bls.n	800593e <u8x8_d_st7565_common+0xa2>
      {
	c = 132u;
 8005932:	2384      	movs	r3, #132	; 0x84
 8005934:	75fb      	strb	r3, [r7, #23]
	c -= x;
 8005936:	7dfa      	ldrb	r2, [r7, #23]
 8005938:	7dbb      	ldrb	r3, [r7, #22]
 800593a:	1ad3      	subs	r3, r2, r3
 800593c:	75fb      	strb	r3, [r7, #23]
      }
      do
      {
	u8x8_cad_SendData(u8x8, c, ptr);	/* note: SendData can not handle more than 255 bytes */
 800593e:	7dfb      	ldrb	r3, [r7, #23]
 8005940:	693a      	ldr	r2, [r7, #16]
 8005942:	4619      	mov	r1, r3
 8005944:	68f8      	ldr	r0, [r7, #12]
 8005946:	f7ff fee0 	bl	800570a <u8x8_cad_SendData>
	arg_int--;
 800594a:	7abb      	ldrb	r3, [r7, #10]
 800594c:	3b01      	subs	r3, #1
 800594e:	72bb      	strb	r3, [r7, #10]
      } while( arg_int > 0 );
 8005950:	7abb      	ldrb	r3, [r7, #10]
 8005952:	2b00      	cmp	r3, #0
 8005954:	d1f3      	bne.n	800593e <u8x8_d_st7565_common+0xa2>
      
      u8x8_cad_EndTransfer(u8x8);
 8005956:	68f8      	ldr	r0, [r7, #12]
 8005958:	f7ff fefa 	bl	8005750 <u8x8_cad_EndTransfer>
      break;
 800595c:	e020      	b.n	80059a0 <u8x8_d_st7565_common+0x104>
      u8x8_d_helper_display_init(u8x8);
      u8x8_cad_SendSequence(u8x8, u8x8_d_uc1701_dogs102_init_seq);
      break;
    */
    case U8X8_MSG_DISPLAY_SET_POWER_SAVE:
      if ( arg_int == 0 )
 800595e:	7abb      	ldrb	r3, [r7, #10]
 8005960:	2b00      	cmp	r3, #0
 8005962:	d104      	bne.n	800596e <u8x8_d_st7565_common+0xd2>
	u8x8_cad_SendSequence(u8x8, u8x8_d_st7565_powersave0_seq);
 8005964:	4911      	ldr	r1, [pc, #68]	; (80059ac <u8x8_d_st7565_common+0x110>)
 8005966:	68f8      	ldr	r0, [r7, #12]
 8005968:	f7ff ff02 	bl	8005770 <u8x8_cad_SendSequence>
      else
	u8x8_cad_SendSequence(u8x8, u8x8_d_st7565_powersave1_seq);
      break;
 800596c:	e018      	b.n	80059a0 <u8x8_d_st7565_common+0x104>
	u8x8_cad_SendSequence(u8x8, u8x8_d_st7565_powersave1_seq);
 800596e:	4910      	ldr	r1, [pc, #64]	; (80059b0 <u8x8_d_st7565_common+0x114>)
 8005970:	68f8      	ldr	r0, [r7, #12]
 8005972:	f7ff fefd 	bl	8005770 <u8x8_cad_SendSequence>
      break;
 8005976:	e013      	b.n	80059a0 <u8x8_d_st7565_common+0x104>
#ifdef U8X8_WITH_SET_CONTRAST
    case U8X8_MSG_DISPLAY_SET_CONTRAST:
      u8x8_cad_StartTransfer(u8x8);
 8005978:	68f8      	ldr	r0, [r7, #12]
 800597a:	f7ff fed9 	bl	8005730 <u8x8_cad_StartTransfer>
      u8x8_cad_SendCmd(u8x8, 0x081 );
 800597e:	2181      	movs	r1, #129	; 0x81
 8005980:	68f8      	ldr	r0, [r7, #12]
 8005982:	f7ff fe9e 	bl	80056c2 <u8x8_cad_SendCmd>
      u8x8_cad_SendArg(u8x8, arg_int >> 2 );	/* st7565 has range from 0 to 63 */
 8005986:	7abb      	ldrb	r3, [r7, #10]
 8005988:	089b      	lsrs	r3, r3, #2
 800598a:	b2db      	uxtb	r3, r3
 800598c:	4619      	mov	r1, r3
 800598e:	68f8      	ldr	r0, [r7, #12]
 8005990:	f7ff fea9 	bl	80056e6 <u8x8_cad_SendArg>
      u8x8_cad_EndTransfer(u8x8);
 8005994:	68f8      	ldr	r0, [r7, #12]
 8005996:	f7ff fedb 	bl	8005750 <u8x8_cad_EndTransfer>
      break;
 800599a:	e001      	b.n	80059a0 <u8x8_d_st7565_common+0x104>
#endif
    default:
      return 0;
 800599c:	2300      	movs	r3, #0
 800599e:	e000      	b.n	80059a2 <u8x8_d_st7565_common+0x106>
  }
  return 1;
 80059a0:	2301      	movs	r3, #1
}
 80059a2:	4618      	mov	r0, r3
 80059a4:	3718      	adds	r7, #24
 80059a6:	46bd      	mov	sp, r7
 80059a8:	bd80      	pop	{r7, pc}
 80059aa:	bf00      	nop
 80059ac:	0800ace4 	.word	0x0800ace4
 80059b0:	0800acec 	.word	0x0800acec

080059b4 <u8x8_d_st7565_nhd_c12864>:
  U8X8_END_TRANSFER(),             	/* disable chip */
  U8X8_END()             			/* end of sequence */
};

uint8_t u8x8_d_st7565_nhd_c12864(u8x8_t *u8x8, uint8_t msg, uint8_t arg_int, void *arg_ptr)
{
 80059b4:	b580      	push	{r7, lr}
 80059b6:	b084      	sub	sp, #16
 80059b8:	af00      	add	r7, sp, #0
 80059ba:	60f8      	str	r0, [r7, #12]
 80059bc:	607b      	str	r3, [r7, #4]
 80059be:	460b      	mov	r3, r1
 80059c0:	72fb      	strb	r3, [r7, #11]
 80059c2:	4613      	mov	r3, r2
 80059c4:	72bb      	strb	r3, [r7, #10]
  /* call common procedure first and handle messages there */
  if ( u8x8_d_st7565_common(u8x8, msg, arg_int, arg_ptr) == 0 )
 80059c6:	7aba      	ldrb	r2, [r7, #10]
 80059c8:	7af9      	ldrb	r1, [r7, #11]
 80059ca:	687b      	ldr	r3, [r7, #4]
 80059cc:	68f8      	ldr	r0, [r7, #12]
 80059ce:	f7ff ff65 	bl	800589c <u8x8_d_st7565_common>
 80059d2:	4603      	mov	r3, r0
 80059d4:	2b00      	cmp	r3, #0
 80059d6:	d131      	bne.n	8005a3c <u8x8_d_st7565_nhd_c12864+0x88>
  {
    /* msg not handled, then try here */
    switch(msg)
 80059d8:	7afb      	ldrb	r3, [r7, #11]
 80059da:	2b0d      	cmp	r3, #13
 80059dc:	d013      	beq.n	8005a06 <u8x8_d_st7565_nhd_c12864+0x52>
 80059de:	2b0d      	cmp	r3, #13
 80059e0:	dc2a      	bgt.n	8005a38 <u8x8_d_st7565_nhd_c12864+0x84>
 80059e2:	2b09      	cmp	r3, #9
 80059e4:	d002      	beq.n	80059ec <u8x8_d_st7565_nhd_c12864+0x38>
 80059e6:	2b0a      	cmp	r3, #10
 80059e8:	d005      	beq.n	80059f6 <u8x8_d_st7565_nhd_c12864+0x42>
 80059ea:	e025      	b.n	8005a38 <u8x8_d_st7565_nhd_c12864+0x84>
    {
      case U8X8_MSG_DISPLAY_SETUP_MEMORY:
	u8x8_d_helper_display_setup_memory(u8x8, &u8x8_st7565_nhd_c12864_display_info);
 80059ec:	4916      	ldr	r1, [pc, #88]	; (8005a48 <u8x8_d_st7565_nhd_c12864+0x94>)
 80059ee:	68f8      	ldr	r0, [r7, #12]
 80059f0:	f000 f832 	bl	8005a58 <u8x8_d_helper_display_setup_memory>
	break;
 80059f4:	e023      	b.n	8005a3e <u8x8_d_st7565_nhd_c12864+0x8a>
      case U8X8_MSG_DISPLAY_INIT:
	u8x8_d_helper_display_init(u8x8);
 80059f6:	68f8      	ldr	r0, [r7, #12]
 80059f8:	f000 f841 	bl	8005a7e <u8x8_d_helper_display_init>
	u8x8_cad_SendSequence(u8x8, u8x8_d_st7565_nhd_c12864_init_seq);
 80059fc:	4913      	ldr	r1, [pc, #76]	; (8005a4c <u8x8_d_st7565_nhd_c12864+0x98>)
 80059fe:	68f8      	ldr	r0, [r7, #12]
 8005a00:	f7ff feb6 	bl	8005770 <u8x8_cad_SendSequence>
	break;
 8005a04:	e01b      	b.n	8005a3e <u8x8_d_st7565_nhd_c12864+0x8a>
      case U8X8_MSG_DISPLAY_SET_FLIP_MODE:
	if ( arg_int == 0 )
 8005a06:	7abb      	ldrb	r3, [r7, #10]
 8005a08:	2b00      	cmp	r3, #0
 8005a0a:	d10a      	bne.n	8005a22 <u8x8_d_st7565_nhd_c12864+0x6e>
	{
	  u8x8_cad_SendSequence(u8x8, u8x8_d_st7565_flip0_seq);
 8005a0c:	4910      	ldr	r1, [pc, #64]	; (8005a50 <u8x8_d_st7565_nhd_c12864+0x9c>)
 8005a0e:	68f8      	ldr	r0, [r7, #12]
 8005a10:	f7ff feae 	bl	8005770 <u8x8_cad_SendSequence>
	  u8x8->x_offset = u8x8->display_info->default_x_offset;
 8005a14:	68fb      	ldr	r3, [r7, #12]
 8005a16:	681b      	ldr	r3, [r3, #0]
 8005a18:	7c9a      	ldrb	r2, [r3, #18]
 8005a1a:	68fb      	ldr	r3, [r7, #12]
 8005a1c:	f883 2022 	strb.w	r2, [r3, #34]	; 0x22
	else
	{
	  u8x8_cad_SendSequence(u8x8, u8x8_d_st7565_flip1_seq);
	  u8x8->x_offset = u8x8->display_info->flipmode_x_offset;
	}	
	break;
 8005a20:	e00d      	b.n	8005a3e <u8x8_d_st7565_nhd_c12864+0x8a>
	  u8x8_cad_SendSequence(u8x8, u8x8_d_st7565_flip1_seq);
 8005a22:	490c      	ldr	r1, [pc, #48]	; (8005a54 <u8x8_d_st7565_nhd_c12864+0xa0>)
 8005a24:	68f8      	ldr	r0, [r7, #12]
 8005a26:	f7ff fea3 	bl	8005770 <u8x8_cad_SendSequence>
	  u8x8->x_offset = u8x8->display_info->flipmode_x_offset;
 8005a2a:	68fb      	ldr	r3, [r7, #12]
 8005a2c:	681b      	ldr	r3, [r3, #0]
 8005a2e:	7cda      	ldrb	r2, [r3, #19]
 8005a30:	68fb      	ldr	r3, [r7, #12]
 8005a32:	f883 2022 	strb.w	r2, [r3, #34]	; 0x22
	break;
 8005a36:	e002      	b.n	8005a3e <u8x8_d_st7565_nhd_c12864+0x8a>
      default:
	return 0;		/* msg unknown */
 8005a38:	2300      	movs	r3, #0
 8005a3a:	e001      	b.n	8005a40 <u8x8_d_st7565_nhd_c12864+0x8c>
    }
  }
 8005a3c:	bf00      	nop
  return 1;
 8005a3e:	2301      	movs	r3, #1
}
 8005a40:	4618      	mov	r0, r3
 8005a42:	3710      	adds	r7, #16
 8005a44:	46bd      	mov	sp, r7
 8005a46:	bd80      	pop	{r7, pc}
 8005a48:	0800ad04 	.word	0x0800ad04
 8005a4c:	0800ad1c 	.word	0x0800ad1c
 8005a50:	0800acf4 	.word	0x0800acf4
 8005a54:	0800acfc 	.word	0x0800acfc

08005a58 <u8x8_d_helper_display_setup_memory>:
  this is a helper function for the U8X8_MSG_DISPLAY_SETUP_MEMORY function.
  It can be called within the display callback function to carry out the usual standard tasks.
  
*/
void u8x8_d_helper_display_setup_memory(u8x8_t *u8x8, const u8x8_display_info_t *display_info)
{
 8005a58:	b480      	push	{r7}
 8005a5a:	b083      	sub	sp, #12
 8005a5c:	af00      	add	r7, sp, #0
 8005a5e:	6078      	str	r0, [r7, #4]
 8005a60:	6039      	str	r1, [r7, #0]
      /* 1) set display info struct */
      u8x8->display_info = display_info;
 8005a62:	687b      	ldr	r3, [r7, #4]
 8005a64:	683a      	ldr	r2, [r7, #0]
 8005a66:	601a      	str	r2, [r3, #0]
      u8x8->x_offset = u8x8->display_info->default_x_offset;
 8005a68:	687b      	ldr	r3, [r7, #4]
 8005a6a:	681b      	ldr	r3, [r3, #0]
 8005a6c:	7c9a      	ldrb	r2, [r3, #18]
 8005a6e:	687b      	ldr	r3, [r7, #4]
 8005a70:	f883 2022 	strb.w	r2, [r3, #34]	; 0x22
}
 8005a74:	bf00      	nop
 8005a76:	370c      	adds	r7, #12
 8005a78:	46bd      	mov	sp, r7
 8005a7a:	bc80      	pop	{r7}
 8005a7c:	4770      	bx	lr

08005a7e <u8x8_d_helper_display_init>:
  this is a helper function for the U8X8_MSG_DISPLAY_INIT function.
  It can be called within the display callback function to carry out the usual standard tasks.
  
*/
void u8x8_d_helper_display_init(u8x8_t *u8x8)
{
 8005a7e:	b590      	push	{r4, r7, lr}
 8005a80:	b083      	sub	sp, #12
 8005a82:	af00      	add	r7, sp, #0
 8005a84:	6078      	str	r0, [r7, #4]
      /* 2) apply port directions to the GPIO lines and apply default values for the IO lines*/
      u8x8_gpio_Init(u8x8);
 8005a86:	687b      	ldr	r3, [r7, #4]
 8005a88:	695c      	ldr	r4, [r3, #20]
 8005a8a:	2300      	movs	r3, #0
 8005a8c:	2200      	movs	r2, #0
 8005a8e:	2128      	movs	r1, #40	; 0x28
 8005a90:	6878      	ldr	r0, [r7, #4]
 8005a92:	47a0      	blx	r4
      u8x8_cad_Init(u8x8);
 8005a94:	687b      	ldr	r3, [r7, #4]
 8005a96:	68dc      	ldr	r4, [r3, #12]
 8005a98:	2300      	movs	r3, #0
 8005a9a:	2200      	movs	r2, #0
 8005a9c:	2114      	movs	r1, #20
 8005a9e:	6878      	ldr	r0, [r7, #4]
 8005aa0:	47a0      	blx	r4

      /* 3) do reset */
      u8x8_gpio_SetReset(u8x8, 1);
 8005aa2:	2201      	movs	r2, #1
 8005aa4:	214b      	movs	r1, #75	; 0x4b
 8005aa6:	6878      	ldr	r0, [r7, #4]
 8005aa8:	f000 f897 	bl	8005bda <u8x8_gpio_call>
      u8x8_gpio_Delay(u8x8, U8X8_MSG_DELAY_MILLI, u8x8->display_info->reset_pulse_width_ms);
 8005aac:	687b      	ldr	r3, [r7, #4]
 8005aae:	681b      	ldr	r3, [r3, #0]
 8005ab0:	791b      	ldrb	r3, [r3, #4]
 8005ab2:	461a      	mov	r2, r3
 8005ab4:	2129      	movs	r1, #41	; 0x29
 8005ab6:	6878      	ldr	r0, [r7, #4]
 8005ab8:	f000 f88f 	bl	8005bda <u8x8_gpio_call>
      u8x8_gpio_SetReset(u8x8, 0);
 8005abc:	2200      	movs	r2, #0
 8005abe:	214b      	movs	r1, #75	; 0x4b
 8005ac0:	6878      	ldr	r0, [r7, #4]
 8005ac2:	f000 f88a 	bl	8005bda <u8x8_gpio_call>
      u8x8_gpio_Delay(u8x8, U8X8_MSG_DELAY_MILLI, u8x8->display_info->reset_pulse_width_ms);
 8005ac6:	687b      	ldr	r3, [r7, #4]
 8005ac8:	681b      	ldr	r3, [r3, #0]
 8005aca:	791b      	ldrb	r3, [r3, #4]
 8005acc:	461a      	mov	r2, r3
 8005ace:	2129      	movs	r1, #41	; 0x29
 8005ad0:	6878      	ldr	r0, [r7, #4]
 8005ad2:	f000 f882 	bl	8005bda <u8x8_gpio_call>
      u8x8_gpio_SetReset(u8x8, 1);
 8005ad6:	2201      	movs	r2, #1
 8005ad8:	214b      	movs	r1, #75	; 0x4b
 8005ada:	6878      	ldr	r0, [r7, #4]
 8005adc:	f000 f87d 	bl	8005bda <u8x8_gpio_call>
      u8x8_gpio_Delay(u8x8, U8X8_MSG_DELAY_MILLI, u8x8->display_info->post_reset_wait_ms);
 8005ae0:	687b      	ldr	r3, [r7, #4]
 8005ae2:	681b      	ldr	r3, [r3, #0]
 8005ae4:	795b      	ldrb	r3, [r3, #5]
 8005ae6:	461a      	mov	r2, r3
 8005ae8:	2129      	movs	r1, #41	; 0x29
 8005aea:	6878      	ldr	r0, [r7, #4]
 8005aec:	f000 f875 	bl	8005bda <u8x8_gpio_call>
}    
 8005af0:	bf00      	nop
 8005af2:	370c      	adds	r7, #12
 8005af4:	46bd      	mov	sp, r7
 8005af6:	bd90      	pop	{r4, r7, pc}

08005af8 <u8x8_DrawTile>:

/*==========================================*/
/* official functions */

uint8_t u8x8_DrawTile(u8x8_t *u8x8, uint8_t x, uint8_t y, uint8_t cnt, uint8_t *tile_ptr)
{
 8005af8:	b590      	push	{r4, r7, lr}
 8005afa:	b085      	sub	sp, #20
 8005afc:	af00      	add	r7, sp, #0
 8005afe:	6078      	str	r0, [r7, #4]
 8005b00:	4608      	mov	r0, r1
 8005b02:	4611      	mov	r1, r2
 8005b04:	461a      	mov	r2, r3
 8005b06:	4603      	mov	r3, r0
 8005b08:	70fb      	strb	r3, [r7, #3]
 8005b0a:	460b      	mov	r3, r1
 8005b0c:	70bb      	strb	r3, [r7, #2]
 8005b0e:	4613      	mov	r3, r2
 8005b10:	707b      	strb	r3, [r7, #1]
  u8x8_tile_t tile;
  tile.x_pos = x;
 8005b12:	78fb      	ldrb	r3, [r7, #3]
 8005b14:	737b      	strb	r3, [r7, #13]
  tile.y_pos = y;
 8005b16:	78bb      	ldrb	r3, [r7, #2]
 8005b18:	73bb      	strb	r3, [r7, #14]
  tile.cnt = cnt;
 8005b1a:	787b      	ldrb	r3, [r7, #1]
 8005b1c:	733b      	strb	r3, [r7, #12]
  tile.tile_ptr = tile_ptr;
 8005b1e:	6a3b      	ldr	r3, [r7, #32]
 8005b20:	60bb      	str	r3, [r7, #8]
  return u8x8->display_cb(u8x8, U8X8_MSG_DISPLAY_DRAW_TILE, 1, (void *)&tile);
 8005b22:	687b      	ldr	r3, [r7, #4]
 8005b24:	689c      	ldr	r4, [r3, #8]
 8005b26:	f107 0308 	add.w	r3, r7, #8
 8005b2a:	2201      	movs	r2, #1
 8005b2c:	210f      	movs	r1, #15
 8005b2e:	6878      	ldr	r0, [r7, #4]
 8005b30:	47a0      	blx	r4
 8005b32:	4603      	mov	r3, r0
}
 8005b34:	4618      	mov	r0, r3
 8005b36:	3714      	adds	r7, #20
 8005b38:	46bd      	mov	sp, r7
 8005b3a:	bd90      	pop	{r4, r7, pc}

08005b3c <u8x8_SetupMemory>:

/* should be implemented as macro */
void u8x8_SetupMemory(u8x8_t *u8x8)
{
 8005b3c:	b590      	push	{r4, r7, lr}
 8005b3e:	b083      	sub	sp, #12
 8005b40:	af00      	add	r7, sp, #0
 8005b42:	6078      	str	r0, [r7, #4]
  u8x8->display_cb(u8x8, U8X8_MSG_DISPLAY_SETUP_MEMORY, 0, NULL);  
 8005b44:	687b      	ldr	r3, [r7, #4]
 8005b46:	689c      	ldr	r4, [r3, #8]
 8005b48:	2300      	movs	r3, #0
 8005b4a:	2200      	movs	r2, #0
 8005b4c:	2109      	movs	r1, #9
 8005b4e:	6878      	ldr	r0, [r7, #4]
 8005b50:	47a0      	blx	r4
}
 8005b52:	bf00      	nop
 8005b54:	370c      	adds	r7, #12
 8005b56:	46bd      	mov	sp, r7
 8005b58:	bd90      	pop	{r4, r7, pc}

08005b5a <u8x8_InitDisplay>:

void u8x8_InitDisplay(u8x8_t *u8x8)
{
 8005b5a:	b590      	push	{r4, r7, lr}
 8005b5c:	b083      	sub	sp, #12
 8005b5e:	af00      	add	r7, sp, #0
 8005b60:	6078      	str	r0, [r7, #4]
  u8x8->display_cb(u8x8, U8X8_MSG_DISPLAY_INIT, 0, NULL);  
 8005b62:	687b      	ldr	r3, [r7, #4]
 8005b64:	689c      	ldr	r4, [r3, #8]
 8005b66:	2300      	movs	r3, #0
 8005b68:	2200      	movs	r2, #0
 8005b6a:	210a      	movs	r1, #10
 8005b6c:	6878      	ldr	r0, [r7, #4]
 8005b6e:	47a0      	blx	r4
}
 8005b70:	bf00      	nop
 8005b72:	370c      	adds	r7, #12
 8005b74:	46bd      	mov	sp, r7
 8005b76:	bd90      	pop	{r4, r7, pc}

08005b78 <u8x8_SetPowerSave>:

void u8x8_SetPowerSave(u8x8_t *u8x8, uint8_t is_enable)
{
 8005b78:	b590      	push	{r4, r7, lr}
 8005b7a:	b083      	sub	sp, #12
 8005b7c:	af00      	add	r7, sp, #0
 8005b7e:	6078      	str	r0, [r7, #4]
 8005b80:	460b      	mov	r3, r1
 8005b82:	70fb      	strb	r3, [r7, #3]
  u8x8->display_cb(u8x8, U8X8_MSG_DISPLAY_SET_POWER_SAVE, is_enable, NULL);  
 8005b84:	687b      	ldr	r3, [r7, #4]
 8005b86:	689c      	ldr	r4, [r3, #8]
 8005b88:	78fa      	ldrb	r2, [r7, #3]
 8005b8a:	2300      	movs	r3, #0
 8005b8c:	210b      	movs	r1, #11
 8005b8e:	6878      	ldr	r0, [r7, #4]
 8005b90:	47a0      	blx	r4
}
 8005b92:	bf00      	nop
 8005b94:	370c      	adds	r7, #12
 8005b96:	46bd      	mov	sp, r7
 8005b98:	bd90      	pop	{r4, r7, pc}

08005b9a <u8x8_SetContrast>:
{
  u8x8->display_cb(u8x8, U8X8_MSG_DISPLAY_SET_FLIP_MODE, mode, NULL);  
}

void u8x8_SetContrast(u8x8_t *u8x8, uint8_t value)
{
 8005b9a:	b590      	push	{r4, r7, lr}
 8005b9c:	b083      	sub	sp, #12
 8005b9e:	af00      	add	r7, sp, #0
 8005ba0:	6078      	str	r0, [r7, #4]
 8005ba2:	460b      	mov	r3, r1
 8005ba4:	70fb      	strb	r3, [r7, #3]
  u8x8->display_cb(u8x8, U8X8_MSG_DISPLAY_SET_CONTRAST, value, NULL);  
 8005ba6:	687b      	ldr	r3, [r7, #4]
 8005ba8:	689c      	ldr	r4, [r3, #8]
 8005baa:	78fa      	ldrb	r2, [r7, #3]
 8005bac:	2300      	movs	r3, #0
 8005bae:	210e      	movs	r1, #14
 8005bb0:	6878      	ldr	r0, [r7, #4]
 8005bb2:	47a0      	blx	r4
}
 8005bb4:	bf00      	nop
 8005bb6:	370c      	adds	r7, #12
 8005bb8:	46bd      	mov	sp, r7
 8005bba:	bd90      	pop	{r4, r7, pc}

08005bbc <u8x8_RefreshDisplay>:

void u8x8_RefreshDisplay(u8x8_t *u8x8)
{
 8005bbc:	b590      	push	{r4, r7, lr}
 8005bbe:	b083      	sub	sp, #12
 8005bc0:	af00      	add	r7, sp, #0
 8005bc2:	6078      	str	r0, [r7, #4]
  u8x8->display_cb(u8x8, U8X8_MSG_DISPLAY_REFRESH, 0, NULL);  
 8005bc4:	687b      	ldr	r3, [r7, #4]
 8005bc6:	689c      	ldr	r4, [r3, #8]
 8005bc8:	2300      	movs	r3, #0
 8005bca:	2200      	movs	r2, #0
 8005bcc:	2110      	movs	r1, #16
 8005bce:	6878      	ldr	r0, [r7, #4]
 8005bd0:	47a0      	blx	r4
}
 8005bd2:	bf00      	nop
 8005bd4:	370c      	adds	r7, #12
 8005bd6:	46bd      	mov	sp, r7
 8005bd8:	bd90      	pop	{r4, r7, pc}

08005bda <u8x8_gpio_call>:

#include "u8x8.h"


void u8x8_gpio_call(u8x8_t *u8x8, uint8_t msg, uint8_t arg)
{
 8005bda:	b590      	push	{r4, r7, lr}
 8005bdc:	b083      	sub	sp, #12
 8005bde:	af00      	add	r7, sp, #0
 8005be0:	6078      	str	r0, [r7, #4]
 8005be2:	460b      	mov	r3, r1
 8005be4:	70fb      	strb	r3, [r7, #3]
 8005be6:	4613      	mov	r3, r2
 8005be8:	70bb      	strb	r3, [r7, #2]
  u8x8->gpio_and_delay_cb(u8x8, msg, arg, NULL);
 8005bea:	687b      	ldr	r3, [r7, #4]
 8005bec:	695c      	ldr	r4, [r3, #20]
 8005bee:	78ba      	ldrb	r2, [r7, #2]
 8005bf0:	78f9      	ldrb	r1, [r7, #3]
 8005bf2:	2300      	movs	r3, #0
 8005bf4:	6878      	ldr	r0, [r7, #4]
 8005bf6:	47a0      	blx	r4
}
 8005bf8:	bf00      	nop
 8005bfa:	370c      	adds	r7, #12
 8005bfc:	46bd      	mov	sp, r7
 8005bfe:	bd90      	pop	{r4, r7, pc}

08005c00 <u8x8_dummy_cb>:

#include "u8x8.h"

/* universal dummy callback, which will be default for all callbacks */
uint8_t u8x8_dummy_cb(U8X8_UNUSED u8x8_t *u8x8, U8X8_UNUSED uint8_t msg, U8X8_UNUSED uint8_t arg_int, U8X8_UNUSED void *arg_ptr)
{
 8005c00:	b480      	push	{r7}
 8005c02:	b085      	sub	sp, #20
 8005c04:	af00      	add	r7, sp, #0
 8005c06:	60f8      	str	r0, [r7, #12]
 8005c08:	607b      	str	r3, [r7, #4]
 8005c0a:	460b      	mov	r3, r1
 8005c0c:	72fb      	strb	r3, [r7, #11]
 8005c0e:	4613      	mov	r3, r2
 8005c10:	72bb      	strb	r3, [r7, #10]
  /* the dummy callback will not handle any message and will fail for all messages */
  return 0;
 8005c12:	2300      	movs	r3, #0
}
 8005c14:	4618      	mov	r0, r3
 8005c16:	3714      	adds	r7, #20
 8005c18:	46bd      	mov	sp, r7
 8005c1a:	bc80      	pop	{r7}
 8005c1c:	4770      	bx	lr
	...

08005c20 <u8x8_SetupDefaults>:
    Setup u8x8
  Args:
    u8x8	An empty u8x8 structure
*/
void u8x8_SetupDefaults(u8x8_t *u8x8)
{
 8005c20:	b480      	push	{r7}
 8005c22:	b083      	sub	sp, #12
 8005c24:	af00      	add	r7, sp, #0
 8005c26:	6078      	str	r0, [r7, #4]
    u8x8->display_info = NULL;
 8005c28:	687b      	ldr	r3, [r7, #4]
 8005c2a:	2200      	movs	r2, #0
 8005c2c:	601a      	str	r2, [r3, #0]
    u8x8->display_cb = u8x8_dummy_cb;
 8005c2e:	687b      	ldr	r3, [r7, #4]
 8005c30:	4a11      	ldr	r2, [pc, #68]	; (8005c78 <u8x8_SetupDefaults+0x58>)
 8005c32:	609a      	str	r2, [r3, #8]
    u8x8->cad_cb = u8x8_dummy_cb;
 8005c34:	687b      	ldr	r3, [r7, #4]
 8005c36:	4a10      	ldr	r2, [pc, #64]	; (8005c78 <u8x8_SetupDefaults+0x58>)
 8005c38:	60da      	str	r2, [r3, #12]
    u8x8->byte_cb = u8x8_dummy_cb;
 8005c3a:	687b      	ldr	r3, [r7, #4]
 8005c3c:	4a0e      	ldr	r2, [pc, #56]	; (8005c78 <u8x8_SetupDefaults+0x58>)
 8005c3e:	611a      	str	r2, [r3, #16]
    u8x8->gpio_and_delay_cb = u8x8_dummy_cb;
 8005c40:	687b      	ldr	r3, [r7, #4]
 8005c42:	4a0d      	ldr	r2, [pc, #52]	; (8005c78 <u8x8_SetupDefaults+0x58>)
 8005c44:	615a      	str	r2, [r3, #20]
    u8x8->is_font_inverse_mode = 0;
 8005c46:	687b      	ldr	r3, [r7, #4]
 8005c48:	2200      	movs	r2, #0
 8005c4a:	f883 2023 	strb.w	r2, [r3, #35]	; 0x23
    //u8x8->device_address = 0;
    u8x8->utf8_state = 0;		/* also reset by u8x8_utf8_init */
 8005c4e:	687b      	ldr	r3, [r7, #4]
 8005c50:	2200      	movs	r2, #0
 8005c52:	f883 2026 	strb.w	r2, [r3, #38]	; 0x26
    u8x8->bus_clock = 0;		/* issue 769 */
 8005c56:	687b      	ldr	r3, [r7, #4]
 8005c58:	2200      	movs	r2, #0
 8005c5a:	619a      	str	r2, [r3, #24]
    u8x8->i2c_address = 255;
 8005c5c:	687b      	ldr	r3, [r7, #4]
 8005c5e:	22ff      	movs	r2, #255	; 0xff
 8005c60:	f883 2024 	strb.w	r2, [r3, #36]	; 0x24
    u8x8->debounce_default_pin_state = 255;	/* assume all low active buttons */
 8005c64:	687b      	ldr	r3, [r7, #4]
 8005c66:	22ff      	movs	r2, #255	; 0xff
 8005c68:	f883 2028 	strb.w	r2, [r3, #40]	; 0x28
    uint8_t i;
    for( i = 0; i < U8X8_PIN_CNT; i++ )
      u8x8->pins[i] = U8X8_PIN_NONE;
  }
#endif
}
 8005c6c:	bf00      	nop
 8005c6e:	370c      	adds	r7, #12
 8005c70:	46bd      	mov	sp, r7
 8005c72:	bc80      	pop	{r7}
 8005c74:	4770      	bx	lr
 8005c76:	bf00      	nop
 8005c78:	08005c01 	.word	0x08005c01

08005c7c <u8x8_Setup>:
    byte_cb			Display controller/communication specific callback funtion
    gpio_and_delay_cb	Environment specific callback function

*/
void u8x8_Setup(u8x8_t *u8x8, u8x8_msg_cb display_cb, u8x8_msg_cb cad_cb, u8x8_msg_cb byte_cb, u8x8_msg_cb gpio_and_delay_cb)
{
 8005c7c:	b580      	push	{r7, lr}
 8005c7e:	b084      	sub	sp, #16
 8005c80:	af00      	add	r7, sp, #0
 8005c82:	60f8      	str	r0, [r7, #12]
 8005c84:	60b9      	str	r1, [r7, #8]
 8005c86:	607a      	str	r2, [r7, #4]
 8005c88:	603b      	str	r3, [r7, #0]
  /* setup defaults and reset pins to U8X8_PIN_NONE */
  u8x8_SetupDefaults(u8x8);
 8005c8a:	68f8      	ldr	r0, [r7, #12]
 8005c8c:	f7ff ffc8 	bl	8005c20 <u8x8_SetupDefaults>

  /* setup specific callbacks */
  u8x8->display_cb = display_cb;
 8005c90:	68fb      	ldr	r3, [r7, #12]
 8005c92:	68ba      	ldr	r2, [r7, #8]
 8005c94:	609a      	str	r2, [r3, #8]
  u8x8->cad_cb = cad_cb;
 8005c96:	68fb      	ldr	r3, [r7, #12]
 8005c98:	687a      	ldr	r2, [r7, #4]
 8005c9a:	60da      	str	r2, [r3, #12]
  u8x8->byte_cb = byte_cb;
 8005c9c:	68fb      	ldr	r3, [r7, #12]
 8005c9e:	683a      	ldr	r2, [r7, #0]
 8005ca0:	611a      	str	r2, [r3, #16]
  u8x8->gpio_and_delay_cb = gpio_and_delay_cb;
 8005ca2:	68fb      	ldr	r3, [r7, #12]
 8005ca4:	69ba      	ldr	r2, [r7, #24]
 8005ca6:	615a      	str	r2, [r3, #20]

  /* setup display info */
  u8x8_SetupMemory(u8x8);
 8005ca8:	68f8      	ldr	r0, [r7, #12]
 8005caa:	f7ff ff47 	bl	8005b3c <u8x8_SetupMemory>
}
 8005cae:	bf00      	nop
 8005cb0:	3710      	adds	r7, #16
 8005cb2:	46bd      	mov	sp, r7
 8005cb4:	bd80      	pop	{r7, pc}
	...

08005cb8 <W25qxx_Spi>:
#else
#define	W25qxx_Delay(delay)		HAL_Delay(delay)
#endif
//###################################################################################################################
uint8_t	W25qxx_Spi(uint8_t	Data)
{
 8005cb8:	b580      	push	{r7, lr}
 8005cba:	b086      	sub	sp, #24
 8005cbc:	af02      	add	r7, sp, #8
 8005cbe:	4603      	mov	r3, r0
 8005cc0:	71fb      	strb	r3, [r7, #7]
	uint8_t	ret;
	HAL_SPI_TransmitReceive(&_W25QXX_SPI,&Data,&ret,1,100);
 8005cc2:	f107 020f 	add.w	r2, r7, #15
 8005cc6:	1df9      	adds	r1, r7, #7
 8005cc8:	2364      	movs	r3, #100	; 0x64
 8005cca:	9300      	str	r3, [sp, #0]
 8005ccc:	2301      	movs	r3, #1
 8005cce:	4804      	ldr	r0, [pc, #16]	; (8005ce0 <W25qxx_Spi+0x28>)
 8005cd0:	f001 ff7b 	bl	8007bca <HAL_SPI_TransmitReceive>
	return ret;	
 8005cd4:	7bfb      	ldrb	r3, [r7, #15]
}
 8005cd6:	4618      	mov	r0, r3
 8005cd8:	3710      	adds	r7, #16
 8005cda:	46bd      	mov	sp, r7
 8005cdc:	bd80      	pop	{r7, pc}
 8005cde:	bf00      	nop
 8005ce0:	20000930 	.word	0x20000930

08005ce4 <W25qxx_ReadID>:
//###################################################################################################################
uint32_t W25qxx_ReadID(void)
{
 8005ce4:	b580      	push	{r7, lr}
 8005ce6:	b084      	sub	sp, #16
 8005ce8:	af00      	add	r7, sp, #0
  uint32_t Temp = 0, Temp0 = 0, Temp1 = 0, Temp2 = 0;
 8005cea:	2300      	movs	r3, #0
 8005cec:	60fb      	str	r3, [r7, #12]
 8005cee:	2300      	movs	r3, #0
 8005cf0:	60bb      	str	r3, [r7, #8]
 8005cf2:	2300      	movs	r3, #0
 8005cf4:	607b      	str	r3, [r7, #4]
 8005cf6:	2300      	movs	r3, #0
 8005cf8:	603b      	str	r3, [r7, #0]
  HAL_GPIO_WritePin(_W25QXX_CS_GPIO,_W25QXX_CS_PIN,GPIO_PIN_RESET);
 8005cfa:	2200      	movs	r2, #0
 8005cfc:	f44f 5100 	mov.w	r1, #8192	; 0x2000
 8005d00:	4813      	ldr	r0, [pc, #76]	; (8005d50 <W25qxx_ReadID+0x6c>)
 8005d02:	f001 f846 	bl	8006d92 <HAL_GPIO_WritePin>
  W25qxx_Spi(0x9F);
 8005d06:	209f      	movs	r0, #159	; 0x9f
 8005d08:	f7ff ffd6 	bl	8005cb8 <W25qxx_Spi>
  Temp0 = W25qxx_Spi(W25QXX_DUMMY_BYTE);
 8005d0c:	20a5      	movs	r0, #165	; 0xa5
 8005d0e:	f7ff ffd3 	bl	8005cb8 <W25qxx_Spi>
 8005d12:	4603      	mov	r3, r0
 8005d14:	60bb      	str	r3, [r7, #8]
  Temp1 = W25qxx_Spi(W25QXX_DUMMY_BYTE);
 8005d16:	20a5      	movs	r0, #165	; 0xa5
 8005d18:	f7ff ffce 	bl	8005cb8 <W25qxx_Spi>
 8005d1c:	4603      	mov	r3, r0
 8005d1e:	607b      	str	r3, [r7, #4]
  Temp2 = W25qxx_Spi(W25QXX_DUMMY_BYTE);
 8005d20:	20a5      	movs	r0, #165	; 0xa5
 8005d22:	f7ff ffc9 	bl	8005cb8 <W25qxx_Spi>
 8005d26:	4603      	mov	r3, r0
 8005d28:	603b      	str	r3, [r7, #0]
  HAL_GPIO_WritePin(_W25QXX_CS_GPIO,_W25QXX_CS_PIN,GPIO_PIN_SET);
 8005d2a:	2201      	movs	r2, #1
 8005d2c:	f44f 5100 	mov.w	r1, #8192	; 0x2000
 8005d30:	4807      	ldr	r0, [pc, #28]	; (8005d50 <W25qxx_ReadID+0x6c>)
 8005d32:	f001 f82e 	bl	8006d92 <HAL_GPIO_WritePin>
  Temp = (Temp0 << 16) | (Temp1 << 8) | Temp2;
 8005d36:	68bb      	ldr	r3, [r7, #8]
 8005d38:	041a      	lsls	r2, r3, #16
 8005d3a:	687b      	ldr	r3, [r7, #4]
 8005d3c:	021b      	lsls	r3, r3, #8
 8005d3e:	4313      	orrs	r3, r2
 8005d40:	683a      	ldr	r2, [r7, #0]
 8005d42:	4313      	orrs	r3, r2
 8005d44:	60fb      	str	r3, [r7, #12]
  return Temp;
 8005d46:	68fb      	ldr	r3, [r7, #12]
}
 8005d48:	4618      	mov	r0, r3
 8005d4a:	3710      	adds	r7, #16
 8005d4c:	46bd      	mov	sp, r7
 8005d4e:	bd80      	pop	{r7, pc}
 8005d50:	40011000 	.word	0x40011000

08005d54 <W25qxx_ReadUniqID>:
//###################################################################################################################
void W25qxx_ReadUniqID(void)
{
 8005d54:	b590      	push	{r4, r7, lr}
 8005d56:	b083      	sub	sp, #12
 8005d58:	af00      	add	r7, sp, #0
  HAL_GPIO_WritePin(_W25QXX_CS_GPIO,_W25QXX_CS_PIN,GPIO_PIN_RESET);
 8005d5a:	2200      	movs	r2, #0
 8005d5c:	f44f 5100 	mov.w	r1, #8192	; 0x2000
 8005d60:	4816      	ldr	r0, [pc, #88]	; (8005dbc <W25qxx_ReadUniqID+0x68>)
 8005d62:	f001 f816 	bl	8006d92 <HAL_GPIO_WritePin>
  W25qxx_Spi(0x4B);
 8005d66:	204b      	movs	r0, #75	; 0x4b
 8005d68:	f7ff ffa6 	bl	8005cb8 <W25qxx_Spi>
	for(uint8_t	i=0;i<4;i++)
 8005d6c:	2300      	movs	r3, #0
 8005d6e:	71fb      	strb	r3, [r7, #7]
 8005d70:	e005      	b.n	8005d7e <W25qxx_ReadUniqID+0x2a>
		W25qxx_Spi(W25QXX_DUMMY_BYTE);
 8005d72:	20a5      	movs	r0, #165	; 0xa5
 8005d74:	f7ff ffa0 	bl	8005cb8 <W25qxx_Spi>
	for(uint8_t	i=0;i<4;i++)
 8005d78:	79fb      	ldrb	r3, [r7, #7]
 8005d7a:	3301      	adds	r3, #1
 8005d7c:	71fb      	strb	r3, [r7, #7]
 8005d7e:	79fb      	ldrb	r3, [r7, #7]
 8005d80:	2b03      	cmp	r3, #3
 8005d82:	d9f6      	bls.n	8005d72 <W25qxx_ReadUniqID+0x1e>
	for(uint8_t	i=0;i<8;i++)
 8005d84:	2300      	movs	r3, #0
 8005d86:	71bb      	strb	r3, [r7, #6]
 8005d88:	e00b      	b.n	8005da2 <W25qxx_ReadUniqID+0x4e>
		w25qxx.UniqID[i] = W25qxx_Spi(W25QXX_DUMMY_BYTE);
 8005d8a:	79bc      	ldrb	r4, [r7, #6]
 8005d8c:	20a5      	movs	r0, #165	; 0xa5
 8005d8e:	f7ff ff93 	bl	8005cb8 <W25qxx_Spi>
 8005d92:	4603      	mov	r3, r0
 8005d94:	461a      	mov	r2, r3
 8005d96:	4b0a      	ldr	r3, [pc, #40]	; (8005dc0 <W25qxx_ReadUniqID+0x6c>)
 8005d98:	4423      	add	r3, r4
 8005d9a:	705a      	strb	r2, [r3, #1]
	for(uint8_t	i=0;i<8;i++)
 8005d9c:	79bb      	ldrb	r3, [r7, #6]
 8005d9e:	3301      	adds	r3, #1
 8005da0:	71bb      	strb	r3, [r7, #6]
 8005da2:	79bb      	ldrb	r3, [r7, #6]
 8005da4:	2b07      	cmp	r3, #7
 8005da6:	d9f0      	bls.n	8005d8a <W25qxx_ReadUniqID+0x36>
  HAL_GPIO_WritePin(_W25QXX_CS_GPIO,_W25QXX_CS_PIN,GPIO_PIN_SET);
 8005da8:	2201      	movs	r2, #1
 8005daa:	f44f 5100 	mov.w	r1, #8192	; 0x2000
 8005dae:	4803      	ldr	r0, [pc, #12]	; (8005dbc <W25qxx_ReadUniqID+0x68>)
 8005db0:	f000 ffef 	bl	8006d92 <HAL_GPIO_WritePin>
}
 8005db4:	bf00      	nop
 8005db6:	370c      	adds	r7, #12
 8005db8:	46bd      	mov	sp, r7
 8005dba:	bd90      	pop	{r4, r7, pc}
 8005dbc:	40011000 	.word	0x40011000
 8005dc0:	20000b50 	.word	0x20000b50

08005dc4 <W25qxx_WriteEnable>:
//###################################################################################################################
void W25qxx_WriteEnable(void)
{
 8005dc4:	b580      	push	{r7, lr}
 8005dc6:	af00      	add	r7, sp, #0
  HAL_GPIO_WritePin(_W25QXX_CS_GPIO,_W25QXX_CS_PIN,GPIO_PIN_RESET);
 8005dc8:	2200      	movs	r2, #0
 8005dca:	f44f 5100 	mov.w	r1, #8192	; 0x2000
 8005dce:	4808      	ldr	r0, [pc, #32]	; (8005df0 <W25qxx_WriteEnable+0x2c>)
 8005dd0:	f000 ffdf 	bl	8006d92 <HAL_GPIO_WritePin>
  W25qxx_Spi(0x06);
 8005dd4:	2006      	movs	r0, #6
 8005dd6:	f7ff ff6f 	bl	8005cb8 <W25qxx_Spi>
  HAL_GPIO_WritePin(_W25QXX_CS_GPIO,_W25QXX_CS_PIN,GPIO_PIN_SET);
 8005dda:	2201      	movs	r2, #1
 8005ddc:	f44f 5100 	mov.w	r1, #8192	; 0x2000
 8005de0:	4803      	ldr	r0, [pc, #12]	; (8005df0 <W25qxx_WriteEnable+0x2c>)
 8005de2:	f000 ffd6 	bl	8006d92 <HAL_GPIO_WritePin>
	W25qxx_Delay(1);
 8005de6:	2001      	movs	r0, #1
 8005de8:	f000 fc56 	bl	8006698 <HAL_Delay>
}
 8005dec:	bf00      	nop
 8005dee:	bd80      	pop	{r7, pc}
 8005df0:	40011000 	.word	0x40011000

08005df4 <W25qxx_ReadStatusRegister>:
  HAL_GPIO_WritePin(_W25QXX_CS_GPIO,_W25QXX_CS_PIN,GPIO_PIN_SET);
	W25qxx_Delay(1);
}
//###################################################################################################################
uint8_t W25qxx_ReadStatusRegister(uint8_t	SelectStatusRegister_1_2_3)
{
 8005df4:	b580      	push	{r7, lr}
 8005df6:	b084      	sub	sp, #16
 8005df8:	af00      	add	r7, sp, #0
 8005dfa:	4603      	mov	r3, r0
 8005dfc:	71fb      	strb	r3, [r7, #7]
	uint8_t	status=0;
 8005dfe:	2300      	movs	r3, #0
 8005e00:	73fb      	strb	r3, [r7, #15]
  HAL_GPIO_WritePin(_W25QXX_CS_GPIO,_W25QXX_CS_PIN,GPIO_PIN_RESET);
 8005e02:	2200      	movs	r2, #0
 8005e04:	f44f 5100 	mov.w	r1, #8192	; 0x2000
 8005e08:	481c      	ldr	r0, [pc, #112]	; (8005e7c <W25qxx_ReadStatusRegister+0x88>)
 8005e0a:	f000 ffc2 	bl	8006d92 <HAL_GPIO_WritePin>
	if(SelectStatusRegister_1_2_3==1)
 8005e0e:	79fb      	ldrb	r3, [r7, #7]
 8005e10:	2b01      	cmp	r3, #1
 8005e12:	d10c      	bne.n	8005e2e <W25qxx_ReadStatusRegister+0x3a>
	{
		W25qxx_Spi(0x05);
 8005e14:	2005      	movs	r0, #5
 8005e16:	f7ff ff4f 	bl	8005cb8 <W25qxx_Spi>
		status=W25qxx_Spi(W25QXX_DUMMY_BYTE);	
 8005e1a:	20a5      	movs	r0, #165	; 0xa5
 8005e1c:	f7ff ff4c 	bl	8005cb8 <W25qxx_Spi>
 8005e20:	4603      	mov	r3, r0
 8005e22:	73fb      	strb	r3, [r7, #15]
		w25qxx.StatusRegister1 = status;
 8005e24:	4a16      	ldr	r2, [pc, #88]	; (8005e80 <W25qxx_ReadStatusRegister+0x8c>)
 8005e26:	7bfb      	ldrb	r3, [r7, #15]
 8005e28:	f882 3024 	strb.w	r3, [r2, #36]	; 0x24
 8005e2c:	e01b      	b.n	8005e66 <W25qxx_ReadStatusRegister+0x72>
	}
	else if(SelectStatusRegister_1_2_3==2)
 8005e2e:	79fb      	ldrb	r3, [r7, #7]
 8005e30:	2b02      	cmp	r3, #2
 8005e32:	d10c      	bne.n	8005e4e <W25qxx_ReadStatusRegister+0x5a>
	{
		W25qxx_Spi(0x35);
 8005e34:	2035      	movs	r0, #53	; 0x35
 8005e36:	f7ff ff3f 	bl	8005cb8 <W25qxx_Spi>
		status=W25qxx_Spi(W25QXX_DUMMY_BYTE);	
 8005e3a:	20a5      	movs	r0, #165	; 0xa5
 8005e3c:	f7ff ff3c 	bl	8005cb8 <W25qxx_Spi>
 8005e40:	4603      	mov	r3, r0
 8005e42:	73fb      	strb	r3, [r7, #15]
		w25qxx.StatusRegister2 = status;
 8005e44:	4a0e      	ldr	r2, [pc, #56]	; (8005e80 <W25qxx_ReadStatusRegister+0x8c>)
 8005e46:	7bfb      	ldrb	r3, [r7, #15]
 8005e48:	f882 3025 	strb.w	r3, [r2, #37]	; 0x25
 8005e4c:	e00b      	b.n	8005e66 <W25qxx_ReadStatusRegister+0x72>
	}
	else
	{
		W25qxx_Spi(0x15);
 8005e4e:	2015      	movs	r0, #21
 8005e50:	f7ff ff32 	bl	8005cb8 <W25qxx_Spi>
		status=W25qxx_Spi(W25QXX_DUMMY_BYTE);	
 8005e54:	20a5      	movs	r0, #165	; 0xa5
 8005e56:	f7ff ff2f 	bl	8005cb8 <W25qxx_Spi>
 8005e5a:	4603      	mov	r3, r0
 8005e5c:	73fb      	strb	r3, [r7, #15]
		w25qxx.StatusRegister3 = status;
 8005e5e:	4a08      	ldr	r2, [pc, #32]	; (8005e80 <W25qxx_ReadStatusRegister+0x8c>)
 8005e60:	7bfb      	ldrb	r3, [r7, #15]
 8005e62:	f882 3026 	strb.w	r3, [r2, #38]	; 0x26
	}	
  HAL_GPIO_WritePin(_W25QXX_CS_GPIO,_W25QXX_CS_PIN,GPIO_PIN_SET);
 8005e66:	2201      	movs	r2, #1
 8005e68:	f44f 5100 	mov.w	r1, #8192	; 0x2000
 8005e6c:	4803      	ldr	r0, [pc, #12]	; (8005e7c <W25qxx_ReadStatusRegister+0x88>)
 8005e6e:	f000 ff90 	bl	8006d92 <HAL_GPIO_WritePin>
	return status;
 8005e72:	7bfb      	ldrb	r3, [r7, #15]
}
 8005e74:	4618      	mov	r0, r3
 8005e76:	3710      	adds	r7, #16
 8005e78:	46bd      	mov	sp, r7
 8005e7a:	bd80      	pop	{r7, pc}
 8005e7c:	40011000 	.word	0x40011000
 8005e80:	20000b50 	.word	0x20000b50

08005e84 <W25qxx_WaitForWriteEnd>:
	W25qxx_Spi(Data);
  HAL_GPIO_WritePin(_W25QXX_CS_GPIO,_W25QXX_CS_PIN,GPIO_PIN_SET);
}
//###################################################################################################################
void W25qxx_WaitForWriteEnd(void)
{
 8005e84:	b580      	push	{r7, lr}
 8005e86:	af00      	add	r7, sp, #0
	W25qxx_Delay(1);
 8005e88:	2001      	movs	r0, #1
 8005e8a:	f000 fc05 	bl	8006698 <HAL_Delay>
	HAL_GPIO_WritePin(_W25QXX_CS_GPIO,_W25QXX_CS_PIN,GPIO_PIN_RESET);
 8005e8e:	2200      	movs	r2, #0
 8005e90:	f44f 5100 	mov.w	r1, #8192	; 0x2000
 8005e94:	480f      	ldr	r0, [pc, #60]	; (8005ed4 <W25qxx_WaitForWriteEnd+0x50>)
 8005e96:	f000 ff7c 	bl	8006d92 <HAL_GPIO_WritePin>
	W25qxx_Spi(0x05);
 8005e9a:	2005      	movs	r0, #5
 8005e9c:	f7ff ff0c 	bl	8005cb8 <W25qxx_Spi>
  do
  {
    w25qxx.StatusRegister1 = W25qxx_Spi(W25QXX_DUMMY_BYTE);
 8005ea0:	20a5      	movs	r0, #165	; 0xa5
 8005ea2:	f7ff ff09 	bl	8005cb8 <W25qxx_Spi>
 8005ea6:	4603      	mov	r3, r0
 8005ea8:	461a      	mov	r2, r3
 8005eaa:	4b0b      	ldr	r3, [pc, #44]	; (8005ed8 <W25qxx_WaitForWriteEnd+0x54>)
 8005eac:	f883 2024 	strb.w	r2, [r3, #36]	; 0x24
		W25qxx_Delay(1);
 8005eb0:	2001      	movs	r0, #1
 8005eb2:	f000 fbf1 	bl	8006698 <HAL_Delay>
  }
  while ((w25qxx.StatusRegister1 & 0x01) == 0x01);
 8005eb6:	4b08      	ldr	r3, [pc, #32]	; (8005ed8 <W25qxx_WaitForWriteEnd+0x54>)
 8005eb8:	f893 3024 	ldrb.w	r3, [r3, #36]	; 0x24
 8005ebc:	f003 0301 	and.w	r3, r3, #1
 8005ec0:	2b00      	cmp	r3, #0
 8005ec2:	d1ed      	bne.n	8005ea0 <W25qxx_WaitForWriteEnd+0x1c>
 HAL_GPIO_WritePin(_W25QXX_CS_GPIO,_W25QXX_CS_PIN,GPIO_PIN_SET);
 8005ec4:	2201      	movs	r2, #1
 8005ec6:	f44f 5100 	mov.w	r1, #8192	; 0x2000
 8005eca:	4802      	ldr	r0, [pc, #8]	; (8005ed4 <W25qxx_WaitForWriteEnd+0x50>)
 8005ecc:	f000 ff61 	bl	8006d92 <HAL_GPIO_WritePin>
}
 8005ed0:	bf00      	nop
 8005ed2:	bd80      	pop	{r7, pc}
 8005ed4:	40011000 	.word	0x40011000
 8005ed8:	20000b50 	.word	0x20000b50

08005edc <W25qxx_Init>:
//###################################################################################################################
bool	W25qxx_Init(void)
{
 8005edc:	b580      	push	{r7, lr}
 8005ede:	b082      	sub	sp, #8
 8005ee0:	af00      	add	r7, sp, #0
	w25qxx.Lock=1;	
 8005ee2:	4b60      	ldr	r3, [pc, #384]	; (8006064 <W25qxx_Init+0x188>)
 8005ee4:	2201      	movs	r2, #1
 8005ee6:	f883 2027 	strb.w	r2, [r3, #39]	; 0x27
	while(HAL_GetTick()<100)
 8005eea:	e002      	b.n	8005ef2 <W25qxx_Init+0x16>
		W25qxx_Delay(1);
 8005eec:	2001      	movs	r0, #1
 8005eee:	f000 fbd3 	bl	8006698 <HAL_Delay>
	while(HAL_GetTick()<100)
 8005ef2:	f000 fbc7 	bl	8006684 <HAL_GetTick>
 8005ef6:	4603      	mov	r3, r0
 8005ef8:	2b63      	cmp	r3, #99	; 0x63
 8005efa:	d9f7      	bls.n	8005eec <W25qxx_Init+0x10>
  HAL_GPIO_WritePin(_W25QXX_CS_GPIO,_W25QXX_CS_PIN,GPIO_PIN_SET);
 8005efc:	2201      	movs	r2, #1
 8005efe:	f44f 5100 	mov.w	r1, #8192	; 0x2000
 8005f02:	4859      	ldr	r0, [pc, #356]	; (8006068 <W25qxx_Init+0x18c>)
 8005f04:	f000 ff45 	bl	8006d92 <HAL_GPIO_WritePin>
  W25qxx_Delay(100);
 8005f08:	2064      	movs	r0, #100	; 0x64
 8005f0a:	f000 fbc5 	bl	8006698 <HAL_Delay>
	uint32_t	id;
	#if (_W25QXX_DEBUG==1)
	printf("w25qxx Init Begin...\r\n");
	#endif
	id=W25qxx_ReadID();
 8005f0e:	f7ff fee9 	bl	8005ce4 <W25qxx_ReadID>
 8005f12:	6078      	str	r0, [r7, #4]
	
	#if (_W25QXX_DEBUG==1)
	printf("w25qxx ID:0x%X\r\n",id);
	#endif
	switch(id&0x0000FFFF)
 8005f14:	687b      	ldr	r3, [r7, #4]
 8005f16:	b29b      	uxth	r3, r3
 8005f18:	f5a3 4380 	sub.w	r3, r3, #16384	; 0x4000
 8005f1c:	3b11      	subs	r3, #17
 8005f1e:	2b09      	cmp	r3, #9
 8005f20:	d85f      	bhi.n	8005fe2 <W25qxx_Init+0x106>
 8005f22:	a201      	add	r2, pc, #4	; (adr r2, 8005f28 <W25qxx_Init+0x4c>)
 8005f24:	f852 f023 	ldr.w	pc, [r2, r3, lsl #2]
 8005f28:	08005fd5 	.word	0x08005fd5
 8005f2c:	08005fc7 	.word	0x08005fc7
 8005f30:	08005fb9 	.word	0x08005fb9
 8005f34:	08005fab 	.word	0x08005fab
 8005f38:	08005f9d 	.word	0x08005f9d
 8005f3c:	08005f8f 	.word	0x08005f8f
 8005f40:	08005f81 	.word	0x08005f81
 8005f44:	08005f71 	.word	0x08005f71
 8005f48:	08005f61 	.word	0x08005f61
 8005f4c:	08005f51 	.word	0x08005f51
	{
		case 0x401A:	// 	w25q512
			w25qxx.ID=W25Q512;
 8005f50:	4b44      	ldr	r3, [pc, #272]	; (8006064 <W25qxx_Init+0x188>)
 8005f52:	220a      	movs	r2, #10
 8005f54:	701a      	strb	r2, [r3, #0]
			w25qxx.BlockCount=1024;
 8005f56:	4b43      	ldr	r3, [pc, #268]	; (8006064 <W25qxx_Init+0x188>)
 8005f58:	f44f 6280 	mov.w	r2, #1024	; 0x400
 8005f5c:	61da      	str	r2, [r3, #28]
			#if (_W25QXX_DEBUG==1)
			printf("w25qxx Chip: w25q512\r\n");
			#endif
		break;
 8005f5e:	e046      	b.n	8005fee <W25qxx_Init+0x112>
		case 0x4019:	// 	w25q256
			w25qxx.ID=W25Q256;
 8005f60:	4b40      	ldr	r3, [pc, #256]	; (8006064 <W25qxx_Init+0x188>)
 8005f62:	2209      	movs	r2, #9
 8005f64:	701a      	strb	r2, [r3, #0]
			w25qxx.BlockCount=512;
 8005f66:	4b3f      	ldr	r3, [pc, #252]	; (8006064 <W25qxx_Init+0x188>)
 8005f68:	f44f 7200 	mov.w	r2, #512	; 0x200
 8005f6c:	61da      	str	r2, [r3, #28]
			#if (_W25QXX_DEBUG==1)
			printf("w25qxx Chip: w25q256\r\n");
			#endif
		break;
 8005f6e:	e03e      	b.n	8005fee <W25qxx_Init+0x112>
		case 0x4018:	// 	w25q128
			w25qxx.ID=W25Q128;
 8005f70:	4b3c      	ldr	r3, [pc, #240]	; (8006064 <W25qxx_Init+0x188>)
 8005f72:	2208      	movs	r2, #8
 8005f74:	701a      	strb	r2, [r3, #0]
			w25qxx.BlockCount=256;
 8005f76:	4b3b      	ldr	r3, [pc, #236]	; (8006064 <W25qxx_Init+0x188>)
 8005f78:	f44f 7280 	mov.w	r2, #256	; 0x100
 8005f7c:	61da      	str	r2, [r3, #28]
			#if (_W25QXX_DEBUG==1)
			printf("w25qxx Chip: w25q128\r\n");
			#endif
		break;
 8005f7e:	e036      	b.n	8005fee <W25qxx_Init+0x112>
		case 0x4017:	//	w25q64
			w25qxx.ID=W25Q64;
 8005f80:	4b38      	ldr	r3, [pc, #224]	; (8006064 <W25qxx_Init+0x188>)
 8005f82:	2207      	movs	r2, #7
 8005f84:	701a      	strb	r2, [r3, #0]
			w25qxx.BlockCount=128;
 8005f86:	4b37      	ldr	r3, [pc, #220]	; (8006064 <W25qxx_Init+0x188>)
 8005f88:	2280      	movs	r2, #128	; 0x80
 8005f8a:	61da      	str	r2, [r3, #28]
			#if (_W25QXX_DEBUG==1)
			printf("w25qxx Chip: w25q64\r\n");
			#endif
		break;
 8005f8c:	e02f      	b.n	8005fee <W25qxx_Init+0x112>
		case 0x4016:	//	w25q32
			w25qxx.ID=W25Q32;
 8005f8e:	4b35      	ldr	r3, [pc, #212]	; (8006064 <W25qxx_Init+0x188>)
 8005f90:	2206      	movs	r2, #6
 8005f92:	701a      	strb	r2, [r3, #0]
			w25qxx.BlockCount=64;
 8005f94:	4b33      	ldr	r3, [pc, #204]	; (8006064 <W25qxx_Init+0x188>)
 8005f96:	2240      	movs	r2, #64	; 0x40
 8005f98:	61da      	str	r2, [r3, #28]
			#if (_W25QXX_DEBUG==1)
			printf("w25qxx Chip: w25q32\r\n");
			#endif
		break;
 8005f9a:	e028      	b.n	8005fee <W25qxx_Init+0x112>
		case 0x4015:	//	w25q16
			w25qxx.ID=W25Q16;
 8005f9c:	4b31      	ldr	r3, [pc, #196]	; (8006064 <W25qxx_Init+0x188>)
 8005f9e:	2205      	movs	r2, #5
 8005fa0:	701a      	strb	r2, [r3, #0]
			w25qxx.BlockCount=32;
 8005fa2:	4b30      	ldr	r3, [pc, #192]	; (8006064 <W25qxx_Init+0x188>)
 8005fa4:	2220      	movs	r2, #32
 8005fa6:	61da      	str	r2, [r3, #28]
			#if (_W25QXX_DEBUG==1)
			printf("w25qxx Chip: w25q16\r\n");
			#endif
		break;
 8005fa8:	e021      	b.n	8005fee <W25qxx_Init+0x112>
		case 0x4014:	//	w25q80
			w25qxx.ID=W25Q80;
 8005faa:	4b2e      	ldr	r3, [pc, #184]	; (8006064 <W25qxx_Init+0x188>)
 8005fac:	2204      	movs	r2, #4
 8005fae:	701a      	strb	r2, [r3, #0]
			w25qxx.BlockCount=16;
 8005fb0:	4b2c      	ldr	r3, [pc, #176]	; (8006064 <W25qxx_Init+0x188>)
 8005fb2:	2210      	movs	r2, #16
 8005fb4:	61da      	str	r2, [r3, #28]
			#if (_W25QXX_DEBUG==1)
			printf("w25qxx Chip: w25q80\r\n");
			#endif
		break;
 8005fb6:	e01a      	b.n	8005fee <W25qxx_Init+0x112>
		case 0x4013:	//	w25q40
			w25qxx.ID=W25Q40;
 8005fb8:	4b2a      	ldr	r3, [pc, #168]	; (8006064 <W25qxx_Init+0x188>)
 8005fba:	2203      	movs	r2, #3
 8005fbc:	701a      	strb	r2, [r3, #0]
			w25qxx.BlockCount=8;
 8005fbe:	4b29      	ldr	r3, [pc, #164]	; (8006064 <W25qxx_Init+0x188>)
 8005fc0:	2208      	movs	r2, #8
 8005fc2:	61da      	str	r2, [r3, #28]
			#if (_W25QXX_DEBUG==1)
			printf("w25qxx Chip: w25q40\r\n");
			#endif
		break;
 8005fc4:	e013      	b.n	8005fee <W25qxx_Init+0x112>
		case 0x4012:	//	w25q20
			w25qxx.ID=W25Q20;
 8005fc6:	4b27      	ldr	r3, [pc, #156]	; (8006064 <W25qxx_Init+0x188>)
 8005fc8:	2202      	movs	r2, #2
 8005fca:	701a      	strb	r2, [r3, #0]
			w25qxx.BlockCount=4;
 8005fcc:	4b25      	ldr	r3, [pc, #148]	; (8006064 <W25qxx_Init+0x188>)
 8005fce:	2204      	movs	r2, #4
 8005fd0:	61da      	str	r2, [r3, #28]
			#if (_W25QXX_DEBUG==1)
			printf("w25qxx Chip: w25q20\r\n");
			#endif
		break;
 8005fd2:	e00c      	b.n	8005fee <W25qxx_Init+0x112>
		case 0x4011:	//	w25q10
			w25qxx.ID=W25Q10;
 8005fd4:	4b23      	ldr	r3, [pc, #140]	; (8006064 <W25qxx_Init+0x188>)
 8005fd6:	2201      	movs	r2, #1
 8005fd8:	701a      	strb	r2, [r3, #0]
			w25qxx.BlockCount=2;
 8005fda:	4b22      	ldr	r3, [pc, #136]	; (8006064 <W25qxx_Init+0x188>)
 8005fdc:	2202      	movs	r2, #2
 8005fde:	61da      	str	r2, [r3, #28]
			#if (_W25QXX_DEBUG==1)
			printf("w25qxx Chip: w25q10\r\n");
			#endif
		break;
 8005fe0:	e005      	b.n	8005fee <W25qxx_Init+0x112>
		default:
				#if (_W25QXX_DEBUG==1)
				printf("w25qxx Unknown ID\r\n");
				#endif
			w25qxx.Lock=0;	
 8005fe2:	4b20      	ldr	r3, [pc, #128]	; (8006064 <W25qxx_Init+0x188>)
 8005fe4:	2200      	movs	r2, #0
 8005fe6:	f883 2027 	strb.w	r2, [r3, #39]	; 0x27
			return false;
 8005fea:	2300      	movs	r3, #0
 8005fec:	e036      	b.n	800605c <W25qxx_Init+0x180>
				
	}		
	w25qxx.PageSize=256;
 8005fee:	4b1d      	ldr	r3, [pc, #116]	; (8006064 <W25qxx_Init+0x188>)
 8005ff0:	f44f 7280 	mov.w	r2, #256	; 0x100
 8005ff4:	815a      	strh	r2, [r3, #10]
	w25qxx.SectorSize=0x1000;
 8005ff6:	4b1b      	ldr	r3, [pc, #108]	; (8006064 <W25qxx_Init+0x188>)
 8005ff8:	f44f 5280 	mov.w	r2, #4096	; 0x1000
 8005ffc:	611a      	str	r2, [r3, #16]
	w25qxx.SectorCount=w25qxx.BlockCount*16;
 8005ffe:	4b19      	ldr	r3, [pc, #100]	; (8006064 <W25qxx_Init+0x188>)
 8006000:	69db      	ldr	r3, [r3, #28]
 8006002:	011b      	lsls	r3, r3, #4
 8006004:	4a17      	ldr	r2, [pc, #92]	; (8006064 <W25qxx_Init+0x188>)
 8006006:	6153      	str	r3, [r2, #20]
	w25qxx.PageCount=(w25qxx.SectorCount*w25qxx.SectorSize)/w25qxx.PageSize;
 8006008:	4b16      	ldr	r3, [pc, #88]	; (8006064 <W25qxx_Init+0x188>)
 800600a:	695b      	ldr	r3, [r3, #20]
 800600c:	4a15      	ldr	r2, [pc, #84]	; (8006064 <W25qxx_Init+0x188>)
 800600e:	6912      	ldr	r2, [r2, #16]
 8006010:	fb02 f303 	mul.w	r3, r2, r3
 8006014:	4a13      	ldr	r2, [pc, #76]	; (8006064 <W25qxx_Init+0x188>)
 8006016:	8952      	ldrh	r2, [r2, #10]
 8006018:	fbb3 f3f2 	udiv	r3, r3, r2
 800601c:	4a11      	ldr	r2, [pc, #68]	; (8006064 <W25qxx_Init+0x188>)
 800601e:	60d3      	str	r3, [r2, #12]
	w25qxx.BlockSize=w25qxx.SectorSize*16;
 8006020:	4b10      	ldr	r3, [pc, #64]	; (8006064 <W25qxx_Init+0x188>)
 8006022:	691b      	ldr	r3, [r3, #16]
 8006024:	011b      	lsls	r3, r3, #4
 8006026:	4a0f      	ldr	r2, [pc, #60]	; (8006064 <W25qxx_Init+0x188>)
 8006028:	6193      	str	r3, [r2, #24]
	w25qxx.CapacityInKiloByte=(w25qxx.SectorCount*w25qxx.SectorSize)/1024;
 800602a:	4b0e      	ldr	r3, [pc, #56]	; (8006064 <W25qxx_Init+0x188>)
 800602c:	695b      	ldr	r3, [r3, #20]
 800602e:	4a0d      	ldr	r2, [pc, #52]	; (8006064 <W25qxx_Init+0x188>)
 8006030:	6912      	ldr	r2, [r2, #16]
 8006032:	fb02 f303 	mul.w	r3, r2, r3
 8006036:	0a9b      	lsrs	r3, r3, #10
 8006038:	4a0a      	ldr	r2, [pc, #40]	; (8006064 <W25qxx_Init+0x188>)
 800603a:	6213      	str	r3, [r2, #32]
	W25qxx_ReadUniqID();
 800603c:	f7ff fe8a 	bl	8005d54 <W25qxx_ReadUniqID>
	W25qxx_ReadStatusRegister(1);
 8006040:	2001      	movs	r0, #1
 8006042:	f7ff fed7 	bl	8005df4 <W25qxx_ReadStatusRegister>
	W25qxx_ReadStatusRegister(2);
 8006046:	2002      	movs	r0, #2
 8006048:	f7ff fed4 	bl	8005df4 <W25qxx_ReadStatusRegister>
	W25qxx_ReadStatusRegister(3);
 800604c:	2003      	movs	r0, #3
 800604e:	f7ff fed1 	bl	8005df4 <W25qxx_ReadStatusRegister>
	printf("w25qxx Block Size: %d Bytes\r\n",w25qxx.BlockSize);
	printf("w25qxx Block Count: %d\r\n",w25qxx.BlockCount);
	printf("w25qxx Capacity: %d KiloBytes\r\n",w25qxx.CapacityInKiloByte);
	printf("w25qxx Init Done\r\n");
	#endif
	w25qxx.Lock=0;	
 8006052:	4b04      	ldr	r3, [pc, #16]	; (8006064 <W25qxx_Init+0x188>)
 8006054:	2200      	movs	r2, #0
 8006056:	f883 2027 	strb.w	r2, [r3, #39]	; 0x27
	return true;
 800605a:	2301      	movs	r3, #1
}	
 800605c:	4618      	mov	r0, r3
 800605e:	3708      	adds	r7, #8
 8006060:	46bd      	mov	sp, r7
 8006062:	bd80      	pop	{r7, pc}
 8006064:	20000b50 	.word	0x20000b50
 8006068:	40011000 	.word	0x40011000

0800606c <W25qxx_EraseSector>:
	W25qxx_Delay(10);
	w25qxx.Lock=0;	
}
//###################################################################################################################
void W25qxx_EraseSector(uint32_t SectorAddr)
{
 800606c:	b580      	push	{r7, lr}
 800606e:	b082      	sub	sp, #8
 8006070:	af00      	add	r7, sp, #0
 8006072:	6078      	str	r0, [r7, #4]
	while(w25qxx.Lock==1)
 8006074:	e002      	b.n	800607c <W25qxx_EraseSector+0x10>
		W25qxx_Delay(1);
 8006076:	2001      	movs	r0, #1
 8006078:	f000 fb0e 	bl	8006698 <HAL_Delay>
	while(w25qxx.Lock==1)
 800607c:	4b24      	ldr	r3, [pc, #144]	; (8006110 <W25qxx_EraseSector+0xa4>)
 800607e:	f893 3027 	ldrb.w	r3, [r3, #39]	; 0x27
 8006082:	2b01      	cmp	r3, #1
 8006084:	d0f7      	beq.n	8006076 <W25qxx_EraseSector+0xa>
	w25qxx.Lock=1;	
 8006086:	4b22      	ldr	r3, [pc, #136]	; (8006110 <W25qxx_EraseSector+0xa4>)
 8006088:	2201      	movs	r2, #1
 800608a:	f883 2027 	strb.w	r2, [r3, #39]	; 0x27
	#if (_W25QXX_DEBUG==1)
	uint32_t	StartTime=HAL_GetTick();	
	printf("w25qxx EraseSector %d Begin...\r\n",SectorAddr);
	#endif
	W25qxx_WaitForWriteEnd();
 800608e:	f7ff fef9 	bl	8005e84 <W25qxx_WaitForWriteEnd>
	SectorAddr = SectorAddr * w25qxx.SectorSize;
 8006092:	4b1f      	ldr	r3, [pc, #124]	; (8006110 <W25qxx_EraseSector+0xa4>)
 8006094:	691a      	ldr	r2, [r3, #16]
 8006096:	687b      	ldr	r3, [r7, #4]
 8006098:	fb02 f303 	mul.w	r3, r2, r3
 800609c:	607b      	str	r3, [r7, #4]
  W25qxx_WriteEnable();
 800609e:	f7ff fe91 	bl	8005dc4 <W25qxx_WriteEnable>
  HAL_GPIO_WritePin(_W25QXX_CS_GPIO,_W25QXX_CS_PIN,GPIO_PIN_RESET);
 80060a2:	2200      	movs	r2, #0
 80060a4:	f44f 5100 	mov.w	r1, #8192	; 0x2000
 80060a8:	481a      	ldr	r0, [pc, #104]	; (8006114 <W25qxx_EraseSector+0xa8>)
 80060aa:	f000 fe72 	bl	8006d92 <HAL_GPIO_WritePin>
  W25qxx_Spi(0x20);
 80060ae:	2020      	movs	r0, #32
 80060b0:	f7ff fe02 	bl	8005cb8 <W25qxx_Spi>
	if(w25qxx.ID>=W25Q256)
 80060b4:	4b16      	ldr	r3, [pc, #88]	; (8006110 <W25qxx_EraseSector+0xa4>)
 80060b6:	781b      	ldrb	r3, [r3, #0]
 80060b8:	2b08      	cmp	r3, #8
 80060ba:	d905      	bls.n	80060c8 <W25qxx_EraseSector+0x5c>
		W25qxx_Spi((SectorAddr & 0xFF000000) >> 24);
 80060bc:	687b      	ldr	r3, [r7, #4]
 80060be:	0e1b      	lsrs	r3, r3, #24
 80060c0:	b2db      	uxtb	r3, r3
 80060c2:	4618      	mov	r0, r3
 80060c4:	f7ff fdf8 	bl	8005cb8 <W25qxx_Spi>
  W25qxx_Spi((SectorAddr & 0xFF0000) >> 16);
 80060c8:	687b      	ldr	r3, [r7, #4]
 80060ca:	0c1b      	lsrs	r3, r3, #16
 80060cc:	b2db      	uxtb	r3, r3
 80060ce:	4618      	mov	r0, r3
 80060d0:	f7ff fdf2 	bl	8005cb8 <W25qxx_Spi>
  W25qxx_Spi((SectorAddr & 0xFF00) >> 8);
 80060d4:	687b      	ldr	r3, [r7, #4]
 80060d6:	0a1b      	lsrs	r3, r3, #8
 80060d8:	b2db      	uxtb	r3, r3
 80060da:	4618      	mov	r0, r3
 80060dc:	f7ff fdec 	bl	8005cb8 <W25qxx_Spi>
  W25qxx_Spi(SectorAddr & 0xFF);
 80060e0:	687b      	ldr	r3, [r7, #4]
 80060e2:	b2db      	uxtb	r3, r3
 80060e4:	4618      	mov	r0, r3
 80060e6:	f7ff fde7 	bl	8005cb8 <W25qxx_Spi>
	HAL_GPIO_WritePin(_W25QXX_CS_GPIO,_W25QXX_CS_PIN,GPIO_PIN_SET);
 80060ea:	2201      	movs	r2, #1
 80060ec:	f44f 5100 	mov.w	r1, #8192	; 0x2000
 80060f0:	4808      	ldr	r0, [pc, #32]	; (8006114 <W25qxx_EraseSector+0xa8>)
 80060f2:	f000 fe4e 	bl	8006d92 <HAL_GPIO_WritePin>
  W25qxx_WaitForWriteEnd();
 80060f6:	f7ff fec5 	bl	8005e84 <W25qxx_WaitForWriteEnd>
	#if (_W25QXX_DEBUG==1)
	printf("w25qxx EraseSector done after %d ms\r\n",HAL_GetTick()-StartTime);
	#endif
	W25qxx_Delay(1);
 80060fa:	2001      	movs	r0, #1
 80060fc:	f000 facc 	bl	8006698 <HAL_Delay>
	w25qxx.Lock=0;
 8006100:	4b03      	ldr	r3, [pc, #12]	; (8006110 <W25qxx_EraseSector+0xa4>)
 8006102:	2200      	movs	r2, #0
 8006104:	f883 2027 	strb.w	r2, [r3, #39]	; 0x27
}
 8006108:	bf00      	nop
 800610a:	3708      	adds	r7, #8
 800610c:	46bd      	mov	sp, r7
 800610e:	bd80      	pop	{r7, pc}
 8006110:	20000b50 	.word	0x20000b50
 8006114:	40011000 	.word	0x40011000

08006118 <W25qxx_SectorToPage>:
{
	return ((SectorAddress*w25qxx.SectorSize)/w25qxx.BlockSize);
}
//###################################################################################################################
uint32_t	W25qxx_SectorToPage(uint32_t	SectorAddress)
{
 8006118:	b480      	push	{r7}
 800611a:	b083      	sub	sp, #12
 800611c:	af00      	add	r7, sp, #0
 800611e:	6078      	str	r0, [r7, #4]
	return (SectorAddress*w25qxx.SectorSize)/w25qxx.PageSize;
 8006120:	4b06      	ldr	r3, [pc, #24]	; (800613c <W25qxx_SectorToPage+0x24>)
 8006122:	691b      	ldr	r3, [r3, #16]
 8006124:	687a      	ldr	r2, [r7, #4]
 8006126:	fb02 f303 	mul.w	r3, r2, r3
 800612a:	4a04      	ldr	r2, [pc, #16]	; (800613c <W25qxx_SectorToPage+0x24>)
 800612c:	8952      	ldrh	r2, [r2, #10]
 800612e:	fbb3 f3f2 	udiv	r3, r3, r2
}
 8006132:	4618      	mov	r0, r3
 8006134:	370c      	adds	r7, #12
 8006136:	46bd      	mov	sp, r7
 8006138:	bc80      	pop	{r7}
 800613a:	4770      	bx	lr
 800613c:	20000b50 	.word	0x20000b50

08006140 <W25qxx_IsEmptySector>:
	w25qxx.Lock=0;
	return false;
}
//###################################################################################################################
bool 	W25qxx_IsEmptySector(uint32_t Sector_Address,uint32_t OffsetInByte,uint32_t NumByteToCheck_up_to_SectorSize)
{
 8006140:	b580      	push	{r7, lr}
 8006142:	b090      	sub	sp, #64	; 0x40
 8006144:	af00      	add	r7, sp, #0
 8006146:	60f8      	str	r0, [r7, #12]
 8006148:	60b9      	str	r1, [r7, #8]
 800614a:	607a      	str	r2, [r7, #4]
	while(w25qxx.Lock==1)
 800614c:	e002      	b.n	8006154 <W25qxx_IsEmptySector+0x14>
	W25qxx_Delay(1);
 800614e:	2001      	movs	r0, #1
 8006150:	f000 faa2 	bl	8006698 <HAL_Delay>
	while(w25qxx.Lock==1)
 8006154:	4b6a      	ldr	r3, [pc, #424]	; (8006300 <W25qxx_IsEmptySector+0x1c0>)
 8006156:	f893 3027 	ldrb.w	r3, [r3, #39]	; 0x27
 800615a:	2b01      	cmp	r3, #1
 800615c:	d0f7      	beq.n	800614e <W25qxx_IsEmptySector+0xe>
	w25qxx.Lock=1;	
 800615e:	4b68      	ldr	r3, [pc, #416]	; (8006300 <W25qxx_IsEmptySector+0x1c0>)
 8006160:	2201      	movs	r2, #1
 8006162:	f883 2027 	strb.w	r2, [r3, #39]	; 0x27
	if((NumByteToCheck_up_to_SectorSize>w25qxx.SectorSize)||(NumByteToCheck_up_to_SectorSize==0))
 8006166:	4b66      	ldr	r3, [pc, #408]	; (8006300 <W25qxx_IsEmptySector+0x1c0>)
 8006168:	691b      	ldr	r3, [r3, #16]
 800616a:	687a      	ldr	r2, [r7, #4]
 800616c:	429a      	cmp	r2, r3
 800616e:	d802      	bhi.n	8006176 <W25qxx_IsEmptySector+0x36>
 8006170:	687b      	ldr	r3, [r7, #4]
 8006172:	2b00      	cmp	r3, #0
 8006174:	d102      	bne.n	800617c <W25qxx_IsEmptySector+0x3c>
		NumByteToCheck_up_to_SectorSize=w25qxx.SectorSize;
 8006176:	4b62      	ldr	r3, [pc, #392]	; (8006300 <W25qxx_IsEmptySector+0x1c0>)
 8006178:	691b      	ldr	r3, [r3, #16]
 800617a:	607b      	str	r3, [r7, #4]
	uint32_t	StartTime=HAL_GetTick();
	#endif		
	uint8_t	pBuffer[32];
	uint32_t	WorkAddress;
	uint32_t	i;
	for(i=OffsetInByte; i<w25qxx.SectorSize; i+=sizeof(pBuffer))
 800617c:	68bb      	ldr	r3, [r7, #8]
 800617e:	63fb      	str	r3, [r7, #60]	; 0x3c
 8006180:	e054      	b.n	800622c <W25qxx_IsEmptySector+0xec>
	{
		HAL_GPIO_WritePin(_W25QXX_CS_GPIO,_W25QXX_CS_PIN,GPIO_PIN_RESET);
 8006182:	2200      	movs	r2, #0
 8006184:	f44f 5100 	mov.w	r1, #8192	; 0x2000
 8006188:	485e      	ldr	r0, [pc, #376]	; (8006304 <W25qxx_IsEmptySector+0x1c4>)
 800618a:	f000 fe02 	bl	8006d92 <HAL_GPIO_WritePin>
		WorkAddress=(i+Sector_Address*w25qxx.SectorSize);
 800618e:	4b5c      	ldr	r3, [pc, #368]	; (8006300 <W25qxx_IsEmptySector+0x1c0>)
 8006190:	691b      	ldr	r3, [r3, #16]
 8006192:	68fa      	ldr	r2, [r7, #12]
 8006194:	fb02 f303 	mul.w	r3, r2, r3
 8006198:	6bfa      	ldr	r2, [r7, #60]	; 0x3c
 800619a:	4413      	add	r3, r2
 800619c:	637b      	str	r3, [r7, #52]	; 0x34
		W25qxx_Spi(0x0B);
 800619e:	200b      	movs	r0, #11
 80061a0:	f7ff fd8a 	bl	8005cb8 <W25qxx_Spi>
		if(w25qxx.ID>=W25Q256)
 80061a4:	4b56      	ldr	r3, [pc, #344]	; (8006300 <W25qxx_IsEmptySector+0x1c0>)
 80061a6:	781b      	ldrb	r3, [r3, #0]
 80061a8:	2b08      	cmp	r3, #8
 80061aa:	d905      	bls.n	80061b8 <W25qxx_IsEmptySector+0x78>
			W25qxx_Spi((WorkAddress & 0xFF000000) >> 24);
 80061ac:	6b7b      	ldr	r3, [r7, #52]	; 0x34
 80061ae:	0e1b      	lsrs	r3, r3, #24
 80061b0:	b2db      	uxtb	r3, r3
 80061b2:	4618      	mov	r0, r3
 80061b4:	f7ff fd80 	bl	8005cb8 <W25qxx_Spi>
		W25qxx_Spi((WorkAddress & 0xFF0000) >> 16);
 80061b8:	6b7b      	ldr	r3, [r7, #52]	; 0x34
 80061ba:	0c1b      	lsrs	r3, r3, #16
 80061bc:	b2db      	uxtb	r3, r3
 80061be:	4618      	mov	r0, r3
 80061c0:	f7ff fd7a 	bl	8005cb8 <W25qxx_Spi>
		W25qxx_Spi((WorkAddress & 0xFF00) >> 8);
 80061c4:	6b7b      	ldr	r3, [r7, #52]	; 0x34
 80061c6:	0a1b      	lsrs	r3, r3, #8
 80061c8:	b2db      	uxtb	r3, r3
 80061ca:	4618      	mov	r0, r3
 80061cc:	f7ff fd74 	bl	8005cb8 <W25qxx_Spi>
		W25qxx_Spi(WorkAddress & 0xFF);
 80061d0:	6b7b      	ldr	r3, [r7, #52]	; 0x34
 80061d2:	b2db      	uxtb	r3, r3
 80061d4:	4618      	mov	r0, r3
 80061d6:	f7ff fd6f 	bl	8005cb8 <W25qxx_Spi>
		W25qxx_Spi(0);
 80061da:	2000      	movs	r0, #0
 80061dc:	f7ff fd6c 	bl	8005cb8 <W25qxx_Spi>
		HAL_SPI_Receive(&_W25QXX_SPI,pBuffer,sizeof(pBuffer),100);	
 80061e0:	f107 0114 	add.w	r1, r7, #20
 80061e4:	2364      	movs	r3, #100	; 0x64
 80061e6:	2220      	movs	r2, #32
 80061e8:	4847      	ldr	r0, [pc, #284]	; (8006308 <W25qxx_IsEmptySector+0x1c8>)
 80061ea:	f001 fbdd 	bl	80079a8 <HAL_SPI_Receive>
		HAL_GPIO_WritePin(_W25QXX_CS_GPIO,_W25QXX_CS_PIN,GPIO_PIN_SET);	
 80061ee:	2201      	movs	r2, #1
 80061f0:	f44f 5100 	mov.w	r1, #8192	; 0x2000
 80061f4:	4843      	ldr	r0, [pc, #268]	; (8006304 <W25qxx_IsEmptySector+0x1c4>)
 80061f6:	f000 fdcc 	bl	8006d92 <HAL_GPIO_WritePin>
		for(uint8_t x=0;x<sizeof(pBuffer);x++)
 80061fa:	2300      	movs	r3, #0
 80061fc:	f887 303b 	strb.w	r3, [r7, #59]	; 0x3b
 8006200:	e00d      	b.n	800621e <W25qxx_IsEmptySector+0xde>
		{
			if(pBuffer[x]!=0xFF)
 8006202:	f897 303b 	ldrb.w	r3, [r7, #59]	; 0x3b
 8006206:	f107 0240 	add.w	r2, r7, #64	; 0x40
 800620a:	4413      	add	r3, r2
 800620c:	f813 3c2c 	ldrb.w	r3, [r3, #-44]
 8006210:	2bff      	cmp	r3, #255	; 0xff
 8006212:	d169      	bne.n	80062e8 <W25qxx_IsEmptySector+0x1a8>
		for(uint8_t x=0;x<sizeof(pBuffer);x++)
 8006214:	f897 303b 	ldrb.w	r3, [r7, #59]	; 0x3b
 8006218:	3301      	adds	r3, #1
 800621a:	f887 303b 	strb.w	r3, [r7, #59]	; 0x3b
 800621e:	f897 303b 	ldrb.w	r3, [r7, #59]	; 0x3b
 8006222:	2b1f      	cmp	r3, #31
 8006224:	d9ed      	bls.n	8006202 <W25qxx_IsEmptySector+0xc2>
	for(i=OffsetInByte; i<w25qxx.SectorSize; i+=sizeof(pBuffer))
 8006226:	6bfb      	ldr	r3, [r7, #60]	; 0x3c
 8006228:	3320      	adds	r3, #32
 800622a:	63fb      	str	r3, [r7, #60]	; 0x3c
 800622c:	4b34      	ldr	r3, [pc, #208]	; (8006300 <W25qxx_IsEmptySector+0x1c0>)
 800622e:	691b      	ldr	r3, [r3, #16]
 8006230:	6bfa      	ldr	r2, [r7, #60]	; 0x3c
 8006232:	429a      	cmp	r2, r3
 8006234:	d3a5      	bcc.n	8006182 <W25qxx_IsEmptySector+0x42>
				goto NOT_EMPTY;		
		}			
	}	
	if((w25qxx.SectorSize+OffsetInByte)%sizeof(pBuffer)!=0)
 8006236:	4b32      	ldr	r3, [pc, #200]	; (8006300 <W25qxx_IsEmptySector+0x1c0>)
 8006238:	691a      	ldr	r2, [r3, #16]
 800623a:	68bb      	ldr	r3, [r7, #8]
 800623c:	4413      	add	r3, r2
 800623e:	f003 031f 	and.w	r3, r3, #31
 8006242:	2b00      	cmp	r3, #0
 8006244:	d04a      	beq.n	80062dc <W25qxx_IsEmptySector+0x19c>
	{
		i-=sizeof(pBuffer);
 8006246:	6bfb      	ldr	r3, [r7, #60]	; 0x3c
 8006248:	3b20      	subs	r3, #32
 800624a:	63fb      	str	r3, [r7, #60]	; 0x3c
		for( ; i<w25qxx.SectorSize; i++)
 800624c:	e041      	b.n	80062d2 <W25qxx_IsEmptySector+0x192>
		{
			HAL_GPIO_WritePin(_W25QXX_CS_GPIO,_W25QXX_CS_PIN,GPIO_PIN_RESET);
 800624e:	2200      	movs	r2, #0
 8006250:	f44f 5100 	mov.w	r1, #8192	; 0x2000
 8006254:	482b      	ldr	r0, [pc, #172]	; (8006304 <W25qxx_IsEmptySector+0x1c4>)
 8006256:	f000 fd9c 	bl	8006d92 <HAL_GPIO_WritePin>
			WorkAddress=(i+Sector_Address*w25qxx.SectorSize);
 800625a:	4b29      	ldr	r3, [pc, #164]	; (8006300 <W25qxx_IsEmptySector+0x1c0>)
 800625c:	691b      	ldr	r3, [r3, #16]
 800625e:	68fa      	ldr	r2, [r7, #12]
 8006260:	fb02 f303 	mul.w	r3, r2, r3
 8006264:	6bfa      	ldr	r2, [r7, #60]	; 0x3c
 8006266:	4413      	add	r3, r2
 8006268:	637b      	str	r3, [r7, #52]	; 0x34
			W25qxx_Spi(0x0B);
 800626a:	200b      	movs	r0, #11
 800626c:	f7ff fd24 	bl	8005cb8 <W25qxx_Spi>
			if(w25qxx.ID>=W25Q256)
 8006270:	4b23      	ldr	r3, [pc, #140]	; (8006300 <W25qxx_IsEmptySector+0x1c0>)
 8006272:	781b      	ldrb	r3, [r3, #0]
 8006274:	2b08      	cmp	r3, #8
 8006276:	d905      	bls.n	8006284 <W25qxx_IsEmptySector+0x144>
				W25qxx_Spi((WorkAddress & 0xFF000000) >> 24);
 8006278:	6b7b      	ldr	r3, [r7, #52]	; 0x34
 800627a:	0e1b      	lsrs	r3, r3, #24
 800627c:	b2db      	uxtb	r3, r3
 800627e:	4618      	mov	r0, r3
 8006280:	f7ff fd1a 	bl	8005cb8 <W25qxx_Spi>
			W25qxx_Spi((WorkAddress & 0xFF0000) >> 16);
 8006284:	6b7b      	ldr	r3, [r7, #52]	; 0x34
 8006286:	0c1b      	lsrs	r3, r3, #16
 8006288:	b2db      	uxtb	r3, r3
 800628a:	4618      	mov	r0, r3
 800628c:	f7ff fd14 	bl	8005cb8 <W25qxx_Spi>
			W25qxx_Spi((WorkAddress & 0xFF00) >> 8);
 8006290:	6b7b      	ldr	r3, [r7, #52]	; 0x34
 8006292:	0a1b      	lsrs	r3, r3, #8
 8006294:	b2db      	uxtb	r3, r3
 8006296:	4618      	mov	r0, r3
 8006298:	f7ff fd0e 	bl	8005cb8 <W25qxx_Spi>
			W25qxx_Spi(WorkAddress & 0xFF);
 800629c:	6b7b      	ldr	r3, [r7, #52]	; 0x34
 800629e:	b2db      	uxtb	r3, r3
 80062a0:	4618      	mov	r0, r3
 80062a2:	f7ff fd09 	bl	8005cb8 <W25qxx_Spi>
			W25qxx_Spi(0);
 80062a6:	2000      	movs	r0, #0
 80062a8:	f7ff fd06 	bl	8005cb8 <W25qxx_Spi>
			HAL_SPI_Receive(&_W25QXX_SPI,pBuffer,1,100);	
 80062ac:	f107 0114 	add.w	r1, r7, #20
 80062b0:	2364      	movs	r3, #100	; 0x64
 80062b2:	2201      	movs	r2, #1
 80062b4:	4814      	ldr	r0, [pc, #80]	; (8006308 <W25qxx_IsEmptySector+0x1c8>)
 80062b6:	f001 fb77 	bl	80079a8 <HAL_SPI_Receive>
			HAL_GPIO_WritePin(_W25QXX_CS_GPIO,_W25QXX_CS_PIN,GPIO_PIN_SET);	
 80062ba:	2201      	movs	r2, #1
 80062bc:	f44f 5100 	mov.w	r1, #8192	; 0x2000
 80062c0:	4810      	ldr	r0, [pc, #64]	; (8006304 <W25qxx_IsEmptySector+0x1c4>)
 80062c2:	f000 fd66 	bl	8006d92 <HAL_GPIO_WritePin>
			if(pBuffer[0]!=0xFF)
 80062c6:	7d3b      	ldrb	r3, [r7, #20]
 80062c8:	2bff      	cmp	r3, #255	; 0xff
 80062ca:	d10f      	bne.n	80062ec <W25qxx_IsEmptySector+0x1ac>
		for( ; i<w25qxx.SectorSize; i++)
 80062cc:	6bfb      	ldr	r3, [r7, #60]	; 0x3c
 80062ce:	3301      	adds	r3, #1
 80062d0:	63fb      	str	r3, [r7, #60]	; 0x3c
 80062d2:	4b0b      	ldr	r3, [pc, #44]	; (8006300 <W25qxx_IsEmptySector+0x1c0>)
 80062d4:	691b      	ldr	r3, [r3, #16]
 80062d6:	6bfa      	ldr	r2, [r7, #60]	; 0x3c
 80062d8:	429a      	cmp	r2, r3
 80062da:	d3b8      	bcc.n	800624e <W25qxx_IsEmptySector+0x10e>
	}	
	#if (_W25QXX_DEBUG==1)
	printf("w25qxx CheckSector is Empty in %d ms\r\n",HAL_GetTick()-StartTime);
	W25qxx_Delay(100);
	#endif	
	w25qxx.Lock=0;
 80062dc:	4b08      	ldr	r3, [pc, #32]	; (8006300 <W25qxx_IsEmptySector+0x1c0>)
 80062de:	2200      	movs	r2, #0
 80062e0:	f883 2027 	strb.w	r2, [r3, #39]	; 0x27
	return true;	
 80062e4:	2301      	movs	r3, #1
 80062e6:	e007      	b.n	80062f8 <W25qxx_IsEmptySector+0x1b8>
				goto NOT_EMPTY;		
 80062e8:	bf00      	nop
 80062ea:	e000      	b.n	80062ee <W25qxx_IsEmptySector+0x1ae>
				goto NOT_EMPTY;
 80062ec:	bf00      	nop
	NOT_EMPTY:
	#if (_W25QXX_DEBUG==1)
	printf("w25qxx CheckSector is Not Empty in %d ms\r\n",HAL_GetTick()-StartTime);
	W25qxx_Delay(100);
	#endif	
	w25qxx.Lock=0;
 80062ee:	4b04      	ldr	r3, [pc, #16]	; (8006300 <W25qxx_IsEmptySector+0x1c0>)
 80062f0:	2200      	movs	r2, #0
 80062f2:	f883 2027 	strb.w	r2, [r3, #39]	; 0x27
	return false;
 80062f6:	2300      	movs	r3, #0
}
 80062f8:	4618      	mov	r0, r3
 80062fa:	3740      	adds	r7, #64	; 0x40
 80062fc:	46bd      	mov	sp, r7
 80062fe:	bd80      	pop	{r7, pc}
 8006300:	20000b50 	.word	0x20000b50
 8006304:	40011000 	.word	0x40011000
 8006308:	20000930 	.word	0x20000930

0800630c <W25qxx_WritePage>:
	#endif
	w25qxx.Lock=0;
}
//###################################################################################################################
void 	W25qxx_WritePage(uint8_t *pBuffer	,uint32_t Page_Address,uint32_t OffsetInByte,uint32_t NumByteToWrite_up_to_PageSize)
{
 800630c:	b580      	push	{r7, lr}
 800630e:	b084      	sub	sp, #16
 8006310:	af00      	add	r7, sp, #0
 8006312:	60f8      	str	r0, [r7, #12]
 8006314:	60b9      	str	r1, [r7, #8]
 8006316:	607a      	str	r2, [r7, #4]
 8006318:	603b      	str	r3, [r7, #0]
	while(w25qxx.Lock==1)
 800631a:	e002      	b.n	8006322 <W25qxx_WritePage+0x16>
		W25qxx_Delay(1);
 800631c:	2001      	movs	r0, #1
 800631e:	f000 f9bb 	bl	8006698 <HAL_Delay>
	while(w25qxx.Lock==1)
 8006322:	4b38      	ldr	r3, [pc, #224]	; (8006404 <W25qxx_WritePage+0xf8>)
 8006324:	f893 3027 	ldrb.w	r3, [r3, #39]	; 0x27
 8006328:	2b01      	cmp	r3, #1
 800632a:	d0f7      	beq.n	800631c <W25qxx_WritePage+0x10>
	w25qxx.Lock=1;
 800632c:	4b35      	ldr	r3, [pc, #212]	; (8006404 <W25qxx_WritePage+0xf8>)
 800632e:	2201      	movs	r2, #1
 8006330:	f883 2027 	strb.w	r2, [r3, #39]	; 0x27
	if(((NumByteToWrite_up_to_PageSize+OffsetInByte)>w25qxx.PageSize)||(NumByteToWrite_up_to_PageSize==0))
 8006334:	683a      	ldr	r2, [r7, #0]
 8006336:	687b      	ldr	r3, [r7, #4]
 8006338:	4413      	add	r3, r2
 800633a:	4a32      	ldr	r2, [pc, #200]	; (8006404 <W25qxx_WritePage+0xf8>)
 800633c:	8952      	ldrh	r2, [r2, #10]
 800633e:	4293      	cmp	r3, r2
 8006340:	d802      	bhi.n	8006348 <W25qxx_WritePage+0x3c>
 8006342:	683b      	ldr	r3, [r7, #0]
 8006344:	2b00      	cmp	r3, #0
 8006346:	d105      	bne.n	8006354 <W25qxx_WritePage+0x48>
		NumByteToWrite_up_to_PageSize=w25qxx.PageSize-OffsetInByte;
 8006348:	4b2e      	ldr	r3, [pc, #184]	; (8006404 <W25qxx_WritePage+0xf8>)
 800634a:	895b      	ldrh	r3, [r3, #10]
 800634c:	461a      	mov	r2, r3
 800634e:	687b      	ldr	r3, [r7, #4]
 8006350:	1ad3      	subs	r3, r2, r3
 8006352:	603b      	str	r3, [r7, #0]
	if((OffsetInByte+NumByteToWrite_up_to_PageSize) > w25qxx.PageSize)
 8006354:	687a      	ldr	r2, [r7, #4]
 8006356:	683b      	ldr	r3, [r7, #0]
 8006358:	4413      	add	r3, r2
 800635a:	4a2a      	ldr	r2, [pc, #168]	; (8006404 <W25qxx_WritePage+0xf8>)
 800635c:	8952      	ldrh	r2, [r2, #10]
 800635e:	4293      	cmp	r3, r2
 8006360:	d905      	bls.n	800636e <W25qxx_WritePage+0x62>
		NumByteToWrite_up_to_PageSize = w25qxx.PageSize-OffsetInByte;
 8006362:	4b28      	ldr	r3, [pc, #160]	; (8006404 <W25qxx_WritePage+0xf8>)
 8006364:	895b      	ldrh	r3, [r3, #10]
 8006366:	461a      	mov	r2, r3
 8006368:	687b      	ldr	r3, [r7, #4]
 800636a:	1ad3      	subs	r3, r2, r3
 800636c:	603b      	str	r3, [r7, #0]
	#if (_W25QXX_DEBUG==1)
	printf("w25qxx WritePage:%d, Offset:%d ,Writes %d Bytes, begin...\r\n",Page_Address,OffsetInByte,NumByteToWrite_up_to_PageSize);
	W25qxx_Delay(100);
	uint32_t	StartTime=HAL_GetTick();
	#endif	
	W25qxx_WaitForWriteEnd();
 800636e:	f7ff fd89 	bl	8005e84 <W25qxx_WaitForWriteEnd>
  W25qxx_WriteEnable();
 8006372:	f7ff fd27 	bl	8005dc4 <W25qxx_WriteEnable>
  HAL_GPIO_WritePin(_W25QXX_CS_GPIO,_W25QXX_CS_PIN,GPIO_PIN_RESET);
 8006376:	2200      	movs	r2, #0
 8006378:	f44f 5100 	mov.w	r1, #8192	; 0x2000
 800637c:	4822      	ldr	r0, [pc, #136]	; (8006408 <W25qxx_WritePage+0xfc>)
 800637e:	f000 fd08 	bl	8006d92 <HAL_GPIO_WritePin>
  W25qxx_Spi(0x02);
 8006382:	2002      	movs	r0, #2
 8006384:	f7ff fc98 	bl	8005cb8 <W25qxx_Spi>
	Page_Address = (Page_Address*w25qxx.PageSize)+OffsetInByte;	
 8006388:	4b1e      	ldr	r3, [pc, #120]	; (8006404 <W25qxx_WritePage+0xf8>)
 800638a:	895b      	ldrh	r3, [r3, #10]
 800638c:	461a      	mov	r2, r3
 800638e:	68bb      	ldr	r3, [r7, #8]
 8006390:	fb03 f302 	mul.w	r3, r3, r2
 8006394:	687a      	ldr	r2, [r7, #4]
 8006396:	4413      	add	r3, r2
 8006398:	60bb      	str	r3, [r7, #8]
	if(w25qxx.ID>=W25Q256)
 800639a:	4b1a      	ldr	r3, [pc, #104]	; (8006404 <W25qxx_WritePage+0xf8>)
 800639c:	781b      	ldrb	r3, [r3, #0]
 800639e:	2b08      	cmp	r3, #8
 80063a0:	d905      	bls.n	80063ae <W25qxx_WritePage+0xa2>
		W25qxx_Spi((Page_Address & 0xFF000000) >> 24);
 80063a2:	68bb      	ldr	r3, [r7, #8]
 80063a4:	0e1b      	lsrs	r3, r3, #24
 80063a6:	b2db      	uxtb	r3, r3
 80063a8:	4618      	mov	r0, r3
 80063aa:	f7ff fc85 	bl	8005cb8 <W25qxx_Spi>
  W25qxx_Spi((Page_Address & 0xFF0000) >> 16);
 80063ae:	68bb      	ldr	r3, [r7, #8]
 80063b0:	0c1b      	lsrs	r3, r3, #16
 80063b2:	b2db      	uxtb	r3, r3
 80063b4:	4618      	mov	r0, r3
 80063b6:	f7ff fc7f 	bl	8005cb8 <W25qxx_Spi>
  W25qxx_Spi((Page_Address & 0xFF00) >> 8);
 80063ba:	68bb      	ldr	r3, [r7, #8]
 80063bc:	0a1b      	lsrs	r3, r3, #8
 80063be:	b2db      	uxtb	r3, r3
 80063c0:	4618      	mov	r0, r3
 80063c2:	f7ff fc79 	bl	8005cb8 <W25qxx_Spi>
  W25qxx_Spi(Page_Address&0xFF);
 80063c6:	68bb      	ldr	r3, [r7, #8]
 80063c8:	b2db      	uxtb	r3, r3
 80063ca:	4618      	mov	r0, r3
 80063cc:	f7ff fc74 	bl	8005cb8 <W25qxx_Spi>
	HAL_SPI_Transmit(&_W25QXX_SPI,pBuffer,NumByteToWrite_up_to_PageSize,100);	
 80063d0:	683b      	ldr	r3, [r7, #0]
 80063d2:	b29a      	uxth	r2, r3
 80063d4:	2364      	movs	r3, #100	; 0x64
 80063d6:	68f9      	ldr	r1, [r7, #12]
 80063d8:	480c      	ldr	r0, [pc, #48]	; (800640c <W25qxx_WritePage+0x100>)
 80063da:	f001 f9a9 	bl	8007730 <HAL_SPI_Transmit>
	HAL_GPIO_WritePin(_W25QXX_CS_GPIO,_W25QXX_CS_PIN,GPIO_PIN_SET);
 80063de:	2201      	movs	r2, #1
 80063e0:	f44f 5100 	mov.w	r1, #8192	; 0x2000
 80063e4:	4808      	ldr	r0, [pc, #32]	; (8006408 <W25qxx_WritePage+0xfc>)
 80063e6:	f000 fcd4 	bl	8006d92 <HAL_GPIO_WritePin>
  W25qxx_WaitForWriteEnd();
 80063ea:	f7ff fd4b 	bl	8005e84 <W25qxx_WaitForWriteEnd>
	}	
	printf("\r\n");
	printf("w25qxx WritePage done after %d ms\r\n",StartTime);
	W25qxx_Delay(100);
	#endif	
	W25qxx_Delay(1);
 80063ee:	2001      	movs	r0, #1
 80063f0:	f000 f952 	bl	8006698 <HAL_Delay>
	w25qxx.Lock=0;
 80063f4:	4b03      	ldr	r3, [pc, #12]	; (8006404 <W25qxx_WritePage+0xf8>)
 80063f6:	2200      	movs	r2, #0
 80063f8:	f883 2027 	strb.w	r2, [r3, #39]	; 0x27
}
 80063fc:	bf00      	nop
 80063fe:	3710      	adds	r7, #16
 8006400:	46bd      	mov	sp, r7
 8006402:	bd80      	pop	{r7, pc}
 8006404:	20000b50 	.word	0x20000b50
 8006408:	40011000 	.word	0x40011000
 800640c:	20000930 	.word	0x20000930

08006410 <W25qxx_WriteSector>:
//###################################################################################################################
void 	W25qxx_WriteSector(uint8_t *pBuffer	,uint32_t Sector_Address,uint32_t OffsetInByte	,uint32_t NumByteToWrite_up_to_SectorSize)
{
 8006410:	b580      	push	{r7, lr}
 8006412:	b088      	sub	sp, #32
 8006414:	af00      	add	r7, sp, #0
 8006416:	60f8      	str	r0, [r7, #12]
 8006418:	60b9      	str	r1, [r7, #8]
 800641a:	607a      	str	r2, [r7, #4]
 800641c:	603b      	str	r3, [r7, #0]
	if((NumByteToWrite_up_to_SectorSize>w25qxx.SectorSize)||(NumByteToWrite_up_to_SectorSize==0))
 800641e:	4b2c      	ldr	r3, [pc, #176]	; (80064d0 <W25qxx_WriteSector+0xc0>)
 8006420:	691b      	ldr	r3, [r3, #16]
 8006422:	683a      	ldr	r2, [r7, #0]
 8006424:	429a      	cmp	r2, r3
 8006426:	d802      	bhi.n	800642e <W25qxx_WriteSector+0x1e>
 8006428:	683b      	ldr	r3, [r7, #0]
 800642a:	2b00      	cmp	r3, #0
 800642c:	d102      	bne.n	8006434 <W25qxx_WriteSector+0x24>
		NumByteToWrite_up_to_SectorSize=w25qxx.SectorSize;
 800642e:	4b28      	ldr	r3, [pc, #160]	; (80064d0 <W25qxx_WriteSector+0xc0>)
 8006430:	691b      	ldr	r3, [r3, #16]
 8006432:	603b      	str	r3, [r7, #0]
	#if (_W25QXX_DEBUG==1)
	printf("+++w25qxx WriteSector:%d, Offset:%d ,Write %d Bytes, begin...\r\n",Sector_Address,OffsetInByte,NumByteToWrite_up_to_SectorSize);
	W25qxx_Delay(100);
	#endif	
	if(OffsetInByte>=w25qxx.SectorSize)
 8006434:	4b26      	ldr	r3, [pc, #152]	; (80064d0 <W25qxx_WriteSector+0xc0>)
 8006436:	691b      	ldr	r3, [r3, #16]
 8006438:	687a      	ldr	r2, [r7, #4]
 800643a:	429a      	cmp	r2, r3
 800643c:	d243      	bcs.n	80064c6 <W25qxx_WriteSector+0xb6>
		return;
	}	
	uint32_t	StartPage;
	int32_t		BytesToWrite;
	uint32_t	LocalOffset;	
	if((OffsetInByte+NumByteToWrite_up_to_SectorSize) > w25qxx.SectorSize)
 800643e:	687a      	ldr	r2, [r7, #4]
 8006440:	683b      	ldr	r3, [r7, #0]
 8006442:	441a      	add	r2, r3
 8006444:	4b22      	ldr	r3, [pc, #136]	; (80064d0 <W25qxx_WriteSector+0xc0>)
 8006446:	691b      	ldr	r3, [r3, #16]
 8006448:	429a      	cmp	r2, r3
 800644a:	d905      	bls.n	8006458 <W25qxx_WriteSector+0x48>
		BytesToWrite = w25qxx.SectorSize-OffsetInByte;
 800644c:	4b20      	ldr	r3, [pc, #128]	; (80064d0 <W25qxx_WriteSector+0xc0>)
 800644e:	691a      	ldr	r2, [r3, #16]
 8006450:	687b      	ldr	r3, [r7, #4]
 8006452:	1ad3      	subs	r3, r2, r3
 8006454:	61bb      	str	r3, [r7, #24]
 8006456:	e001      	b.n	800645c <W25qxx_WriteSector+0x4c>
	else
		BytesToWrite = NumByteToWrite_up_to_SectorSize;	
 8006458:	683b      	ldr	r3, [r7, #0]
 800645a:	61bb      	str	r3, [r7, #24]
	StartPage = W25qxx_SectorToPage(Sector_Address)+(OffsetInByte/w25qxx.PageSize);
 800645c:	68b8      	ldr	r0, [r7, #8]
 800645e:	f7ff fe5b 	bl	8006118 <W25qxx_SectorToPage>
 8006462:	4602      	mov	r2, r0
 8006464:	4b1a      	ldr	r3, [pc, #104]	; (80064d0 <W25qxx_WriteSector+0xc0>)
 8006466:	895b      	ldrh	r3, [r3, #10]
 8006468:	4619      	mov	r1, r3
 800646a:	687b      	ldr	r3, [r7, #4]
 800646c:	fbb3 f3f1 	udiv	r3, r3, r1
 8006470:	4413      	add	r3, r2
 8006472:	61fb      	str	r3, [r7, #28]
	LocalOffset = OffsetInByte%w25qxx.PageSize;	
 8006474:	4b16      	ldr	r3, [pc, #88]	; (80064d0 <W25qxx_WriteSector+0xc0>)
 8006476:	895b      	ldrh	r3, [r3, #10]
 8006478:	461a      	mov	r2, r3
 800647a:	687b      	ldr	r3, [r7, #4]
 800647c:	fbb3 f1f2 	udiv	r1, r3, r2
 8006480:	fb02 f201 	mul.w	r2, r2, r1
 8006484:	1a9b      	subs	r3, r3, r2
 8006486:	617b      	str	r3, [r7, #20]
	do
	{		
		W25qxx_WritePage(pBuffer,StartPage,LocalOffset,BytesToWrite);
 8006488:	69bb      	ldr	r3, [r7, #24]
 800648a:	697a      	ldr	r2, [r7, #20]
 800648c:	69f9      	ldr	r1, [r7, #28]
 800648e:	68f8      	ldr	r0, [r7, #12]
 8006490:	f7ff ff3c 	bl	800630c <W25qxx_WritePage>
		StartPage++;
 8006494:	69fb      	ldr	r3, [r7, #28]
 8006496:	3301      	adds	r3, #1
 8006498:	61fb      	str	r3, [r7, #28]
		BytesToWrite-=w25qxx.PageSize-LocalOffset;
 800649a:	4b0d      	ldr	r3, [pc, #52]	; (80064d0 <W25qxx_WriteSector+0xc0>)
 800649c:	895b      	ldrh	r3, [r3, #10]
 800649e:	461a      	mov	r2, r3
 80064a0:	697b      	ldr	r3, [r7, #20]
 80064a2:	1a9a      	subs	r2, r3, r2
 80064a4:	69bb      	ldr	r3, [r7, #24]
 80064a6:	4413      	add	r3, r2
 80064a8:	61bb      	str	r3, [r7, #24]
		pBuffer += w25qxx.PageSize - LocalOffset;
 80064aa:	4b09      	ldr	r3, [pc, #36]	; (80064d0 <W25qxx_WriteSector+0xc0>)
 80064ac:	895b      	ldrh	r3, [r3, #10]
 80064ae:	461a      	mov	r2, r3
 80064b0:	697b      	ldr	r3, [r7, #20]
 80064b2:	1ad3      	subs	r3, r2, r3
 80064b4:	68fa      	ldr	r2, [r7, #12]
 80064b6:	4413      	add	r3, r2
 80064b8:	60fb      	str	r3, [r7, #12]
		LocalOffset=0;
 80064ba:	2300      	movs	r3, #0
 80064bc:	617b      	str	r3, [r7, #20]
	}while(BytesToWrite>0);		
 80064be:	69bb      	ldr	r3, [r7, #24]
 80064c0:	2b00      	cmp	r3, #0
 80064c2:	dce1      	bgt.n	8006488 <W25qxx_WriteSector+0x78>
 80064c4:	e000      	b.n	80064c8 <W25qxx_WriteSector+0xb8>
		return;
 80064c6:	bf00      	nop
	#if (_W25QXX_DEBUG==1)
	printf("---w25qxx WriteSector Done\r\n");
	W25qxx_Delay(100);
	#endif	
}
 80064c8:	3720      	adds	r7, #32
 80064ca:	46bd      	mov	sp, r7
 80064cc:	bd80      	pop	{r7, pc}
 80064ce:	bf00      	nop
 80064d0:	20000b50 	.word	0x20000b50

080064d4 <W25qxx_ReadBytes>:
	#endif
	w25qxx.Lock=0;
}
//###################################################################################################################
void W25qxx_ReadBytes(uint8_t* pBuffer, uint32_t ReadAddr, uint32_t NumByteToRead)
{
 80064d4:	b580      	push	{r7, lr}
 80064d6:	b084      	sub	sp, #16
 80064d8:	af00      	add	r7, sp, #0
 80064da:	60f8      	str	r0, [r7, #12]
 80064dc:	60b9      	str	r1, [r7, #8]
 80064de:	607a      	str	r2, [r7, #4]
	while(w25qxx.Lock==1)
 80064e0:	e002      	b.n	80064e8 <W25qxx_ReadBytes+0x14>
		W25qxx_Delay(1);
 80064e2:	2001      	movs	r0, #1
 80064e4:	f000 f8d8 	bl	8006698 <HAL_Delay>
	while(w25qxx.Lock==1)
 80064e8:	4b24      	ldr	r3, [pc, #144]	; (800657c <W25qxx_ReadBytes+0xa8>)
 80064ea:	f893 3027 	ldrb.w	r3, [r3, #39]	; 0x27
 80064ee:	2b01      	cmp	r3, #1
 80064f0:	d0f7      	beq.n	80064e2 <W25qxx_ReadBytes+0xe>
	w25qxx.Lock=1;
 80064f2:	4b22      	ldr	r3, [pc, #136]	; (800657c <W25qxx_ReadBytes+0xa8>)
 80064f4:	2201      	movs	r2, #1
 80064f6:	f883 2027 	strb.w	r2, [r3, #39]	; 0x27
	#if (_W25QXX_DEBUG==1)
	uint32_t	StartTime=HAL_GetTick();
	printf("w25qxx ReadBytes at Address:%d, %d Bytes  begin...\r\n",ReadAddr,NumByteToRead);
	#endif	
	HAL_GPIO_WritePin(_W25QXX_CS_GPIO,_W25QXX_CS_PIN,GPIO_PIN_RESET);
 80064fa:	2200      	movs	r2, #0
 80064fc:	f44f 5100 	mov.w	r1, #8192	; 0x2000
 8006500:	481f      	ldr	r0, [pc, #124]	; (8006580 <W25qxx_ReadBytes+0xac>)
 8006502:	f000 fc46 	bl	8006d92 <HAL_GPIO_WritePin>
	W25qxx_Spi(0x0B);
 8006506:	200b      	movs	r0, #11
 8006508:	f7ff fbd6 	bl	8005cb8 <W25qxx_Spi>
	if(w25qxx.ID>=W25Q256)
 800650c:	4b1b      	ldr	r3, [pc, #108]	; (800657c <W25qxx_ReadBytes+0xa8>)
 800650e:	781b      	ldrb	r3, [r3, #0]
 8006510:	2b08      	cmp	r3, #8
 8006512:	d905      	bls.n	8006520 <W25qxx_ReadBytes+0x4c>
		W25qxx_Spi((ReadAddr & 0xFF000000) >> 24);
 8006514:	68bb      	ldr	r3, [r7, #8]
 8006516:	0e1b      	lsrs	r3, r3, #24
 8006518:	b2db      	uxtb	r3, r3
 800651a:	4618      	mov	r0, r3
 800651c:	f7ff fbcc 	bl	8005cb8 <W25qxx_Spi>
  W25qxx_Spi((ReadAddr & 0xFF0000) >> 16);
 8006520:	68bb      	ldr	r3, [r7, #8]
 8006522:	0c1b      	lsrs	r3, r3, #16
 8006524:	b2db      	uxtb	r3, r3
 8006526:	4618      	mov	r0, r3
 8006528:	f7ff fbc6 	bl	8005cb8 <W25qxx_Spi>
  W25qxx_Spi((ReadAddr& 0xFF00) >> 8);
 800652c:	68bb      	ldr	r3, [r7, #8]
 800652e:	0a1b      	lsrs	r3, r3, #8
 8006530:	b2db      	uxtb	r3, r3
 8006532:	4618      	mov	r0, r3
 8006534:	f7ff fbc0 	bl	8005cb8 <W25qxx_Spi>
  W25qxx_Spi(ReadAddr & 0xFF);
 8006538:	68bb      	ldr	r3, [r7, #8]
 800653a:	b2db      	uxtb	r3, r3
 800653c:	4618      	mov	r0, r3
 800653e:	f7ff fbbb 	bl	8005cb8 <W25qxx_Spi>
	W25qxx_Spi(0);
 8006542:	2000      	movs	r0, #0
 8006544:	f7ff fbb8 	bl	8005cb8 <W25qxx_Spi>
	HAL_SPI_Receive(&_W25QXX_SPI,pBuffer,NumByteToRead,2000);	
 8006548:	687b      	ldr	r3, [r7, #4]
 800654a:	b29a      	uxth	r2, r3
 800654c:	f44f 63fa 	mov.w	r3, #2000	; 0x7d0
 8006550:	68f9      	ldr	r1, [r7, #12]
 8006552:	480c      	ldr	r0, [pc, #48]	; (8006584 <W25qxx_ReadBytes+0xb0>)
 8006554:	f001 fa28 	bl	80079a8 <HAL_SPI_Receive>
	HAL_GPIO_WritePin(_W25QXX_CS_GPIO,_W25QXX_CS_PIN,GPIO_PIN_SET);
 8006558:	2201      	movs	r2, #1
 800655a:	f44f 5100 	mov.w	r1, #8192	; 0x2000
 800655e:	4808      	ldr	r0, [pc, #32]	; (8006580 <W25qxx_ReadBytes+0xac>)
 8006560:	f000 fc17 	bl	8006d92 <HAL_GPIO_WritePin>
	}
	printf("\r\n");
	printf("w25qxx ReadBytes done after %d ms\r\n",StartTime);
	W25qxx_Delay(100);
	#endif	
	W25qxx_Delay(1);
 8006564:	2001      	movs	r0, #1
 8006566:	f000 f897 	bl	8006698 <HAL_Delay>
	w25qxx.Lock=0;
 800656a:	4b04      	ldr	r3, [pc, #16]	; (800657c <W25qxx_ReadBytes+0xa8>)
 800656c:	2200      	movs	r2, #0
 800656e:	f883 2027 	strb.w	r2, [r3, #39]	; 0x27
}
 8006572:	bf00      	nop
 8006574:	3710      	adds	r7, #16
 8006576:	46bd      	mov	sp, r7
 8006578:	bd80      	pop	{r7, pc}
 800657a:	bf00      	nop
 800657c:	20000b50 	.word	0x20000b50
 8006580:	40011000 	.word	0x40011000
 8006584:	20000930 	.word	0x20000930

08006588 <Reset_Handler>:
  .weak Reset_Handler
  .type Reset_Handler, %function
Reset_Handler:

/* Copy the data segment initializers from flash to SRAM */
  ldr r0, =_sdata
 8006588:	480c      	ldr	r0, [pc, #48]	; (80065bc <LoopFillZerobss+0x12>)
  ldr r1, =_edata
 800658a:	490d      	ldr	r1, [pc, #52]	; (80065c0 <LoopFillZerobss+0x16>)
  ldr r2, =_sidata
 800658c:	4a0d      	ldr	r2, [pc, #52]	; (80065c4 <LoopFillZerobss+0x1a>)
  movs r3, #0
 800658e:	2300      	movs	r3, #0
  b LoopCopyDataInit
 8006590:	e002      	b.n	8006598 <LoopCopyDataInit>

08006592 <CopyDataInit>:

CopyDataInit:
  ldr r4, [r2, r3]
 8006592:	58d4      	ldr	r4, [r2, r3]
  str r4, [r0, r3]
 8006594:	50c4      	str	r4, [r0, r3]
  adds r3, r3, #4
 8006596:	3304      	adds	r3, #4

08006598 <LoopCopyDataInit>:

LoopCopyDataInit:
  adds r4, r0, r3
 8006598:	18c4      	adds	r4, r0, r3
  cmp r4, r1
 800659a:	428c      	cmp	r4, r1
  bcc CopyDataInit
 800659c:	d3f9      	bcc.n	8006592 <CopyDataInit>
  
/* Zero fill the bss segment. */
  ldr r2, =_sbss
 800659e:	4a0a      	ldr	r2, [pc, #40]	; (80065c8 <LoopFillZerobss+0x1e>)
  ldr r4, =_ebss
 80065a0:	4c0a      	ldr	r4, [pc, #40]	; (80065cc <LoopFillZerobss+0x22>)
  movs r3, #0
 80065a2:	2300      	movs	r3, #0
  b LoopFillZerobss
 80065a4:	e001      	b.n	80065aa <LoopFillZerobss>

080065a6 <FillZerobss>:

FillZerobss:
  str  r3, [r2]
 80065a6:	6013      	str	r3, [r2, #0]
  adds r2, r2, #4
 80065a8:	3204      	adds	r2, #4

080065aa <LoopFillZerobss>:

LoopFillZerobss:
  cmp r2, r4
 80065aa:	42a2      	cmp	r2, r4
  bcc FillZerobss
 80065ac:	d3fb      	bcc.n	80065a6 <FillZerobss>

/* Call the clock system intitialization function.*/
    bl  SystemInit
 80065ae:	f7fd fc5d 	bl	8003e6c <SystemInit>
/* Call static constructors */
    bl __libc_init_array
 80065b2:	f002 f9f5 	bl	80089a0 <__libc_init_array>
/* Call the application's entry point.*/
  bl main
 80065b6:	f7fb fa3f 	bl	8001a38 <main>
  bx lr
 80065ba:	4770      	bx	lr
  ldr r0, =_sdata
 80065bc:	20000000 	.word	0x20000000
  ldr r1, =_edata
 80065c0:	20000048 	.word	0x20000048
  ldr r2, =_sidata
 80065c4:	0800ad48 	.word	0x0800ad48
  ldr r2, =_sbss
 80065c8:	20000048 	.word	0x20000048
  ldr r4, =_ebss
 80065cc:	20000b7c 	.word	0x20000b7c

080065d0 <ADC1_2_IRQHandler>:
 * @retval : None
*/
    .section .text.Default_Handler,"ax",%progbits
Default_Handler:
Infinite_Loop:
  b Infinite_Loop
 80065d0:	e7fe      	b.n	80065d0 <ADC1_2_IRQHandler>
	...

080065d4 <HAL_Init>:
  *         need to ensure that the SysTick time base is always set to 1 millisecond
  *         to have correct HAL operation.
  * @retval HAL status
  */
HAL_StatusTypeDef HAL_Init(void)
{
 80065d4:	b580      	push	{r7, lr}
 80065d6:	af00      	add	r7, sp, #0
    defined(STM32F102x6) || defined(STM32F102xB) || \
    defined(STM32F103x6) || defined(STM32F103xB) || defined(STM32F103xE) || defined(STM32F103xG) || \
    defined(STM32F105xC) || defined(STM32F107xC)

  /* Prefetch buffer is not available on value line devices */
  __HAL_FLASH_PREFETCH_BUFFER_ENABLE();
 80065d8:	4b08      	ldr	r3, [pc, #32]	; (80065fc <HAL_Init+0x28>)
 80065da:	681b      	ldr	r3, [r3, #0]
 80065dc:	4a07      	ldr	r2, [pc, #28]	; (80065fc <HAL_Init+0x28>)
 80065de:	f043 0310 	orr.w	r3, r3, #16
 80065e2:	6013      	str	r3, [r2, #0]
#endif
#endif /* PREFETCH_ENABLE */

  /* Set Interrupt Group Priority */
  HAL_NVIC_SetPriorityGrouping(NVIC_PRIORITYGROUP_4);
 80065e4:	2003      	movs	r0, #3
 80065e6:	f000 f947 	bl	8006878 <HAL_NVIC_SetPriorityGrouping>

  /* Use systick as time base source and configure 1ms tick (default clock after Reset is HSI) */
  HAL_InitTick(TICK_INT_PRIORITY);
 80065ea:	200f      	movs	r0, #15
 80065ec:	f000 f808 	bl	8006600 <HAL_InitTick>

  /* Init the low level hardware */
  HAL_MspInit();
 80065f0:	f7fd fafe 	bl	8003bf0 <HAL_MspInit>

  /* Return function status */
  return HAL_OK;
 80065f4:	2300      	movs	r3, #0
}
 80065f6:	4618      	mov	r0, r3
 80065f8:	bd80      	pop	{r7, pc}
 80065fa:	bf00      	nop
 80065fc:	40022000 	.word	0x40022000

08006600 <HAL_InitTick>:
  *       implementation  in user file.
  * @param TickPriority Tick interrupt priority.
  * @retval HAL status
  */
__weak HAL_StatusTypeDef HAL_InitTick(uint32_t TickPriority)
{
 8006600:	b580      	push	{r7, lr}
 8006602:	b082      	sub	sp, #8
 8006604:	af00      	add	r7, sp, #0
 8006606:	6078      	str	r0, [r7, #4]
  /* Configure the SysTick to have interrupt in 1ms time basis*/
  if (HAL_SYSTICK_Config(SystemCoreClock / (1000U / uwTickFreq)) > 0U)
 8006608:	4b12      	ldr	r3, [pc, #72]	; (8006654 <HAL_InitTick+0x54>)
 800660a:	681a      	ldr	r2, [r3, #0]
 800660c:	4b12      	ldr	r3, [pc, #72]	; (8006658 <HAL_InitTick+0x58>)
 800660e:	781b      	ldrb	r3, [r3, #0]
 8006610:	4619      	mov	r1, r3
 8006612:	f44f 737a 	mov.w	r3, #1000	; 0x3e8
 8006616:	fbb3 f3f1 	udiv	r3, r3, r1
 800661a:	fbb2 f3f3 	udiv	r3, r2, r3
 800661e:	4618      	mov	r0, r3
 8006620:	f000 f95f 	bl	80068e2 <HAL_SYSTICK_Config>
 8006624:	4603      	mov	r3, r0
 8006626:	2b00      	cmp	r3, #0
 8006628:	d001      	beq.n	800662e <HAL_InitTick+0x2e>
  {
    return HAL_ERROR;
 800662a:	2301      	movs	r3, #1
 800662c:	e00e      	b.n	800664c <HAL_InitTick+0x4c>
  }

  /* Configure the SysTick IRQ priority */
  if (TickPriority < (1UL << __NVIC_PRIO_BITS))
 800662e:	687b      	ldr	r3, [r7, #4]
 8006630:	2b0f      	cmp	r3, #15
 8006632:	d80a      	bhi.n	800664a <HAL_InitTick+0x4a>
  {
    HAL_NVIC_SetPriority(SysTick_IRQn, TickPriority, 0U);
 8006634:	2200      	movs	r2, #0
 8006636:	6879      	ldr	r1, [r7, #4]
 8006638:	f04f 30ff 	mov.w	r0, #4294967295
 800663c:	f000 f927 	bl	800688e <HAL_NVIC_SetPriority>
    uwTickPrio = TickPriority;
 8006640:	4a06      	ldr	r2, [pc, #24]	; (800665c <HAL_InitTick+0x5c>)
 8006642:	687b      	ldr	r3, [r7, #4]
 8006644:	6013      	str	r3, [r2, #0]
  {
    return HAL_ERROR;
  }

  /* Return function status */
  return HAL_OK;
 8006646:	2300      	movs	r3, #0
 8006648:	e000      	b.n	800664c <HAL_InitTick+0x4c>
    return HAL_ERROR;
 800664a:	2301      	movs	r3, #1
}
 800664c:	4618      	mov	r0, r3
 800664e:	3708      	adds	r7, #8
 8006650:	46bd      	mov	sp, r7
 8006652:	bd80      	pop	{r7, pc}
 8006654:	2000003c 	.word	0x2000003c
 8006658:	20000044 	.word	0x20000044
 800665c:	20000040 	.word	0x20000040

08006660 <HAL_IncTick>:
  * @note This function is declared as __weak to be overwritten in case of other
  *      implementations in user file.
  * @retval None
  */
__weak void HAL_IncTick(void)
{
 8006660:	b480      	push	{r7}
 8006662:	af00      	add	r7, sp, #0
  uwTick += uwTickFreq;
 8006664:	4b05      	ldr	r3, [pc, #20]	; (800667c <HAL_IncTick+0x1c>)
 8006666:	781b      	ldrb	r3, [r3, #0]
 8006668:	461a      	mov	r2, r3
 800666a:	4b05      	ldr	r3, [pc, #20]	; (8006680 <HAL_IncTick+0x20>)
 800666c:	681b      	ldr	r3, [r3, #0]
 800666e:	4413      	add	r3, r2
 8006670:	4a03      	ldr	r2, [pc, #12]	; (8006680 <HAL_IncTick+0x20>)
 8006672:	6013      	str	r3, [r2, #0]
}
 8006674:	bf00      	nop
 8006676:	46bd      	mov	sp, r7
 8006678:	bc80      	pop	{r7}
 800667a:	4770      	bx	lr
 800667c:	20000044 	.word	0x20000044
 8006680:	20000b78 	.word	0x20000b78

08006684 <HAL_GetTick>:
  * @note  This function is declared as __weak to be overwritten in case of other
  *       implementations in user file.
  * @retval tick value
  */
__weak uint32_t HAL_GetTick(void)
{
 8006684:	b480      	push	{r7}
 8006686:	af00      	add	r7, sp, #0
  return uwTick;
 8006688:	4b02      	ldr	r3, [pc, #8]	; (8006694 <HAL_GetTick+0x10>)
 800668a:	681b      	ldr	r3, [r3, #0]
}
 800668c:	4618      	mov	r0, r3
 800668e:	46bd      	mov	sp, r7
 8006690:	bc80      	pop	{r7}
 8006692:	4770      	bx	lr
 8006694:	20000b78 	.word	0x20000b78

08006698 <HAL_Delay>:
  *       implementations in user file.
  * @param Delay specifies the delay time length, in milliseconds.
  * @retval None
  */
__weak void HAL_Delay(uint32_t Delay)
{
 8006698:	b580      	push	{r7, lr}
 800669a:	b084      	sub	sp, #16
 800669c:	af00      	add	r7, sp, #0
 800669e:	6078      	str	r0, [r7, #4]
  uint32_t tickstart = HAL_GetTick();
 80066a0:	f7ff fff0 	bl	8006684 <HAL_GetTick>
 80066a4:	60b8      	str	r0, [r7, #8]
  uint32_t wait = Delay;
 80066a6:	687b      	ldr	r3, [r7, #4]
 80066a8:	60fb      	str	r3, [r7, #12]

  /* Add a freq to guarantee minimum wait */
  if (wait < HAL_MAX_DELAY)
 80066aa:	68fb      	ldr	r3, [r7, #12]
 80066ac:	f1b3 3fff 	cmp.w	r3, #4294967295
 80066b0:	d005      	beq.n	80066be <HAL_Delay+0x26>
  {
    wait += (uint32_t)(uwTickFreq);
 80066b2:	4b0a      	ldr	r3, [pc, #40]	; (80066dc <HAL_Delay+0x44>)
 80066b4:	781b      	ldrb	r3, [r3, #0]
 80066b6:	461a      	mov	r2, r3
 80066b8:	68fb      	ldr	r3, [r7, #12]
 80066ba:	4413      	add	r3, r2
 80066bc:	60fb      	str	r3, [r7, #12]
  }

  while ((HAL_GetTick() - tickstart) < wait)
 80066be:	bf00      	nop
 80066c0:	f7ff ffe0 	bl	8006684 <HAL_GetTick>
 80066c4:	4602      	mov	r2, r0
 80066c6:	68bb      	ldr	r3, [r7, #8]
 80066c8:	1ad3      	subs	r3, r2, r3
 80066ca:	68fa      	ldr	r2, [r7, #12]
 80066cc:	429a      	cmp	r2, r3
 80066ce:	d8f7      	bhi.n	80066c0 <HAL_Delay+0x28>
  {
  }
}
 80066d0:	bf00      	nop
 80066d2:	bf00      	nop
 80066d4:	3710      	adds	r7, #16
 80066d6:	46bd      	mov	sp, r7
 80066d8:	bd80      	pop	{r7, pc}
 80066da:	bf00      	nop
 80066dc:	20000044 	.word	0x20000044

080066e0 <__NVIC_SetPriorityGrouping>:
           In case of a conflict between priority grouping and available
           priority bits (__NVIC_PRIO_BITS), the smallest possible priority group is set.
  \param [in]      PriorityGroup  Priority grouping field.
 */
__STATIC_INLINE void __NVIC_SetPriorityGrouping(uint32_t PriorityGroup)
{
 80066e0:	b480      	push	{r7}
 80066e2:	b085      	sub	sp, #20
 80066e4:	af00      	add	r7, sp, #0
 80066e6:	6078      	str	r0, [r7, #4]
  uint32_t reg_value;
  uint32_t PriorityGroupTmp = (PriorityGroup & (uint32_t)0x07UL);             /* only values 0..7 are used          */
 80066e8:	687b      	ldr	r3, [r7, #4]
 80066ea:	f003 0307 	and.w	r3, r3, #7
 80066ee:	60fb      	str	r3, [r7, #12]

  reg_value  =  SCB->AIRCR;                                                   /* read old register configuration    */
 80066f0:	4b0c      	ldr	r3, [pc, #48]	; (8006724 <__NVIC_SetPriorityGrouping+0x44>)
 80066f2:	68db      	ldr	r3, [r3, #12]
 80066f4:	60bb      	str	r3, [r7, #8]
  reg_value &= ~((uint32_t)(SCB_AIRCR_VECTKEY_Msk | SCB_AIRCR_PRIGROUP_Msk)); /* clear bits to change               */
 80066f6:	68ba      	ldr	r2, [r7, #8]
 80066f8:	f64f 03ff 	movw	r3, #63743	; 0xf8ff
 80066fc:	4013      	ands	r3, r2
 80066fe:	60bb      	str	r3, [r7, #8]
  reg_value  =  (reg_value                                   |
                ((uint32_t)0x5FAUL << SCB_AIRCR_VECTKEY_Pos) |
                (PriorityGroupTmp << SCB_AIRCR_PRIGROUP_Pos) );               /* Insert write key and priority group */
 8006700:	68fb      	ldr	r3, [r7, #12]
 8006702:	021a      	lsls	r2, r3, #8
                ((uint32_t)0x5FAUL << SCB_AIRCR_VECTKEY_Pos) |
 8006704:	68bb      	ldr	r3, [r7, #8]
 8006706:	4313      	orrs	r3, r2
  reg_value  =  (reg_value                                   |
 8006708:	f043 63bf 	orr.w	r3, r3, #100139008	; 0x5f80000
 800670c:	f443 3300 	orr.w	r3, r3, #131072	; 0x20000
 8006710:	60bb      	str	r3, [r7, #8]
  SCB->AIRCR =  reg_value;
 8006712:	4a04      	ldr	r2, [pc, #16]	; (8006724 <__NVIC_SetPriorityGrouping+0x44>)
 8006714:	68bb      	ldr	r3, [r7, #8]
 8006716:	60d3      	str	r3, [r2, #12]
}
 8006718:	bf00      	nop
 800671a:	3714      	adds	r7, #20
 800671c:	46bd      	mov	sp, r7
 800671e:	bc80      	pop	{r7}
 8006720:	4770      	bx	lr
 8006722:	bf00      	nop
 8006724:	e000ed00 	.word	0xe000ed00

08006728 <__NVIC_GetPriorityGrouping>:
  \brief   Get Priority Grouping
  \details Reads the priority grouping field from the NVIC Interrupt Controller.
  \return                Priority grouping field (SCB->AIRCR [10:8] PRIGROUP field).
 */
__STATIC_INLINE uint32_t __NVIC_GetPriorityGrouping(void)
{
 8006728:	b480      	push	{r7}
 800672a:	af00      	add	r7, sp, #0
  return ((uint32_t)((SCB->AIRCR & SCB_AIRCR_PRIGROUP_Msk) >> SCB_AIRCR_PRIGROUP_Pos));
 800672c:	4b04      	ldr	r3, [pc, #16]	; (8006740 <__NVIC_GetPriorityGrouping+0x18>)
 800672e:	68db      	ldr	r3, [r3, #12]
 8006730:	0a1b      	lsrs	r3, r3, #8
 8006732:	f003 0307 	and.w	r3, r3, #7
}
 8006736:	4618      	mov	r0, r3
 8006738:	46bd      	mov	sp, r7
 800673a:	bc80      	pop	{r7}
 800673c:	4770      	bx	lr
 800673e:	bf00      	nop
 8006740:	e000ed00 	.word	0xe000ed00

08006744 <__NVIC_EnableIRQ>:
  \details Enables a device specific interrupt in the NVIC interrupt controller.
  \param [in]      IRQn  Device specific interrupt number.
  \note    IRQn must not be negative.
 */
__STATIC_INLINE void __NVIC_EnableIRQ(IRQn_Type IRQn)
{
 8006744:	b480      	push	{r7}
 8006746:	b083      	sub	sp, #12
 8006748:	af00      	add	r7, sp, #0
 800674a:	4603      	mov	r3, r0
 800674c:	71fb      	strb	r3, [r7, #7]
  if ((int32_t)(IRQn) >= 0)
 800674e:	f997 3007 	ldrsb.w	r3, [r7, #7]
 8006752:	2b00      	cmp	r3, #0
 8006754:	db0b      	blt.n	800676e <__NVIC_EnableIRQ+0x2a>
  {
    NVIC->ISER[(((uint32_t)IRQn) >> 5UL)] = (uint32_t)(1UL << (((uint32_t)IRQn) & 0x1FUL));
 8006756:	79fb      	ldrb	r3, [r7, #7]
 8006758:	f003 021f 	and.w	r2, r3, #31
 800675c:	4906      	ldr	r1, [pc, #24]	; (8006778 <__NVIC_EnableIRQ+0x34>)
 800675e:	f997 3007 	ldrsb.w	r3, [r7, #7]
 8006762:	095b      	lsrs	r3, r3, #5
 8006764:	2001      	movs	r0, #1
 8006766:	fa00 f202 	lsl.w	r2, r0, r2
 800676a:	f841 2023 	str.w	r2, [r1, r3, lsl #2]
  }
}
 800676e:	bf00      	nop
 8006770:	370c      	adds	r7, #12
 8006772:	46bd      	mov	sp, r7
 8006774:	bc80      	pop	{r7}
 8006776:	4770      	bx	lr
 8006778:	e000e100 	.word	0xe000e100

0800677c <__NVIC_SetPriority>:
  \param [in]      IRQn  Interrupt number.
  \param [in]  priority  Priority to set.
  \note    The priority cannot be set for every processor exception.
 */
__STATIC_INLINE void __NVIC_SetPriority(IRQn_Type IRQn, uint32_t priority)
{
 800677c:	b480      	push	{r7}
 800677e:	b083      	sub	sp, #12
 8006780:	af00      	add	r7, sp, #0
 8006782:	4603      	mov	r3, r0
 8006784:	6039      	str	r1, [r7, #0]
 8006786:	71fb      	strb	r3, [r7, #7]
  if ((int32_t)(IRQn) >= 0)
 8006788:	f997 3007 	ldrsb.w	r3, [r7, #7]
 800678c:	2b00      	cmp	r3, #0
 800678e:	db0a      	blt.n	80067a6 <__NVIC_SetPriority+0x2a>
  {
    NVIC->IP[((uint32_t)IRQn)]               = (uint8_t)((priority << (8U - __NVIC_PRIO_BITS)) & (uint32_t)0xFFUL);
 8006790:	683b      	ldr	r3, [r7, #0]
 8006792:	b2da      	uxtb	r2, r3
 8006794:	490c      	ldr	r1, [pc, #48]	; (80067c8 <__NVIC_SetPriority+0x4c>)
 8006796:	f997 3007 	ldrsb.w	r3, [r7, #7]
 800679a:	0112      	lsls	r2, r2, #4
 800679c:	b2d2      	uxtb	r2, r2
 800679e:	440b      	add	r3, r1
 80067a0:	f883 2300 	strb.w	r2, [r3, #768]	; 0x300
  }
  else
  {
    SCB->SHP[(((uint32_t)IRQn) & 0xFUL)-4UL] = (uint8_t)((priority << (8U - __NVIC_PRIO_BITS)) & (uint32_t)0xFFUL);
  }
}
 80067a4:	e00a      	b.n	80067bc <__NVIC_SetPriority+0x40>
    SCB->SHP[(((uint32_t)IRQn) & 0xFUL)-4UL] = (uint8_t)((priority << (8U - __NVIC_PRIO_BITS)) & (uint32_t)0xFFUL);
 80067a6:	683b      	ldr	r3, [r7, #0]
 80067a8:	b2da      	uxtb	r2, r3
 80067aa:	4908      	ldr	r1, [pc, #32]	; (80067cc <__NVIC_SetPriority+0x50>)
 80067ac:	79fb      	ldrb	r3, [r7, #7]
 80067ae:	f003 030f 	and.w	r3, r3, #15
 80067b2:	3b04      	subs	r3, #4
 80067b4:	0112      	lsls	r2, r2, #4
 80067b6:	b2d2      	uxtb	r2, r2
 80067b8:	440b      	add	r3, r1
 80067ba:	761a      	strb	r2, [r3, #24]
}
 80067bc:	bf00      	nop
 80067be:	370c      	adds	r7, #12
 80067c0:	46bd      	mov	sp, r7
 80067c2:	bc80      	pop	{r7}
 80067c4:	4770      	bx	lr
 80067c6:	bf00      	nop
 80067c8:	e000e100 	.word	0xe000e100
 80067cc:	e000ed00 	.word	0xe000ed00

080067d0 <NVIC_EncodePriority>:
  \param [in]   PreemptPriority  Preemptive priority value (starting from 0).
  \param [in]       SubPriority  Subpriority value (starting from 0).
  \return                        Encoded priority. Value can be used in the function \ref NVIC_SetPriority().
 */
__STATIC_INLINE uint32_t NVIC_EncodePriority (uint32_t PriorityGroup, uint32_t PreemptPriority, uint32_t SubPriority)
{
 80067d0:	b480      	push	{r7}
 80067d2:	b089      	sub	sp, #36	; 0x24
 80067d4:	af00      	add	r7, sp, #0
 80067d6:	60f8      	str	r0, [r7, #12]
 80067d8:	60b9      	str	r1, [r7, #8]
 80067da:	607a      	str	r2, [r7, #4]
  uint32_t PriorityGroupTmp = (PriorityGroup & (uint32_t)0x07UL);   /* only values 0..7 are used          */
 80067dc:	68fb      	ldr	r3, [r7, #12]
 80067de:	f003 0307 	and.w	r3, r3, #7
 80067e2:	61fb      	str	r3, [r7, #28]
  uint32_t PreemptPriorityBits;
  uint32_t SubPriorityBits;

  PreemptPriorityBits = ((7UL - PriorityGroupTmp) > (uint32_t)(__NVIC_PRIO_BITS)) ? (uint32_t)(__NVIC_PRIO_BITS) : (uint32_t)(7UL - PriorityGroupTmp);
 80067e4:	69fb      	ldr	r3, [r7, #28]
 80067e6:	f1c3 0307 	rsb	r3, r3, #7
 80067ea:	2b04      	cmp	r3, #4
 80067ec:	bf28      	it	cs
 80067ee:	2304      	movcs	r3, #4
 80067f0:	61bb      	str	r3, [r7, #24]
  SubPriorityBits     = ((PriorityGroupTmp + (uint32_t)(__NVIC_PRIO_BITS)) < (uint32_t)7UL) ? (uint32_t)0UL : (uint32_t)((PriorityGroupTmp - 7UL) + (uint32_t)(__NVIC_PRIO_BITS));
 80067f2:	69fb      	ldr	r3, [r7, #28]
 80067f4:	3304      	adds	r3, #4
 80067f6:	2b06      	cmp	r3, #6
 80067f8:	d902      	bls.n	8006800 <NVIC_EncodePriority+0x30>
 80067fa:	69fb      	ldr	r3, [r7, #28]
 80067fc:	3b03      	subs	r3, #3
 80067fe:	e000      	b.n	8006802 <NVIC_EncodePriority+0x32>
 8006800:	2300      	movs	r3, #0
 8006802:	617b      	str	r3, [r7, #20]

  return (
           ((PreemptPriority & (uint32_t)((1UL << (PreemptPriorityBits)) - 1UL)) << SubPriorityBits) |
 8006804:	f04f 32ff 	mov.w	r2, #4294967295
 8006808:	69bb      	ldr	r3, [r7, #24]
 800680a:	fa02 f303 	lsl.w	r3, r2, r3
 800680e:	43da      	mvns	r2, r3
 8006810:	68bb      	ldr	r3, [r7, #8]
 8006812:	401a      	ands	r2, r3
 8006814:	697b      	ldr	r3, [r7, #20]
 8006816:	409a      	lsls	r2, r3
           ((SubPriority     & (uint32_t)((1UL << (SubPriorityBits    )) - 1UL)))
 8006818:	f04f 31ff 	mov.w	r1, #4294967295
 800681c:	697b      	ldr	r3, [r7, #20]
 800681e:	fa01 f303 	lsl.w	r3, r1, r3
 8006822:	43d9      	mvns	r1, r3
 8006824:	687b      	ldr	r3, [r7, #4]
 8006826:	400b      	ands	r3, r1
           ((PreemptPriority & (uint32_t)((1UL << (PreemptPriorityBits)) - 1UL)) << SubPriorityBits) |
 8006828:	4313      	orrs	r3, r2
         );
}
 800682a:	4618      	mov	r0, r3
 800682c:	3724      	adds	r7, #36	; 0x24
 800682e:	46bd      	mov	sp, r7
 8006830:	bc80      	pop	{r7}
 8006832:	4770      	bx	lr

08006834 <SysTick_Config>:
  \note    When the variable <b>__Vendor_SysTickConfig</b> is set to 1, then the
           function <b>SysTick_Config</b> is not included. In this case, the file <b><i>device</i>.h</b>
           must contain a vendor-specific implementation of this function.
 */
__STATIC_INLINE uint32_t SysTick_Config(uint32_t ticks)
{
 8006834:	b580      	push	{r7, lr}
 8006836:	b082      	sub	sp, #8
 8006838:	af00      	add	r7, sp, #0
 800683a:	6078      	str	r0, [r7, #4]
  if ((ticks - 1UL) > SysTick_LOAD_RELOAD_Msk)
 800683c:	687b      	ldr	r3, [r7, #4]
 800683e:	3b01      	subs	r3, #1
 8006840:	f1b3 7f80 	cmp.w	r3, #16777216	; 0x1000000
 8006844:	d301      	bcc.n	800684a <SysTick_Config+0x16>
  {
    return (1UL);                                                   /* Reload value impossible */
 8006846:	2301      	movs	r3, #1
 8006848:	e00f      	b.n	800686a <SysTick_Config+0x36>
  }

  SysTick->LOAD  = (uint32_t)(ticks - 1UL);                         /* set reload register */
 800684a:	4a0a      	ldr	r2, [pc, #40]	; (8006874 <SysTick_Config+0x40>)
 800684c:	687b      	ldr	r3, [r7, #4]
 800684e:	3b01      	subs	r3, #1
 8006850:	6053      	str	r3, [r2, #4]
  NVIC_SetPriority (SysTick_IRQn, (1UL << __NVIC_PRIO_BITS) - 1UL); /* set Priority for Systick Interrupt */
 8006852:	210f      	movs	r1, #15
 8006854:	f04f 30ff 	mov.w	r0, #4294967295
 8006858:	f7ff ff90 	bl	800677c <__NVIC_SetPriority>
  SysTick->VAL   = 0UL;                                             /* Load the SysTick Counter Value */
 800685c:	4b05      	ldr	r3, [pc, #20]	; (8006874 <SysTick_Config+0x40>)
 800685e:	2200      	movs	r2, #0
 8006860:	609a      	str	r2, [r3, #8]
  SysTick->CTRL  = SysTick_CTRL_CLKSOURCE_Msk |
 8006862:	4b04      	ldr	r3, [pc, #16]	; (8006874 <SysTick_Config+0x40>)
 8006864:	2207      	movs	r2, #7
 8006866:	601a      	str	r2, [r3, #0]
                   SysTick_CTRL_TICKINT_Msk   |
                   SysTick_CTRL_ENABLE_Msk;                         /* Enable SysTick IRQ and SysTick Timer */
  return (0UL);                                                     /* Function successful */
 8006868:	2300      	movs	r3, #0
}
 800686a:	4618      	mov	r0, r3
 800686c:	3708      	adds	r7, #8
 800686e:	46bd      	mov	sp, r7
 8006870:	bd80      	pop	{r7, pc}
 8006872:	bf00      	nop
 8006874:	e000e010 	.word	0xe000e010

08006878 <HAL_NVIC_SetPriorityGrouping>:
  * @note   When the NVIC_PriorityGroup_0 is selected, IRQ preemption is no more possible. 
  *         The pending IRQ priority will be managed only by the subpriority. 
  * @retval None
  */
void HAL_NVIC_SetPriorityGrouping(uint32_t PriorityGroup)
{
 8006878:	b580      	push	{r7, lr}
 800687a:	b082      	sub	sp, #8
 800687c:	af00      	add	r7, sp, #0
 800687e:	6078      	str	r0, [r7, #4]
  /* Check the parameters */
  assert_param(IS_NVIC_PRIORITY_GROUP(PriorityGroup));
  
  /* Set the PRIGROUP[10:8] bits according to the PriorityGroup parameter value */
  NVIC_SetPriorityGrouping(PriorityGroup);
 8006880:	6878      	ldr	r0, [r7, #4]
 8006882:	f7ff ff2d 	bl	80066e0 <__NVIC_SetPriorityGrouping>
}
 8006886:	bf00      	nop
 8006888:	3708      	adds	r7, #8
 800688a:	46bd      	mov	sp, r7
 800688c:	bd80      	pop	{r7, pc}

0800688e <HAL_NVIC_SetPriority>:
  *         This parameter can be a value between 0 and 15
  *         A lower priority value indicates a higher priority.          
  * @retval None
  */
void HAL_NVIC_SetPriority(IRQn_Type IRQn, uint32_t PreemptPriority, uint32_t SubPriority)
{ 
 800688e:	b580      	push	{r7, lr}
 8006890:	b086      	sub	sp, #24
 8006892:	af00      	add	r7, sp, #0
 8006894:	4603      	mov	r3, r0
 8006896:	60b9      	str	r1, [r7, #8]
 8006898:	607a      	str	r2, [r7, #4]
 800689a:	73fb      	strb	r3, [r7, #15]
  uint32_t prioritygroup = 0x00U;
 800689c:	2300      	movs	r3, #0
 800689e:	617b      	str	r3, [r7, #20]
  
  /* Check the parameters */
  assert_param(IS_NVIC_SUB_PRIORITY(SubPriority));
  assert_param(IS_NVIC_PREEMPTION_PRIORITY(PreemptPriority));
  
  prioritygroup = NVIC_GetPriorityGrouping();
 80068a0:	f7ff ff42 	bl	8006728 <__NVIC_GetPriorityGrouping>
 80068a4:	6178      	str	r0, [r7, #20]
  
  NVIC_SetPriority(IRQn, NVIC_EncodePriority(prioritygroup, PreemptPriority, SubPriority));
 80068a6:	687a      	ldr	r2, [r7, #4]
 80068a8:	68b9      	ldr	r1, [r7, #8]
 80068aa:	6978      	ldr	r0, [r7, #20]
 80068ac:	f7ff ff90 	bl	80067d0 <NVIC_EncodePriority>
 80068b0:	4602      	mov	r2, r0
 80068b2:	f997 300f 	ldrsb.w	r3, [r7, #15]
 80068b6:	4611      	mov	r1, r2
 80068b8:	4618      	mov	r0, r3
 80068ba:	f7ff ff5f 	bl	800677c <__NVIC_SetPriority>
}
 80068be:	bf00      	nop
 80068c0:	3718      	adds	r7, #24
 80068c2:	46bd      	mov	sp, r7
 80068c4:	bd80      	pop	{r7, pc}

080068c6 <HAL_NVIC_EnableIRQ>:
  *         This parameter can be an enumerator of IRQn_Type enumeration
  *         (For the complete STM32 Devices IRQ Channels list, please refer to the appropriate CMSIS device file (stm32f10xxx.h))
  * @retval None
  */
void HAL_NVIC_EnableIRQ(IRQn_Type IRQn)
{
 80068c6:	b580      	push	{r7, lr}
 80068c8:	b082      	sub	sp, #8
 80068ca:	af00      	add	r7, sp, #0
 80068cc:	4603      	mov	r3, r0
 80068ce:	71fb      	strb	r3, [r7, #7]
  /* Check the parameters */
  assert_param(IS_NVIC_DEVICE_IRQ(IRQn));

  /* Enable interrupt */
  NVIC_EnableIRQ(IRQn);
 80068d0:	f997 3007 	ldrsb.w	r3, [r7, #7]
 80068d4:	4618      	mov	r0, r3
 80068d6:	f7ff ff35 	bl	8006744 <__NVIC_EnableIRQ>
}
 80068da:	bf00      	nop
 80068dc:	3708      	adds	r7, #8
 80068de:	46bd      	mov	sp, r7
 80068e0:	bd80      	pop	{r7, pc}

080068e2 <HAL_SYSTICK_Config>:
  * @param  TicksNumb: Specifies the ticks Number of ticks between two interrupts.
  * @retval status:  - 0  Function succeeded.
  *                  - 1  Function failed.
  */
uint32_t HAL_SYSTICK_Config(uint32_t TicksNumb)
{
 80068e2:	b580      	push	{r7, lr}
 80068e4:	b082      	sub	sp, #8
 80068e6:	af00      	add	r7, sp, #0
 80068e8:	6078      	str	r0, [r7, #4]
   return SysTick_Config(TicksNumb);
 80068ea:	6878      	ldr	r0, [r7, #4]
 80068ec:	f7ff ffa2 	bl	8006834 <SysTick_Config>
 80068f0:	4603      	mov	r3, r0
}
 80068f2:	4618      	mov	r0, r3
 80068f4:	3708      	adds	r7, #8
 80068f6:	46bd      	mov	sp, r7
 80068f8:	bd80      	pop	{r7, pc}

080068fa <HAL_DMA_Abort>:
  * @param  hdma: pointer to a DMA_HandleTypeDef structure that contains
  *               the configuration information for the specified DMA Channel.
  * @retval HAL status
  */
HAL_StatusTypeDef HAL_DMA_Abort(DMA_HandleTypeDef *hdma)
{
 80068fa:	b480      	push	{r7}
 80068fc:	b085      	sub	sp, #20
 80068fe:	af00      	add	r7, sp, #0
 8006900:	6078      	str	r0, [r7, #4]
  HAL_StatusTypeDef status = HAL_OK;
 8006902:	2300      	movs	r3, #0
 8006904:	73fb      	strb	r3, [r7, #15]
  
  if(hdma->State != HAL_DMA_STATE_BUSY)
 8006906:	687b      	ldr	r3, [r7, #4]
 8006908:	f893 3021 	ldrb.w	r3, [r3, #33]	; 0x21
 800690c:	2b02      	cmp	r3, #2
 800690e:	d008      	beq.n	8006922 <HAL_DMA_Abort+0x28>
  {
    /* no transfer ongoing */
    hdma->ErrorCode = HAL_DMA_ERROR_NO_XFER;
 8006910:	687b      	ldr	r3, [r7, #4]
 8006912:	2204      	movs	r2, #4
 8006914:	639a      	str	r2, [r3, #56]	; 0x38
    
    /* Process Unlocked */
    __HAL_UNLOCK(hdma);
 8006916:	687b      	ldr	r3, [r7, #4]
 8006918:	2200      	movs	r2, #0
 800691a:	f883 2020 	strb.w	r2, [r3, #32]
    
    return HAL_ERROR;
 800691e:	2301      	movs	r3, #1
 8006920:	e020      	b.n	8006964 <HAL_DMA_Abort+0x6a>
  }
  else

  {
    /* Disable DMA IT */
    __HAL_DMA_DISABLE_IT(hdma, (DMA_IT_TC | DMA_IT_HT | DMA_IT_TE));
 8006922:	687b      	ldr	r3, [r7, #4]
 8006924:	681b      	ldr	r3, [r3, #0]
 8006926:	681a      	ldr	r2, [r3, #0]
 8006928:	687b      	ldr	r3, [r7, #4]
 800692a:	681b      	ldr	r3, [r3, #0]
 800692c:	f022 020e 	bic.w	r2, r2, #14
 8006930:	601a      	str	r2, [r3, #0]
      
    /* Disable the channel */
    __HAL_DMA_DISABLE(hdma);
 8006932:	687b      	ldr	r3, [r7, #4]
 8006934:	681b      	ldr	r3, [r3, #0]
 8006936:	681a      	ldr	r2, [r3, #0]
 8006938:	687b      	ldr	r3, [r7, #4]
 800693a:	681b      	ldr	r3, [r3, #0]
 800693c:	f022 0201 	bic.w	r2, r2, #1
 8006940:	601a      	str	r2, [r3, #0]
      
    /* Clear all flags */
    hdma->DmaBaseAddress->IFCR = (DMA_ISR_GIF1 << hdma->ChannelIndex);
 8006942:	687b      	ldr	r3, [r7, #4]
 8006944:	6c1a      	ldr	r2, [r3, #64]	; 0x40
 8006946:	687b      	ldr	r3, [r7, #4]
 8006948:	6bdb      	ldr	r3, [r3, #60]	; 0x3c
 800694a:	2101      	movs	r1, #1
 800694c:	fa01 f202 	lsl.w	r2, r1, r2
 8006950:	605a      	str	r2, [r3, #4]
  }
  /* Change the DMA state */
  hdma->State = HAL_DMA_STATE_READY;
 8006952:	687b      	ldr	r3, [r7, #4]
 8006954:	2201      	movs	r2, #1
 8006956:	f883 2021 	strb.w	r2, [r3, #33]	; 0x21

  /* Process Unlocked */
  __HAL_UNLOCK(hdma);      
 800695a:	687b      	ldr	r3, [r7, #4]
 800695c:	2200      	movs	r2, #0
 800695e:	f883 2020 	strb.w	r2, [r3, #32]
  
  return status; 
 8006962:	7bfb      	ldrb	r3, [r7, #15]
}
 8006964:	4618      	mov	r0, r3
 8006966:	3714      	adds	r7, #20
 8006968:	46bd      	mov	sp, r7
 800696a:	bc80      	pop	{r7}
 800696c:	4770      	bx	lr
	...

08006970 <HAL_DMA_Abort_IT>:
  * @param  hdma  : pointer to a DMA_HandleTypeDef structure that contains
  *                 the configuration information for the specified DMA Channel.
  * @retval HAL status
  */
HAL_StatusTypeDef HAL_DMA_Abort_IT(DMA_HandleTypeDef *hdma)
{  
 8006970:	b580      	push	{r7, lr}
 8006972:	b084      	sub	sp, #16
 8006974:	af00      	add	r7, sp, #0
 8006976:	6078      	str	r0, [r7, #4]
  HAL_StatusTypeDef status = HAL_OK;
 8006978:	2300      	movs	r3, #0
 800697a:	73fb      	strb	r3, [r7, #15]
  
  if(HAL_DMA_STATE_BUSY != hdma->State)
 800697c:	687b      	ldr	r3, [r7, #4]
 800697e:	f893 3021 	ldrb.w	r3, [r3, #33]	; 0x21
 8006982:	2b02      	cmp	r3, #2
 8006984:	d005      	beq.n	8006992 <HAL_DMA_Abort_IT+0x22>
  {
    /* no transfer ongoing */
    hdma->ErrorCode = HAL_DMA_ERROR_NO_XFER;
 8006986:	687b      	ldr	r3, [r7, #4]
 8006988:	2204      	movs	r2, #4
 800698a:	639a      	str	r2, [r3, #56]	; 0x38
        
    status = HAL_ERROR;
 800698c:	2301      	movs	r3, #1
 800698e:	73fb      	strb	r3, [r7, #15]
 8006990:	e051      	b.n	8006a36 <HAL_DMA_Abort_IT+0xc6>
  }
  else
  { 
    /* Disable DMA IT */
    __HAL_DMA_DISABLE_IT(hdma, (DMA_IT_TC | DMA_IT_HT | DMA_IT_TE));
 8006992:	687b      	ldr	r3, [r7, #4]
 8006994:	681b      	ldr	r3, [r3, #0]
 8006996:	681a      	ldr	r2, [r3, #0]
 8006998:	687b      	ldr	r3, [r7, #4]
 800699a:	681b      	ldr	r3, [r3, #0]
 800699c:	f022 020e 	bic.w	r2, r2, #14
 80069a0:	601a      	str	r2, [r3, #0]

    /* Disable the channel */
    __HAL_DMA_DISABLE(hdma);
 80069a2:	687b      	ldr	r3, [r7, #4]
 80069a4:	681b      	ldr	r3, [r3, #0]
 80069a6:	681a      	ldr	r2, [r3, #0]
 80069a8:	687b      	ldr	r3, [r7, #4]
 80069aa:	681b      	ldr	r3, [r3, #0]
 80069ac:	f022 0201 	bic.w	r2, r2, #1
 80069b0:	601a      	str	r2, [r3, #0]

    /* Clear all flags */
    __HAL_DMA_CLEAR_FLAG(hdma, __HAL_DMA_GET_GI_FLAG_INDEX(hdma));
 80069b2:	687b      	ldr	r3, [r7, #4]
 80069b4:	681b      	ldr	r3, [r3, #0]
 80069b6:	4a22      	ldr	r2, [pc, #136]	; (8006a40 <HAL_DMA_Abort_IT+0xd0>)
 80069b8:	4293      	cmp	r3, r2
 80069ba:	d029      	beq.n	8006a10 <HAL_DMA_Abort_IT+0xa0>
 80069bc:	687b      	ldr	r3, [r7, #4]
 80069be:	681b      	ldr	r3, [r3, #0]
 80069c0:	4a20      	ldr	r2, [pc, #128]	; (8006a44 <HAL_DMA_Abort_IT+0xd4>)
 80069c2:	4293      	cmp	r3, r2
 80069c4:	d022      	beq.n	8006a0c <HAL_DMA_Abort_IT+0x9c>
 80069c6:	687b      	ldr	r3, [r7, #4]
 80069c8:	681b      	ldr	r3, [r3, #0]
 80069ca:	4a1f      	ldr	r2, [pc, #124]	; (8006a48 <HAL_DMA_Abort_IT+0xd8>)
 80069cc:	4293      	cmp	r3, r2
 80069ce:	d01a      	beq.n	8006a06 <HAL_DMA_Abort_IT+0x96>
 80069d0:	687b      	ldr	r3, [r7, #4]
 80069d2:	681b      	ldr	r3, [r3, #0]
 80069d4:	4a1d      	ldr	r2, [pc, #116]	; (8006a4c <HAL_DMA_Abort_IT+0xdc>)
 80069d6:	4293      	cmp	r3, r2
 80069d8:	d012      	beq.n	8006a00 <HAL_DMA_Abort_IT+0x90>
 80069da:	687b      	ldr	r3, [r7, #4]
 80069dc:	681b      	ldr	r3, [r3, #0]
 80069de:	4a1c      	ldr	r2, [pc, #112]	; (8006a50 <HAL_DMA_Abort_IT+0xe0>)
 80069e0:	4293      	cmp	r3, r2
 80069e2:	d00a      	beq.n	80069fa <HAL_DMA_Abort_IT+0x8a>
 80069e4:	687b      	ldr	r3, [r7, #4]
 80069e6:	681b      	ldr	r3, [r3, #0]
 80069e8:	4a1a      	ldr	r2, [pc, #104]	; (8006a54 <HAL_DMA_Abort_IT+0xe4>)
 80069ea:	4293      	cmp	r3, r2
 80069ec:	d102      	bne.n	80069f4 <HAL_DMA_Abort_IT+0x84>
 80069ee:	f44f 1380 	mov.w	r3, #1048576	; 0x100000
 80069f2:	e00e      	b.n	8006a12 <HAL_DMA_Abort_IT+0xa2>
 80069f4:	f04f 7380 	mov.w	r3, #16777216	; 0x1000000
 80069f8:	e00b      	b.n	8006a12 <HAL_DMA_Abort_IT+0xa2>
 80069fa:	f44f 3380 	mov.w	r3, #65536	; 0x10000
 80069fe:	e008      	b.n	8006a12 <HAL_DMA_Abort_IT+0xa2>
 8006a00:	f44f 5380 	mov.w	r3, #4096	; 0x1000
 8006a04:	e005      	b.n	8006a12 <HAL_DMA_Abort_IT+0xa2>
 8006a06:	f44f 7380 	mov.w	r3, #256	; 0x100
 8006a0a:	e002      	b.n	8006a12 <HAL_DMA_Abort_IT+0xa2>
 8006a0c:	2310      	movs	r3, #16
 8006a0e:	e000      	b.n	8006a12 <HAL_DMA_Abort_IT+0xa2>
 8006a10:	2301      	movs	r3, #1
 8006a12:	4a11      	ldr	r2, [pc, #68]	; (8006a58 <HAL_DMA_Abort_IT+0xe8>)
 8006a14:	6053      	str	r3, [r2, #4]

    /* Change the DMA state */
    hdma->State = HAL_DMA_STATE_READY;
 8006a16:	687b      	ldr	r3, [r7, #4]
 8006a18:	2201      	movs	r2, #1
 8006a1a:	f883 2021 	strb.w	r2, [r3, #33]	; 0x21

    /* Process Unlocked */
    __HAL_UNLOCK(hdma);
 8006a1e:	687b      	ldr	r3, [r7, #4]
 8006a20:	2200      	movs	r2, #0
 8006a22:	f883 2020 	strb.w	r2, [r3, #32]

    /* Call User Abort callback */
    if(hdma->XferAbortCallback != NULL)
 8006a26:	687b      	ldr	r3, [r7, #4]
 8006a28:	6b5b      	ldr	r3, [r3, #52]	; 0x34
 8006a2a:	2b00      	cmp	r3, #0
 8006a2c:	d003      	beq.n	8006a36 <HAL_DMA_Abort_IT+0xc6>
    {
      hdma->XferAbortCallback(hdma);
 8006a2e:	687b      	ldr	r3, [r7, #4]
 8006a30:	6b5b      	ldr	r3, [r3, #52]	; 0x34
 8006a32:	6878      	ldr	r0, [r7, #4]
 8006a34:	4798      	blx	r3
    } 
  }
  return status;
 8006a36:	7bfb      	ldrb	r3, [r7, #15]
}
 8006a38:	4618      	mov	r0, r3
 8006a3a:	3710      	adds	r7, #16
 8006a3c:	46bd      	mov	sp, r7
 8006a3e:	bd80      	pop	{r7, pc}
 8006a40:	40020008 	.word	0x40020008
 8006a44:	4002001c 	.word	0x4002001c
 8006a48:	40020030 	.word	0x40020030
 8006a4c:	40020044 	.word	0x40020044
 8006a50:	40020058 	.word	0x40020058
 8006a54:	4002006c 	.word	0x4002006c
 8006a58:	40020000 	.word	0x40020000

08006a5c <HAL_GPIO_Init>:
  * @param  GPIO_Init: pointer to a GPIO_InitTypeDef structure that contains
  *         the configuration information for the specified GPIO peripheral.
  * @retval None
  */
void HAL_GPIO_Init(GPIO_TypeDef  *GPIOx, GPIO_InitTypeDef *GPIO_Init)
{
 8006a5c:	b480      	push	{r7}
 8006a5e:	b08b      	sub	sp, #44	; 0x2c
 8006a60:	af00      	add	r7, sp, #0
 8006a62:	6078      	str	r0, [r7, #4]
 8006a64:	6039      	str	r1, [r7, #0]
  uint32_t position = 0x00u;
 8006a66:	2300      	movs	r3, #0
 8006a68:	627b      	str	r3, [r7, #36]	; 0x24
  uint32_t ioposition;
  uint32_t iocurrent;
  uint32_t temp;
  uint32_t config = 0x00u;
 8006a6a:	2300      	movs	r3, #0
 8006a6c:	623b      	str	r3, [r7, #32]
  assert_param(IS_GPIO_ALL_INSTANCE(GPIOx));
  assert_param(IS_GPIO_PIN(GPIO_Init->Pin));
  assert_param(IS_GPIO_MODE(GPIO_Init->Mode));

  /* Configure the port pins */
  while (((GPIO_Init->Pin) >> position) != 0x00u)
 8006a6e:	e169      	b.n	8006d44 <HAL_GPIO_Init+0x2e8>
  {
    /* Get the IO position */
    ioposition = (0x01uL << position);
 8006a70:	2201      	movs	r2, #1
 8006a72:	6a7b      	ldr	r3, [r7, #36]	; 0x24
 8006a74:	fa02 f303 	lsl.w	r3, r2, r3
 8006a78:	61fb      	str	r3, [r7, #28]

    /* Get the current IO position */
    iocurrent = (uint32_t)(GPIO_Init->Pin) & ioposition;
 8006a7a:	683b      	ldr	r3, [r7, #0]
 8006a7c:	681b      	ldr	r3, [r3, #0]
 8006a7e:	69fa      	ldr	r2, [r7, #28]
 8006a80:	4013      	ands	r3, r2
 8006a82:	61bb      	str	r3, [r7, #24]

    if (iocurrent == ioposition)
 8006a84:	69ba      	ldr	r2, [r7, #24]
 8006a86:	69fb      	ldr	r3, [r7, #28]
 8006a88:	429a      	cmp	r2, r3
 8006a8a:	f040 8158 	bne.w	8006d3e <HAL_GPIO_Init+0x2e2>
    {
      /* Check the Alternate function parameters */
      assert_param(IS_GPIO_AF_INSTANCE(GPIOx));

      /* Based on the required mode, filling config variable with MODEy[1:0] and CNFy[3:2] corresponding bits */
      switch (GPIO_Init->Mode)
 8006a8e:	683b      	ldr	r3, [r7, #0]
 8006a90:	685b      	ldr	r3, [r3, #4]
 8006a92:	4a9a      	ldr	r2, [pc, #616]	; (8006cfc <HAL_GPIO_Init+0x2a0>)
 8006a94:	4293      	cmp	r3, r2
 8006a96:	d05e      	beq.n	8006b56 <HAL_GPIO_Init+0xfa>
 8006a98:	4a98      	ldr	r2, [pc, #608]	; (8006cfc <HAL_GPIO_Init+0x2a0>)
 8006a9a:	4293      	cmp	r3, r2
 8006a9c:	d875      	bhi.n	8006b8a <HAL_GPIO_Init+0x12e>
 8006a9e:	4a98      	ldr	r2, [pc, #608]	; (8006d00 <HAL_GPIO_Init+0x2a4>)
 8006aa0:	4293      	cmp	r3, r2
 8006aa2:	d058      	beq.n	8006b56 <HAL_GPIO_Init+0xfa>
 8006aa4:	4a96      	ldr	r2, [pc, #600]	; (8006d00 <HAL_GPIO_Init+0x2a4>)
 8006aa6:	4293      	cmp	r3, r2
 8006aa8:	d86f      	bhi.n	8006b8a <HAL_GPIO_Init+0x12e>
 8006aaa:	4a96      	ldr	r2, [pc, #600]	; (8006d04 <HAL_GPIO_Init+0x2a8>)
 8006aac:	4293      	cmp	r3, r2
 8006aae:	d052      	beq.n	8006b56 <HAL_GPIO_Init+0xfa>
 8006ab0:	4a94      	ldr	r2, [pc, #592]	; (8006d04 <HAL_GPIO_Init+0x2a8>)
 8006ab2:	4293      	cmp	r3, r2
 8006ab4:	d869      	bhi.n	8006b8a <HAL_GPIO_Init+0x12e>
 8006ab6:	4a94      	ldr	r2, [pc, #592]	; (8006d08 <HAL_GPIO_Init+0x2ac>)
 8006ab8:	4293      	cmp	r3, r2
 8006aba:	d04c      	beq.n	8006b56 <HAL_GPIO_Init+0xfa>
 8006abc:	4a92      	ldr	r2, [pc, #584]	; (8006d08 <HAL_GPIO_Init+0x2ac>)
 8006abe:	4293      	cmp	r3, r2
 8006ac0:	d863      	bhi.n	8006b8a <HAL_GPIO_Init+0x12e>
 8006ac2:	4a92      	ldr	r2, [pc, #584]	; (8006d0c <HAL_GPIO_Init+0x2b0>)
 8006ac4:	4293      	cmp	r3, r2
 8006ac6:	d046      	beq.n	8006b56 <HAL_GPIO_Init+0xfa>
 8006ac8:	4a90      	ldr	r2, [pc, #576]	; (8006d0c <HAL_GPIO_Init+0x2b0>)
 8006aca:	4293      	cmp	r3, r2
 8006acc:	d85d      	bhi.n	8006b8a <HAL_GPIO_Init+0x12e>
 8006ace:	2b12      	cmp	r3, #18
 8006ad0:	d82a      	bhi.n	8006b28 <HAL_GPIO_Init+0xcc>
 8006ad2:	2b12      	cmp	r3, #18
 8006ad4:	d859      	bhi.n	8006b8a <HAL_GPIO_Init+0x12e>
 8006ad6:	a201      	add	r2, pc, #4	; (adr r2, 8006adc <HAL_GPIO_Init+0x80>)
 8006ad8:	f852 f023 	ldr.w	pc, [r2, r3, lsl #2]
 8006adc:	08006b57 	.word	0x08006b57
 8006ae0:	08006b31 	.word	0x08006b31
 8006ae4:	08006b43 	.word	0x08006b43
 8006ae8:	08006b85 	.word	0x08006b85
 8006aec:	08006b8b 	.word	0x08006b8b
 8006af0:	08006b8b 	.word	0x08006b8b
 8006af4:	08006b8b 	.word	0x08006b8b
 8006af8:	08006b8b 	.word	0x08006b8b
 8006afc:	08006b8b 	.word	0x08006b8b
 8006b00:	08006b8b 	.word	0x08006b8b
 8006b04:	08006b8b 	.word	0x08006b8b
 8006b08:	08006b8b 	.word	0x08006b8b
 8006b0c:	08006b8b 	.word	0x08006b8b
 8006b10:	08006b8b 	.word	0x08006b8b
 8006b14:	08006b8b 	.word	0x08006b8b
 8006b18:	08006b8b 	.word	0x08006b8b
 8006b1c:	08006b8b 	.word	0x08006b8b
 8006b20:	08006b39 	.word	0x08006b39
 8006b24:	08006b4d 	.word	0x08006b4d
 8006b28:	4a79      	ldr	r2, [pc, #484]	; (8006d10 <HAL_GPIO_Init+0x2b4>)
 8006b2a:	4293      	cmp	r3, r2
 8006b2c:	d013      	beq.n	8006b56 <HAL_GPIO_Init+0xfa>
          config = GPIO_CR_MODE_INPUT + GPIO_CR_CNF_ANALOG;
          break;

        /* Parameters are checked with assert_param */
        default:
          break;
 8006b2e:	e02c      	b.n	8006b8a <HAL_GPIO_Init+0x12e>
          config = GPIO_Init->Speed + GPIO_CR_CNF_GP_OUTPUT_PP;
 8006b30:	683b      	ldr	r3, [r7, #0]
 8006b32:	68db      	ldr	r3, [r3, #12]
 8006b34:	623b      	str	r3, [r7, #32]
          break;
 8006b36:	e029      	b.n	8006b8c <HAL_GPIO_Init+0x130>
          config = GPIO_Init->Speed + GPIO_CR_CNF_GP_OUTPUT_OD;
 8006b38:	683b      	ldr	r3, [r7, #0]
 8006b3a:	68db      	ldr	r3, [r3, #12]
 8006b3c:	3304      	adds	r3, #4
 8006b3e:	623b      	str	r3, [r7, #32]
          break;
 8006b40:	e024      	b.n	8006b8c <HAL_GPIO_Init+0x130>
          config = GPIO_Init->Speed + GPIO_CR_CNF_AF_OUTPUT_PP;
 8006b42:	683b      	ldr	r3, [r7, #0]
 8006b44:	68db      	ldr	r3, [r3, #12]
 8006b46:	3308      	adds	r3, #8
 8006b48:	623b      	str	r3, [r7, #32]
          break;
 8006b4a:	e01f      	b.n	8006b8c <HAL_GPIO_Init+0x130>
          config = GPIO_Init->Speed + GPIO_CR_CNF_AF_OUTPUT_OD;
 8006b4c:	683b      	ldr	r3, [r7, #0]
 8006b4e:	68db      	ldr	r3, [r3, #12]
 8006b50:	330c      	adds	r3, #12
 8006b52:	623b      	str	r3, [r7, #32]
          break;
 8006b54:	e01a      	b.n	8006b8c <HAL_GPIO_Init+0x130>
          if (GPIO_Init->Pull == GPIO_NOPULL)
 8006b56:	683b      	ldr	r3, [r7, #0]
 8006b58:	689b      	ldr	r3, [r3, #8]
 8006b5a:	2b00      	cmp	r3, #0
 8006b5c:	d102      	bne.n	8006b64 <HAL_GPIO_Init+0x108>
            config = GPIO_CR_MODE_INPUT + GPIO_CR_CNF_INPUT_FLOATING;
 8006b5e:	2304      	movs	r3, #4
 8006b60:	623b      	str	r3, [r7, #32]
          break;
 8006b62:	e013      	b.n	8006b8c <HAL_GPIO_Init+0x130>
          else if (GPIO_Init->Pull == GPIO_PULLUP)
 8006b64:	683b      	ldr	r3, [r7, #0]
 8006b66:	689b      	ldr	r3, [r3, #8]
 8006b68:	2b01      	cmp	r3, #1
 8006b6a:	d105      	bne.n	8006b78 <HAL_GPIO_Init+0x11c>
            config = GPIO_CR_MODE_INPUT + GPIO_CR_CNF_INPUT_PU_PD;
 8006b6c:	2308      	movs	r3, #8
 8006b6e:	623b      	str	r3, [r7, #32]
            GPIOx->BSRR = ioposition;
 8006b70:	687b      	ldr	r3, [r7, #4]
 8006b72:	69fa      	ldr	r2, [r7, #28]
 8006b74:	611a      	str	r2, [r3, #16]
          break;
 8006b76:	e009      	b.n	8006b8c <HAL_GPIO_Init+0x130>
            config = GPIO_CR_MODE_INPUT + GPIO_CR_CNF_INPUT_PU_PD;
 8006b78:	2308      	movs	r3, #8
 8006b7a:	623b      	str	r3, [r7, #32]
            GPIOx->BRR = ioposition;
 8006b7c:	687b      	ldr	r3, [r7, #4]
 8006b7e:	69fa      	ldr	r2, [r7, #28]
 8006b80:	615a      	str	r2, [r3, #20]
          break;
 8006b82:	e003      	b.n	8006b8c <HAL_GPIO_Init+0x130>
          config = GPIO_CR_MODE_INPUT + GPIO_CR_CNF_ANALOG;
 8006b84:	2300      	movs	r3, #0
 8006b86:	623b      	str	r3, [r7, #32]
          break;
 8006b88:	e000      	b.n	8006b8c <HAL_GPIO_Init+0x130>
          break;
 8006b8a:	bf00      	nop
      }

      /* Check if the current bit belongs to first half or last half of the pin count number
       in order to address CRH or CRL register*/
      configregister = (iocurrent < GPIO_PIN_8) ? &GPIOx->CRL     : &GPIOx->CRH;
 8006b8c:	69bb      	ldr	r3, [r7, #24]
 8006b8e:	2bff      	cmp	r3, #255	; 0xff
 8006b90:	d801      	bhi.n	8006b96 <HAL_GPIO_Init+0x13a>
 8006b92:	687b      	ldr	r3, [r7, #4]
 8006b94:	e001      	b.n	8006b9a <HAL_GPIO_Init+0x13e>
 8006b96:	687b      	ldr	r3, [r7, #4]
 8006b98:	3304      	adds	r3, #4
 8006b9a:	617b      	str	r3, [r7, #20]
      registeroffset = (iocurrent < GPIO_PIN_8) ? (position << 2u) : ((position - 8u) << 2u);
 8006b9c:	69bb      	ldr	r3, [r7, #24]
 8006b9e:	2bff      	cmp	r3, #255	; 0xff
 8006ba0:	d802      	bhi.n	8006ba8 <HAL_GPIO_Init+0x14c>
 8006ba2:	6a7b      	ldr	r3, [r7, #36]	; 0x24
 8006ba4:	009b      	lsls	r3, r3, #2
 8006ba6:	e002      	b.n	8006bae <HAL_GPIO_Init+0x152>
 8006ba8:	6a7b      	ldr	r3, [r7, #36]	; 0x24
 8006baa:	3b08      	subs	r3, #8
 8006bac:	009b      	lsls	r3, r3, #2
 8006bae:	613b      	str	r3, [r7, #16]

      /* Apply the new configuration of the pin to the register */
      MODIFY_REG((*configregister), ((GPIO_CRL_MODE0 | GPIO_CRL_CNF0) << registeroffset), (config << registeroffset));
 8006bb0:	697b      	ldr	r3, [r7, #20]
 8006bb2:	681a      	ldr	r2, [r3, #0]
 8006bb4:	210f      	movs	r1, #15
 8006bb6:	693b      	ldr	r3, [r7, #16]
 8006bb8:	fa01 f303 	lsl.w	r3, r1, r3
 8006bbc:	43db      	mvns	r3, r3
 8006bbe:	401a      	ands	r2, r3
 8006bc0:	6a39      	ldr	r1, [r7, #32]
 8006bc2:	693b      	ldr	r3, [r7, #16]
 8006bc4:	fa01 f303 	lsl.w	r3, r1, r3
 8006bc8:	431a      	orrs	r2, r3
 8006bca:	697b      	ldr	r3, [r7, #20]
 8006bcc:	601a      	str	r2, [r3, #0]

      /*--------------------- EXTI Mode Configuration ------------------------*/
      /* Configure the External Interrupt or event for the current IO */
      if ((GPIO_Init->Mode & EXTI_MODE) == EXTI_MODE)
 8006bce:	683b      	ldr	r3, [r7, #0]
 8006bd0:	685b      	ldr	r3, [r3, #4]
 8006bd2:	f003 5380 	and.w	r3, r3, #268435456	; 0x10000000
 8006bd6:	2b00      	cmp	r3, #0
 8006bd8:	f000 80b1 	beq.w	8006d3e <HAL_GPIO_Init+0x2e2>
      {
        /* Enable AFIO Clock */
        __HAL_RCC_AFIO_CLK_ENABLE();
 8006bdc:	4b4d      	ldr	r3, [pc, #308]	; (8006d14 <HAL_GPIO_Init+0x2b8>)
 8006bde:	699b      	ldr	r3, [r3, #24]
 8006be0:	4a4c      	ldr	r2, [pc, #304]	; (8006d14 <HAL_GPIO_Init+0x2b8>)
 8006be2:	f043 0301 	orr.w	r3, r3, #1
 8006be6:	6193      	str	r3, [r2, #24]
 8006be8:	4b4a      	ldr	r3, [pc, #296]	; (8006d14 <HAL_GPIO_Init+0x2b8>)
 8006bea:	699b      	ldr	r3, [r3, #24]
 8006bec:	f003 0301 	and.w	r3, r3, #1
 8006bf0:	60bb      	str	r3, [r7, #8]
 8006bf2:	68bb      	ldr	r3, [r7, #8]
        temp = AFIO->EXTICR[position >> 2u];
 8006bf4:	4a48      	ldr	r2, [pc, #288]	; (8006d18 <HAL_GPIO_Init+0x2bc>)
 8006bf6:	6a7b      	ldr	r3, [r7, #36]	; 0x24
 8006bf8:	089b      	lsrs	r3, r3, #2
 8006bfa:	3302      	adds	r3, #2
 8006bfc:	f852 3023 	ldr.w	r3, [r2, r3, lsl #2]
 8006c00:	60fb      	str	r3, [r7, #12]
        CLEAR_BIT(temp, (0x0Fu) << (4u * (position & 0x03u)));
 8006c02:	6a7b      	ldr	r3, [r7, #36]	; 0x24
 8006c04:	f003 0303 	and.w	r3, r3, #3
 8006c08:	009b      	lsls	r3, r3, #2
 8006c0a:	220f      	movs	r2, #15
 8006c0c:	fa02 f303 	lsl.w	r3, r2, r3
 8006c10:	43db      	mvns	r3, r3
 8006c12:	68fa      	ldr	r2, [r7, #12]
 8006c14:	4013      	ands	r3, r2
 8006c16:	60fb      	str	r3, [r7, #12]
        SET_BIT(temp, (GPIO_GET_INDEX(GPIOx)) << (4u * (position & 0x03u)));
 8006c18:	687b      	ldr	r3, [r7, #4]
 8006c1a:	4a40      	ldr	r2, [pc, #256]	; (8006d1c <HAL_GPIO_Init+0x2c0>)
 8006c1c:	4293      	cmp	r3, r2
 8006c1e:	d013      	beq.n	8006c48 <HAL_GPIO_Init+0x1ec>
 8006c20:	687b      	ldr	r3, [r7, #4]
 8006c22:	4a3f      	ldr	r2, [pc, #252]	; (8006d20 <HAL_GPIO_Init+0x2c4>)
 8006c24:	4293      	cmp	r3, r2
 8006c26:	d00d      	beq.n	8006c44 <HAL_GPIO_Init+0x1e8>
 8006c28:	687b      	ldr	r3, [r7, #4]
 8006c2a:	4a3e      	ldr	r2, [pc, #248]	; (8006d24 <HAL_GPIO_Init+0x2c8>)
 8006c2c:	4293      	cmp	r3, r2
 8006c2e:	d007      	beq.n	8006c40 <HAL_GPIO_Init+0x1e4>
 8006c30:	687b      	ldr	r3, [r7, #4]
 8006c32:	4a3d      	ldr	r2, [pc, #244]	; (8006d28 <HAL_GPIO_Init+0x2cc>)
 8006c34:	4293      	cmp	r3, r2
 8006c36:	d101      	bne.n	8006c3c <HAL_GPIO_Init+0x1e0>
 8006c38:	2303      	movs	r3, #3
 8006c3a:	e006      	b.n	8006c4a <HAL_GPIO_Init+0x1ee>
 8006c3c:	2304      	movs	r3, #4
 8006c3e:	e004      	b.n	8006c4a <HAL_GPIO_Init+0x1ee>
 8006c40:	2302      	movs	r3, #2
 8006c42:	e002      	b.n	8006c4a <HAL_GPIO_Init+0x1ee>
 8006c44:	2301      	movs	r3, #1
 8006c46:	e000      	b.n	8006c4a <HAL_GPIO_Init+0x1ee>
 8006c48:	2300      	movs	r3, #0
 8006c4a:	6a7a      	ldr	r2, [r7, #36]	; 0x24
 8006c4c:	f002 0203 	and.w	r2, r2, #3
 8006c50:	0092      	lsls	r2, r2, #2
 8006c52:	4093      	lsls	r3, r2
 8006c54:	68fa      	ldr	r2, [r7, #12]
 8006c56:	4313      	orrs	r3, r2
 8006c58:	60fb      	str	r3, [r7, #12]
        AFIO->EXTICR[position >> 2u] = temp;
 8006c5a:	492f      	ldr	r1, [pc, #188]	; (8006d18 <HAL_GPIO_Init+0x2bc>)
 8006c5c:	6a7b      	ldr	r3, [r7, #36]	; 0x24
 8006c5e:	089b      	lsrs	r3, r3, #2
 8006c60:	3302      	adds	r3, #2
 8006c62:	68fa      	ldr	r2, [r7, #12]
 8006c64:	f841 2023 	str.w	r2, [r1, r3, lsl #2]


        /* Configure the interrupt mask */
        if ((GPIO_Init->Mode & GPIO_MODE_IT) == GPIO_MODE_IT)
 8006c68:	683b      	ldr	r3, [r7, #0]
 8006c6a:	685b      	ldr	r3, [r3, #4]
 8006c6c:	f403 3380 	and.w	r3, r3, #65536	; 0x10000
 8006c70:	2b00      	cmp	r3, #0
 8006c72:	d006      	beq.n	8006c82 <HAL_GPIO_Init+0x226>
        {
          SET_BIT(EXTI->IMR, iocurrent);
 8006c74:	4b2d      	ldr	r3, [pc, #180]	; (8006d2c <HAL_GPIO_Init+0x2d0>)
 8006c76:	681a      	ldr	r2, [r3, #0]
 8006c78:	492c      	ldr	r1, [pc, #176]	; (8006d2c <HAL_GPIO_Init+0x2d0>)
 8006c7a:	69bb      	ldr	r3, [r7, #24]
 8006c7c:	4313      	orrs	r3, r2
 8006c7e:	600b      	str	r3, [r1, #0]
 8006c80:	e006      	b.n	8006c90 <HAL_GPIO_Init+0x234>
        }
        else
        {
          CLEAR_BIT(EXTI->IMR, iocurrent);
 8006c82:	4b2a      	ldr	r3, [pc, #168]	; (8006d2c <HAL_GPIO_Init+0x2d0>)
 8006c84:	681a      	ldr	r2, [r3, #0]
 8006c86:	69bb      	ldr	r3, [r7, #24]
 8006c88:	43db      	mvns	r3, r3
 8006c8a:	4928      	ldr	r1, [pc, #160]	; (8006d2c <HAL_GPIO_Init+0x2d0>)
 8006c8c:	4013      	ands	r3, r2
 8006c8e:	600b      	str	r3, [r1, #0]
        }

        /* Configure the event mask */
        if ((GPIO_Init->Mode & GPIO_MODE_EVT) == GPIO_MODE_EVT)
 8006c90:	683b      	ldr	r3, [r7, #0]
 8006c92:	685b      	ldr	r3, [r3, #4]
 8006c94:	f403 3300 	and.w	r3, r3, #131072	; 0x20000
 8006c98:	2b00      	cmp	r3, #0
 8006c9a:	d006      	beq.n	8006caa <HAL_GPIO_Init+0x24e>
        {
          SET_BIT(EXTI->EMR, iocurrent);
 8006c9c:	4b23      	ldr	r3, [pc, #140]	; (8006d2c <HAL_GPIO_Init+0x2d0>)
 8006c9e:	685a      	ldr	r2, [r3, #4]
 8006ca0:	4922      	ldr	r1, [pc, #136]	; (8006d2c <HAL_GPIO_Init+0x2d0>)
 8006ca2:	69bb      	ldr	r3, [r7, #24]
 8006ca4:	4313      	orrs	r3, r2
 8006ca6:	604b      	str	r3, [r1, #4]
 8006ca8:	e006      	b.n	8006cb8 <HAL_GPIO_Init+0x25c>
        }
        else
        {
          CLEAR_BIT(EXTI->EMR, iocurrent);
 8006caa:	4b20      	ldr	r3, [pc, #128]	; (8006d2c <HAL_GPIO_Init+0x2d0>)
 8006cac:	685a      	ldr	r2, [r3, #4]
 8006cae:	69bb      	ldr	r3, [r7, #24]
 8006cb0:	43db      	mvns	r3, r3
 8006cb2:	491e      	ldr	r1, [pc, #120]	; (8006d2c <HAL_GPIO_Init+0x2d0>)
 8006cb4:	4013      	ands	r3, r2
 8006cb6:	604b      	str	r3, [r1, #4]
        }

        /* Enable or disable the rising trigger */
        if ((GPIO_Init->Mode & RISING_EDGE) == RISING_EDGE)
 8006cb8:	683b      	ldr	r3, [r7, #0]
 8006cba:	685b      	ldr	r3, [r3, #4]
 8006cbc:	f403 1380 	and.w	r3, r3, #1048576	; 0x100000
 8006cc0:	2b00      	cmp	r3, #0
 8006cc2:	d006      	beq.n	8006cd2 <HAL_GPIO_Init+0x276>
        {
          SET_BIT(EXTI->RTSR, iocurrent);
 8006cc4:	4b19      	ldr	r3, [pc, #100]	; (8006d2c <HAL_GPIO_Init+0x2d0>)
 8006cc6:	689a      	ldr	r2, [r3, #8]
 8006cc8:	4918      	ldr	r1, [pc, #96]	; (8006d2c <HAL_GPIO_Init+0x2d0>)
 8006cca:	69bb      	ldr	r3, [r7, #24]
 8006ccc:	4313      	orrs	r3, r2
 8006cce:	608b      	str	r3, [r1, #8]
 8006cd0:	e006      	b.n	8006ce0 <HAL_GPIO_Init+0x284>
        }
        else
        {
          CLEAR_BIT(EXTI->RTSR, iocurrent);
 8006cd2:	4b16      	ldr	r3, [pc, #88]	; (8006d2c <HAL_GPIO_Init+0x2d0>)
 8006cd4:	689a      	ldr	r2, [r3, #8]
 8006cd6:	69bb      	ldr	r3, [r7, #24]
 8006cd8:	43db      	mvns	r3, r3
 8006cda:	4914      	ldr	r1, [pc, #80]	; (8006d2c <HAL_GPIO_Init+0x2d0>)
 8006cdc:	4013      	ands	r3, r2
 8006cde:	608b      	str	r3, [r1, #8]
        }

        /* Enable or disable the falling trigger */
        if ((GPIO_Init->Mode & FALLING_EDGE) == FALLING_EDGE)
 8006ce0:	683b      	ldr	r3, [r7, #0]
 8006ce2:	685b      	ldr	r3, [r3, #4]
 8006ce4:	f403 1300 	and.w	r3, r3, #2097152	; 0x200000
 8006ce8:	2b00      	cmp	r3, #0
 8006cea:	d021      	beq.n	8006d30 <HAL_GPIO_Init+0x2d4>
        {
          SET_BIT(EXTI->FTSR, iocurrent);
 8006cec:	4b0f      	ldr	r3, [pc, #60]	; (8006d2c <HAL_GPIO_Init+0x2d0>)
 8006cee:	68da      	ldr	r2, [r3, #12]
 8006cf0:	490e      	ldr	r1, [pc, #56]	; (8006d2c <HAL_GPIO_Init+0x2d0>)
 8006cf2:	69bb      	ldr	r3, [r7, #24]
 8006cf4:	4313      	orrs	r3, r2
 8006cf6:	60cb      	str	r3, [r1, #12]
 8006cf8:	e021      	b.n	8006d3e <HAL_GPIO_Init+0x2e2>
 8006cfa:	bf00      	nop
 8006cfc:	10320000 	.word	0x10320000
 8006d00:	10310000 	.word	0x10310000
 8006d04:	10220000 	.word	0x10220000
 8006d08:	10210000 	.word	0x10210000
 8006d0c:	10120000 	.word	0x10120000
 8006d10:	10110000 	.word	0x10110000
 8006d14:	40021000 	.word	0x40021000
 8006d18:	40010000 	.word	0x40010000
 8006d1c:	40010800 	.word	0x40010800
 8006d20:	40010c00 	.word	0x40010c00
 8006d24:	40011000 	.word	0x40011000
 8006d28:	40011400 	.word	0x40011400
 8006d2c:	40010400 	.word	0x40010400
        }
        else
        {
          CLEAR_BIT(EXTI->FTSR, iocurrent);
 8006d30:	4b0b      	ldr	r3, [pc, #44]	; (8006d60 <HAL_GPIO_Init+0x304>)
 8006d32:	68da      	ldr	r2, [r3, #12]
 8006d34:	69bb      	ldr	r3, [r7, #24]
 8006d36:	43db      	mvns	r3, r3
 8006d38:	4909      	ldr	r1, [pc, #36]	; (8006d60 <HAL_GPIO_Init+0x304>)
 8006d3a:	4013      	ands	r3, r2
 8006d3c:	60cb      	str	r3, [r1, #12]
        }
      }
    }

	position++;
 8006d3e:	6a7b      	ldr	r3, [r7, #36]	; 0x24
 8006d40:	3301      	adds	r3, #1
 8006d42:	627b      	str	r3, [r7, #36]	; 0x24
  while (((GPIO_Init->Pin) >> position) != 0x00u)
 8006d44:	683b      	ldr	r3, [r7, #0]
 8006d46:	681a      	ldr	r2, [r3, #0]
 8006d48:	6a7b      	ldr	r3, [r7, #36]	; 0x24
 8006d4a:	fa22 f303 	lsr.w	r3, r2, r3
 8006d4e:	2b00      	cmp	r3, #0
 8006d50:	f47f ae8e 	bne.w	8006a70 <HAL_GPIO_Init+0x14>
  }
}
 8006d54:	bf00      	nop
 8006d56:	bf00      	nop
 8006d58:	372c      	adds	r7, #44	; 0x2c
 8006d5a:	46bd      	mov	sp, r7
 8006d5c:	bc80      	pop	{r7}
 8006d5e:	4770      	bx	lr
 8006d60:	40010400 	.word	0x40010400

08006d64 <HAL_GPIO_ReadPin>:
  * @param  GPIO_Pin: specifies the port bit to read.
  *         This parameter can be GPIO_PIN_x where x can be (0..15).
  * @retval The input port pin value.
  */
GPIO_PinState HAL_GPIO_ReadPin(GPIO_TypeDef *GPIOx, uint16_t GPIO_Pin)
{
 8006d64:	b480      	push	{r7}
 8006d66:	b085      	sub	sp, #20
 8006d68:	af00      	add	r7, sp, #0
 8006d6a:	6078      	str	r0, [r7, #4]
 8006d6c:	460b      	mov	r3, r1
 8006d6e:	807b      	strh	r3, [r7, #2]
  GPIO_PinState bitstatus;

  /* Check the parameters */
  assert_param(IS_GPIO_PIN(GPIO_Pin));

  if ((GPIOx->IDR & GPIO_Pin) != (uint32_t)GPIO_PIN_RESET)
 8006d70:	687b      	ldr	r3, [r7, #4]
 8006d72:	689a      	ldr	r2, [r3, #8]
 8006d74:	887b      	ldrh	r3, [r7, #2]
 8006d76:	4013      	ands	r3, r2
 8006d78:	2b00      	cmp	r3, #0
 8006d7a:	d002      	beq.n	8006d82 <HAL_GPIO_ReadPin+0x1e>
  {
    bitstatus = GPIO_PIN_SET;
 8006d7c:	2301      	movs	r3, #1
 8006d7e:	73fb      	strb	r3, [r7, #15]
 8006d80:	e001      	b.n	8006d86 <HAL_GPIO_ReadPin+0x22>
  }
  else
  {
    bitstatus = GPIO_PIN_RESET;
 8006d82:	2300      	movs	r3, #0
 8006d84:	73fb      	strb	r3, [r7, #15]
  }
  return bitstatus;
 8006d86:	7bfb      	ldrb	r3, [r7, #15]
}
 8006d88:	4618      	mov	r0, r3
 8006d8a:	3714      	adds	r7, #20
 8006d8c:	46bd      	mov	sp, r7
 8006d8e:	bc80      	pop	{r7}
 8006d90:	4770      	bx	lr

08006d92 <HAL_GPIO_WritePin>:
  *            @arg GPIO_PIN_RESET: to clear the port pin
  *            @arg GPIO_PIN_SET: to set the port pin
  * @retval None
  */
void HAL_GPIO_WritePin(GPIO_TypeDef *GPIOx, uint16_t GPIO_Pin, GPIO_PinState PinState)
{
 8006d92:	b480      	push	{r7}
 8006d94:	b083      	sub	sp, #12
 8006d96:	af00      	add	r7, sp, #0
 8006d98:	6078      	str	r0, [r7, #4]
 8006d9a:	460b      	mov	r3, r1
 8006d9c:	807b      	strh	r3, [r7, #2]
 8006d9e:	4613      	mov	r3, r2
 8006da0:	707b      	strb	r3, [r7, #1]
  /* Check the parameters */
  assert_param(IS_GPIO_PIN(GPIO_Pin));
  assert_param(IS_GPIO_PIN_ACTION(PinState));

  if (PinState != GPIO_PIN_RESET)
 8006da2:	787b      	ldrb	r3, [r7, #1]
 8006da4:	2b00      	cmp	r3, #0
 8006da6:	d003      	beq.n	8006db0 <HAL_GPIO_WritePin+0x1e>
  {
    GPIOx->BSRR = GPIO_Pin;
 8006da8:	887a      	ldrh	r2, [r7, #2]
 8006daa:	687b      	ldr	r3, [r7, #4]
 8006dac:	611a      	str	r2, [r3, #16]
  }
  else
  {
    GPIOx->BSRR = (uint32_t)GPIO_Pin << 16u;
  }
}
 8006dae:	e003      	b.n	8006db8 <HAL_GPIO_WritePin+0x26>
    GPIOx->BSRR = (uint32_t)GPIO_Pin << 16u;
 8006db0:	887b      	ldrh	r3, [r7, #2]
 8006db2:	041a      	lsls	r2, r3, #16
 8006db4:	687b      	ldr	r3, [r7, #4]
 8006db6:	611a      	str	r2, [r3, #16]
}
 8006db8:	bf00      	nop
 8006dba:	370c      	adds	r7, #12
 8006dbc:	46bd      	mov	sp, r7
 8006dbe:	bc80      	pop	{r7}
 8006dc0:	4770      	bx	lr

08006dc2 <HAL_GPIO_TogglePin>:
  * @param  GPIOx: where x can be (A..G depending on device used) to select the GPIO peripheral
  * @param  GPIO_Pin: Specifies the pins to be toggled.
  * @retval None
  */
void HAL_GPIO_TogglePin(GPIO_TypeDef *GPIOx, uint16_t GPIO_Pin)
{
 8006dc2:	b480      	push	{r7}
 8006dc4:	b085      	sub	sp, #20
 8006dc6:	af00      	add	r7, sp, #0
 8006dc8:	6078      	str	r0, [r7, #4]
 8006dca:	460b      	mov	r3, r1
 8006dcc:	807b      	strh	r3, [r7, #2]

  /* Check the parameters */
  assert_param(IS_GPIO_PIN(GPIO_Pin));

  /* get current Ouput Data Register value */
  odr = GPIOx->ODR;
 8006dce:	687b      	ldr	r3, [r7, #4]
 8006dd0:	68db      	ldr	r3, [r3, #12]
 8006dd2:	60fb      	str	r3, [r7, #12]

  /* Set selected pins that were at low level, and reset ones that were high */
  GPIOx->BSRR = ((odr & GPIO_Pin) << GPIO_NUMBER) | (~odr & GPIO_Pin);
 8006dd4:	887a      	ldrh	r2, [r7, #2]
 8006dd6:	68fb      	ldr	r3, [r7, #12]
 8006dd8:	4013      	ands	r3, r2
 8006dda:	041a      	lsls	r2, r3, #16
 8006ddc:	68fb      	ldr	r3, [r7, #12]
 8006dde:	43d9      	mvns	r1, r3
 8006de0:	887b      	ldrh	r3, [r7, #2]
 8006de2:	400b      	ands	r3, r1
 8006de4:	431a      	orrs	r2, r3
 8006de6:	687b      	ldr	r3, [r7, #4]
 8006de8:	611a      	str	r2, [r3, #16]
}
 8006dea:	bf00      	nop
 8006dec:	3714      	adds	r7, #20
 8006dee:	46bd      	mov	sp, r7
 8006df0:	bc80      	pop	{r7}
 8006df2:	4770      	bx	lr

08006df4 <HAL_RCC_OscConfig>:
  *         supported by this macro. User should request a transition to HSE Off
  *         first and then HSE On or HSE Bypass.
  * @retval HAL status
  */
HAL_StatusTypeDef HAL_RCC_OscConfig(RCC_OscInitTypeDef  *RCC_OscInitStruct)
{
 8006df4:	b580      	push	{r7, lr}
 8006df6:	b086      	sub	sp, #24
 8006df8:	af00      	add	r7, sp, #0
 8006dfa:	6078      	str	r0, [r7, #4]
  uint32_t tickstart;
  uint32_t pll_config;

  /* Check Null pointer */
  if (RCC_OscInitStruct == NULL)
 8006dfc:	687b      	ldr	r3, [r7, #4]
 8006dfe:	2b00      	cmp	r3, #0
 8006e00:	d101      	bne.n	8006e06 <HAL_RCC_OscConfig+0x12>
  {
    return HAL_ERROR;
 8006e02:	2301      	movs	r3, #1
 8006e04:	e26c      	b.n	80072e0 <HAL_RCC_OscConfig+0x4ec>

  /* Check the parameters */
  assert_param(IS_RCC_OSCILLATORTYPE(RCC_OscInitStruct->OscillatorType));

  /*------------------------------- HSE Configuration ------------------------*/
  if (((RCC_OscInitStruct->OscillatorType) & RCC_OSCILLATORTYPE_HSE) == RCC_OSCILLATORTYPE_HSE)
 8006e06:	687b      	ldr	r3, [r7, #4]
 8006e08:	681b      	ldr	r3, [r3, #0]
 8006e0a:	f003 0301 	and.w	r3, r3, #1
 8006e0e:	2b00      	cmp	r3, #0
 8006e10:	f000 8087 	beq.w	8006f22 <HAL_RCC_OscConfig+0x12e>
  {
    /* Check the parameters */
    assert_param(IS_RCC_HSE(RCC_OscInitStruct->HSEState));

    /* When the HSE is used as system clock or clock source for PLL in these cases it is not allowed to be disabled */
    if ((__HAL_RCC_GET_SYSCLK_SOURCE() == RCC_SYSCLKSOURCE_STATUS_HSE)
 8006e14:	4b92      	ldr	r3, [pc, #584]	; (8007060 <HAL_RCC_OscConfig+0x26c>)
 8006e16:	685b      	ldr	r3, [r3, #4]
 8006e18:	f003 030c 	and.w	r3, r3, #12
 8006e1c:	2b04      	cmp	r3, #4
 8006e1e:	d00c      	beq.n	8006e3a <HAL_RCC_OscConfig+0x46>
        || ((__HAL_RCC_GET_SYSCLK_SOURCE() == RCC_SYSCLKSOURCE_STATUS_PLLCLK) && (__HAL_RCC_GET_PLL_OSCSOURCE() == RCC_PLLSOURCE_HSE)))
 8006e20:	4b8f      	ldr	r3, [pc, #572]	; (8007060 <HAL_RCC_OscConfig+0x26c>)
 8006e22:	685b      	ldr	r3, [r3, #4]
 8006e24:	f003 030c 	and.w	r3, r3, #12
 8006e28:	2b08      	cmp	r3, #8
 8006e2a:	d112      	bne.n	8006e52 <HAL_RCC_OscConfig+0x5e>
 8006e2c:	4b8c      	ldr	r3, [pc, #560]	; (8007060 <HAL_RCC_OscConfig+0x26c>)
 8006e2e:	685b      	ldr	r3, [r3, #4]
 8006e30:	f403 3380 	and.w	r3, r3, #65536	; 0x10000
 8006e34:	f5b3 3f80 	cmp.w	r3, #65536	; 0x10000
 8006e38:	d10b      	bne.n	8006e52 <HAL_RCC_OscConfig+0x5e>
    {
      if ((__HAL_RCC_GET_FLAG(RCC_FLAG_HSERDY) != RESET) && (RCC_OscInitStruct->HSEState == RCC_HSE_OFF))
 8006e3a:	4b89      	ldr	r3, [pc, #548]	; (8007060 <HAL_RCC_OscConfig+0x26c>)
 8006e3c:	681b      	ldr	r3, [r3, #0]
 8006e3e:	f403 3300 	and.w	r3, r3, #131072	; 0x20000
 8006e42:	2b00      	cmp	r3, #0
 8006e44:	d06c      	beq.n	8006f20 <HAL_RCC_OscConfig+0x12c>
 8006e46:	687b      	ldr	r3, [r7, #4]
 8006e48:	685b      	ldr	r3, [r3, #4]
 8006e4a:	2b00      	cmp	r3, #0
 8006e4c:	d168      	bne.n	8006f20 <HAL_RCC_OscConfig+0x12c>
      {
        return HAL_ERROR;
 8006e4e:	2301      	movs	r3, #1
 8006e50:	e246      	b.n	80072e0 <HAL_RCC_OscConfig+0x4ec>
      }
    }
    else
    {
      /* Set the new HSE configuration ---------------------------------------*/
      __HAL_RCC_HSE_CONFIG(RCC_OscInitStruct->HSEState);
 8006e52:	687b      	ldr	r3, [r7, #4]
 8006e54:	685b      	ldr	r3, [r3, #4]
 8006e56:	f5b3 3f80 	cmp.w	r3, #65536	; 0x10000
 8006e5a:	d106      	bne.n	8006e6a <HAL_RCC_OscConfig+0x76>
 8006e5c:	4b80      	ldr	r3, [pc, #512]	; (8007060 <HAL_RCC_OscConfig+0x26c>)
 8006e5e:	681b      	ldr	r3, [r3, #0]
 8006e60:	4a7f      	ldr	r2, [pc, #508]	; (8007060 <HAL_RCC_OscConfig+0x26c>)
 8006e62:	f443 3380 	orr.w	r3, r3, #65536	; 0x10000
 8006e66:	6013      	str	r3, [r2, #0]
 8006e68:	e02e      	b.n	8006ec8 <HAL_RCC_OscConfig+0xd4>
 8006e6a:	687b      	ldr	r3, [r7, #4]
 8006e6c:	685b      	ldr	r3, [r3, #4]
 8006e6e:	2b00      	cmp	r3, #0
 8006e70:	d10c      	bne.n	8006e8c <HAL_RCC_OscConfig+0x98>
 8006e72:	4b7b      	ldr	r3, [pc, #492]	; (8007060 <HAL_RCC_OscConfig+0x26c>)
 8006e74:	681b      	ldr	r3, [r3, #0]
 8006e76:	4a7a      	ldr	r2, [pc, #488]	; (8007060 <HAL_RCC_OscConfig+0x26c>)
 8006e78:	f423 3380 	bic.w	r3, r3, #65536	; 0x10000
 8006e7c:	6013      	str	r3, [r2, #0]
 8006e7e:	4b78      	ldr	r3, [pc, #480]	; (8007060 <HAL_RCC_OscConfig+0x26c>)
 8006e80:	681b      	ldr	r3, [r3, #0]
 8006e82:	4a77      	ldr	r2, [pc, #476]	; (8007060 <HAL_RCC_OscConfig+0x26c>)
 8006e84:	f423 2380 	bic.w	r3, r3, #262144	; 0x40000
 8006e88:	6013      	str	r3, [r2, #0]
 8006e8a:	e01d      	b.n	8006ec8 <HAL_RCC_OscConfig+0xd4>
 8006e8c:	687b      	ldr	r3, [r7, #4]
 8006e8e:	685b      	ldr	r3, [r3, #4]
 8006e90:	f5b3 2fa0 	cmp.w	r3, #327680	; 0x50000
 8006e94:	d10c      	bne.n	8006eb0 <HAL_RCC_OscConfig+0xbc>
 8006e96:	4b72      	ldr	r3, [pc, #456]	; (8007060 <HAL_RCC_OscConfig+0x26c>)
 8006e98:	681b      	ldr	r3, [r3, #0]
 8006e9a:	4a71      	ldr	r2, [pc, #452]	; (8007060 <HAL_RCC_OscConfig+0x26c>)
 8006e9c:	f443 2380 	orr.w	r3, r3, #262144	; 0x40000
 8006ea0:	6013      	str	r3, [r2, #0]
 8006ea2:	4b6f      	ldr	r3, [pc, #444]	; (8007060 <HAL_RCC_OscConfig+0x26c>)
 8006ea4:	681b      	ldr	r3, [r3, #0]
 8006ea6:	4a6e      	ldr	r2, [pc, #440]	; (8007060 <HAL_RCC_OscConfig+0x26c>)
 8006ea8:	f443 3380 	orr.w	r3, r3, #65536	; 0x10000
 8006eac:	6013      	str	r3, [r2, #0]
 8006eae:	e00b      	b.n	8006ec8 <HAL_RCC_OscConfig+0xd4>
 8006eb0:	4b6b      	ldr	r3, [pc, #428]	; (8007060 <HAL_RCC_OscConfig+0x26c>)
 8006eb2:	681b      	ldr	r3, [r3, #0]
 8006eb4:	4a6a      	ldr	r2, [pc, #424]	; (8007060 <HAL_RCC_OscConfig+0x26c>)
 8006eb6:	f423 3380 	bic.w	r3, r3, #65536	; 0x10000
 8006eba:	6013      	str	r3, [r2, #0]
 8006ebc:	4b68      	ldr	r3, [pc, #416]	; (8007060 <HAL_RCC_OscConfig+0x26c>)
 8006ebe:	681b      	ldr	r3, [r3, #0]
 8006ec0:	4a67      	ldr	r2, [pc, #412]	; (8007060 <HAL_RCC_OscConfig+0x26c>)
 8006ec2:	f423 2380 	bic.w	r3, r3, #262144	; 0x40000
 8006ec6:	6013      	str	r3, [r2, #0]


      /* Check the HSE State */
      if (RCC_OscInitStruct->HSEState != RCC_HSE_OFF)
 8006ec8:	687b      	ldr	r3, [r7, #4]
 8006eca:	685b      	ldr	r3, [r3, #4]
 8006ecc:	2b00      	cmp	r3, #0
 8006ece:	d013      	beq.n	8006ef8 <HAL_RCC_OscConfig+0x104>
      {
        /* Get Start Tick */
        tickstart = HAL_GetTick();
 8006ed0:	f7ff fbd8 	bl	8006684 <HAL_GetTick>
 8006ed4:	6138      	str	r0, [r7, #16]

        /* Wait till HSE is ready */
        while (__HAL_RCC_GET_FLAG(RCC_FLAG_HSERDY) == RESET)
 8006ed6:	e008      	b.n	8006eea <HAL_RCC_OscConfig+0xf6>
        {
          if ((HAL_GetTick() - tickstart) > HSE_TIMEOUT_VALUE)
 8006ed8:	f7ff fbd4 	bl	8006684 <HAL_GetTick>
 8006edc:	4602      	mov	r2, r0
 8006ede:	693b      	ldr	r3, [r7, #16]
 8006ee0:	1ad3      	subs	r3, r2, r3
 8006ee2:	2b64      	cmp	r3, #100	; 0x64
 8006ee4:	d901      	bls.n	8006eea <HAL_RCC_OscConfig+0xf6>
          {
            return HAL_TIMEOUT;
 8006ee6:	2303      	movs	r3, #3
 8006ee8:	e1fa      	b.n	80072e0 <HAL_RCC_OscConfig+0x4ec>
        while (__HAL_RCC_GET_FLAG(RCC_FLAG_HSERDY) == RESET)
 8006eea:	4b5d      	ldr	r3, [pc, #372]	; (8007060 <HAL_RCC_OscConfig+0x26c>)
 8006eec:	681b      	ldr	r3, [r3, #0]
 8006eee:	f403 3300 	and.w	r3, r3, #131072	; 0x20000
 8006ef2:	2b00      	cmp	r3, #0
 8006ef4:	d0f0      	beq.n	8006ed8 <HAL_RCC_OscConfig+0xe4>
 8006ef6:	e014      	b.n	8006f22 <HAL_RCC_OscConfig+0x12e>
        }
      }
      else
      {
        /* Get Start Tick */
        tickstart = HAL_GetTick();
 8006ef8:	f7ff fbc4 	bl	8006684 <HAL_GetTick>
 8006efc:	6138      	str	r0, [r7, #16]

        /* Wait till HSE is disabled */
        while (__HAL_RCC_GET_FLAG(RCC_FLAG_HSERDY) != RESET)
 8006efe:	e008      	b.n	8006f12 <HAL_RCC_OscConfig+0x11e>
        {
          if ((HAL_GetTick() - tickstart) > HSE_TIMEOUT_VALUE)
 8006f00:	f7ff fbc0 	bl	8006684 <HAL_GetTick>
 8006f04:	4602      	mov	r2, r0
 8006f06:	693b      	ldr	r3, [r7, #16]
 8006f08:	1ad3      	subs	r3, r2, r3
 8006f0a:	2b64      	cmp	r3, #100	; 0x64
 8006f0c:	d901      	bls.n	8006f12 <HAL_RCC_OscConfig+0x11e>
          {
            return HAL_TIMEOUT;
 8006f0e:	2303      	movs	r3, #3
 8006f10:	e1e6      	b.n	80072e0 <HAL_RCC_OscConfig+0x4ec>
        while (__HAL_RCC_GET_FLAG(RCC_FLAG_HSERDY) != RESET)
 8006f12:	4b53      	ldr	r3, [pc, #332]	; (8007060 <HAL_RCC_OscConfig+0x26c>)
 8006f14:	681b      	ldr	r3, [r3, #0]
 8006f16:	f403 3300 	and.w	r3, r3, #131072	; 0x20000
 8006f1a:	2b00      	cmp	r3, #0
 8006f1c:	d1f0      	bne.n	8006f00 <HAL_RCC_OscConfig+0x10c>
 8006f1e:	e000      	b.n	8006f22 <HAL_RCC_OscConfig+0x12e>
      if ((__HAL_RCC_GET_FLAG(RCC_FLAG_HSERDY) != RESET) && (RCC_OscInitStruct->HSEState == RCC_HSE_OFF))
 8006f20:	bf00      	nop
        }
      }
    }
  }
  /*----------------------------- HSI Configuration --------------------------*/
  if (((RCC_OscInitStruct->OscillatorType) & RCC_OSCILLATORTYPE_HSI) == RCC_OSCILLATORTYPE_HSI)
 8006f22:	687b      	ldr	r3, [r7, #4]
 8006f24:	681b      	ldr	r3, [r3, #0]
 8006f26:	f003 0302 	and.w	r3, r3, #2
 8006f2a:	2b00      	cmp	r3, #0
 8006f2c:	d063      	beq.n	8006ff6 <HAL_RCC_OscConfig+0x202>
    /* Check the parameters */
    assert_param(IS_RCC_HSI(RCC_OscInitStruct->HSIState));
    assert_param(IS_RCC_CALIBRATION_VALUE(RCC_OscInitStruct->HSICalibrationValue));

    /* Check if HSI is used as system clock or as PLL source when PLL is selected as system clock */
    if ((__HAL_RCC_GET_SYSCLK_SOURCE() == RCC_SYSCLKSOURCE_STATUS_HSI)
 8006f2e:	4b4c      	ldr	r3, [pc, #304]	; (8007060 <HAL_RCC_OscConfig+0x26c>)
 8006f30:	685b      	ldr	r3, [r3, #4]
 8006f32:	f003 030c 	and.w	r3, r3, #12
 8006f36:	2b00      	cmp	r3, #0
 8006f38:	d00b      	beq.n	8006f52 <HAL_RCC_OscConfig+0x15e>
        || ((__HAL_RCC_GET_SYSCLK_SOURCE() == RCC_SYSCLKSOURCE_STATUS_PLLCLK) && (__HAL_RCC_GET_PLL_OSCSOURCE() == RCC_PLLSOURCE_HSI_DIV2)))
 8006f3a:	4b49      	ldr	r3, [pc, #292]	; (8007060 <HAL_RCC_OscConfig+0x26c>)
 8006f3c:	685b      	ldr	r3, [r3, #4]
 8006f3e:	f003 030c 	and.w	r3, r3, #12
 8006f42:	2b08      	cmp	r3, #8
 8006f44:	d11c      	bne.n	8006f80 <HAL_RCC_OscConfig+0x18c>
 8006f46:	4b46      	ldr	r3, [pc, #280]	; (8007060 <HAL_RCC_OscConfig+0x26c>)
 8006f48:	685b      	ldr	r3, [r3, #4]
 8006f4a:	f403 3380 	and.w	r3, r3, #65536	; 0x10000
 8006f4e:	2b00      	cmp	r3, #0
 8006f50:	d116      	bne.n	8006f80 <HAL_RCC_OscConfig+0x18c>
    {
      /* When HSI is used as system clock it will not disabled */
      if ((__HAL_RCC_GET_FLAG(RCC_FLAG_HSIRDY) != RESET) && (RCC_OscInitStruct->HSIState != RCC_HSI_ON))
 8006f52:	4b43      	ldr	r3, [pc, #268]	; (8007060 <HAL_RCC_OscConfig+0x26c>)
 8006f54:	681b      	ldr	r3, [r3, #0]
 8006f56:	f003 0302 	and.w	r3, r3, #2
 8006f5a:	2b00      	cmp	r3, #0
 8006f5c:	d005      	beq.n	8006f6a <HAL_RCC_OscConfig+0x176>
 8006f5e:	687b      	ldr	r3, [r7, #4]
 8006f60:	691b      	ldr	r3, [r3, #16]
 8006f62:	2b01      	cmp	r3, #1
 8006f64:	d001      	beq.n	8006f6a <HAL_RCC_OscConfig+0x176>
      {
        return HAL_ERROR;
 8006f66:	2301      	movs	r3, #1
 8006f68:	e1ba      	b.n	80072e0 <HAL_RCC_OscConfig+0x4ec>
      }
      /* Otherwise, just the calibration is allowed */
      else
      {
        /* Adjusts the Internal High Speed oscillator (HSI) calibration value.*/
        __HAL_RCC_HSI_CALIBRATIONVALUE_ADJUST(RCC_OscInitStruct->HSICalibrationValue);
 8006f6a:	4b3d      	ldr	r3, [pc, #244]	; (8007060 <HAL_RCC_OscConfig+0x26c>)
 8006f6c:	681b      	ldr	r3, [r3, #0]
 8006f6e:	f023 02f8 	bic.w	r2, r3, #248	; 0xf8
 8006f72:	687b      	ldr	r3, [r7, #4]
 8006f74:	695b      	ldr	r3, [r3, #20]
 8006f76:	00db      	lsls	r3, r3, #3
 8006f78:	4939      	ldr	r1, [pc, #228]	; (8007060 <HAL_RCC_OscConfig+0x26c>)
 8006f7a:	4313      	orrs	r3, r2
 8006f7c:	600b      	str	r3, [r1, #0]
      if ((__HAL_RCC_GET_FLAG(RCC_FLAG_HSIRDY) != RESET) && (RCC_OscInitStruct->HSIState != RCC_HSI_ON))
 8006f7e:	e03a      	b.n	8006ff6 <HAL_RCC_OscConfig+0x202>
      }
    }
    else
    {
      /* Check the HSI State */
      if (RCC_OscInitStruct->HSIState != RCC_HSI_OFF)
 8006f80:	687b      	ldr	r3, [r7, #4]
 8006f82:	691b      	ldr	r3, [r3, #16]
 8006f84:	2b00      	cmp	r3, #0
 8006f86:	d020      	beq.n	8006fca <HAL_RCC_OscConfig+0x1d6>
      {
        /* Enable the Internal High Speed oscillator (HSI). */
        __HAL_RCC_HSI_ENABLE();
 8006f88:	4b36      	ldr	r3, [pc, #216]	; (8007064 <HAL_RCC_OscConfig+0x270>)
 8006f8a:	2201      	movs	r2, #1
 8006f8c:	601a      	str	r2, [r3, #0]

        /* Get Start Tick */
        tickstart = HAL_GetTick();
 8006f8e:	f7ff fb79 	bl	8006684 <HAL_GetTick>
 8006f92:	6138      	str	r0, [r7, #16]

        /* Wait till HSI is ready */
        while (__HAL_RCC_GET_FLAG(RCC_FLAG_HSIRDY) == RESET)
 8006f94:	e008      	b.n	8006fa8 <HAL_RCC_OscConfig+0x1b4>
        {
          if ((HAL_GetTick() - tickstart) > HSI_TIMEOUT_VALUE)
 8006f96:	f7ff fb75 	bl	8006684 <HAL_GetTick>
 8006f9a:	4602      	mov	r2, r0
 8006f9c:	693b      	ldr	r3, [r7, #16]
 8006f9e:	1ad3      	subs	r3, r2, r3
 8006fa0:	2b02      	cmp	r3, #2
 8006fa2:	d901      	bls.n	8006fa8 <HAL_RCC_OscConfig+0x1b4>
          {
            return HAL_TIMEOUT;
 8006fa4:	2303      	movs	r3, #3
 8006fa6:	e19b      	b.n	80072e0 <HAL_RCC_OscConfig+0x4ec>
        while (__HAL_RCC_GET_FLAG(RCC_FLAG_HSIRDY) == RESET)
 8006fa8:	4b2d      	ldr	r3, [pc, #180]	; (8007060 <HAL_RCC_OscConfig+0x26c>)
 8006faa:	681b      	ldr	r3, [r3, #0]
 8006fac:	f003 0302 	and.w	r3, r3, #2
 8006fb0:	2b00      	cmp	r3, #0
 8006fb2:	d0f0      	beq.n	8006f96 <HAL_RCC_OscConfig+0x1a2>
          }
        }

        /* Adjusts the Internal High Speed oscillator (HSI) calibration value.*/
        __HAL_RCC_HSI_CALIBRATIONVALUE_ADJUST(RCC_OscInitStruct->HSICalibrationValue);
 8006fb4:	4b2a      	ldr	r3, [pc, #168]	; (8007060 <HAL_RCC_OscConfig+0x26c>)
 8006fb6:	681b      	ldr	r3, [r3, #0]
 8006fb8:	f023 02f8 	bic.w	r2, r3, #248	; 0xf8
 8006fbc:	687b      	ldr	r3, [r7, #4]
 8006fbe:	695b      	ldr	r3, [r3, #20]
 8006fc0:	00db      	lsls	r3, r3, #3
 8006fc2:	4927      	ldr	r1, [pc, #156]	; (8007060 <HAL_RCC_OscConfig+0x26c>)
 8006fc4:	4313      	orrs	r3, r2
 8006fc6:	600b      	str	r3, [r1, #0]
 8006fc8:	e015      	b.n	8006ff6 <HAL_RCC_OscConfig+0x202>
      }
      else
      {
        /* Disable the Internal High Speed oscillator (HSI). */
        __HAL_RCC_HSI_DISABLE();
 8006fca:	4b26      	ldr	r3, [pc, #152]	; (8007064 <HAL_RCC_OscConfig+0x270>)
 8006fcc:	2200      	movs	r2, #0
 8006fce:	601a      	str	r2, [r3, #0]

        /* Get Start Tick */
        tickstart = HAL_GetTick();
 8006fd0:	f7ff fb58 	bl	8006684 <HAL_GetTick>
 8006fd4:	6138      	str	r0, [r7, #16]

        /* Wait till HSI is disabled */
        while (__HAL_RCC_GET_FLAG(RCC_FLAG_HSIRDY) != RESET)
 8006fd6:	e008      	b.n	8006fea <HAL_RCC_OscConfig+0x1f6>
        {
          if ((HAL_GetTick() - tickstart) > HSI_TIMEOUT_VALUE)
 8006fd8:	f7ff fb54 	bl	8006684 <HAL_GetTick>
 8006fdc:	4602      	mov	r2, r0
 8006fde:	693b      	ldr	r3, [r7, #16]
 8006fe0:	1ad3      	subs	r3, r2, r3
 8006fe2:	2b02      	cmp	r3, #2
 8006fe4:	d901      	bls.n	8006fea <HAL_RCC_OscConfig+0x1f6>
          {
            return HAL_TIMEOUT;
 8006fe6:	2303      	movs	r3, #3
 8006fe8:	e17a      	b.n	80072e0 <HAL_RCC_OscConfig+0x4ec>
        while (__HAL_RCC_GET_FLAG(RCC_FLAG_HSIRDY) != RESET)
 8006fea:	4b1d      	ldr	r3, [pc, #116]	; (8007060 <HAL_RCC_OscConfig+0x26c>)
 8006fec:	681b      	ldr	r3, [r3, #0]
 8006fee:	f003 0302 	and.w	r3, r3, #2
 8006ff2:	2b00      	cmp	r3, #0
 8006ff4:	d1f0      	bne.n	8006fd8 <HAL_RCC_OscConfig+0x1e4>
        }
      }
    }
  }
  /*------------------------------ LSI Configuration -------------------------*/
  if (((RCC_OscInitStruct->OscillatorType) & RCC_OSCILLATORTYPE_LSI) == RCC_OSCILLATORTYPE_LSI)
 8006ff6:	687b      	ldr	r3, [r7, #4]
 8006ff8:	681b      	ldr	r3, [r3, #0]
 8006ffa:	f003 0308 	and.w	r3, r3, #8
 8006ffe:	2b00      	cmp	r3, #0
 8007000:	d03a      	beq.n	8007078 <HAL_RCC_OscConfig+0x284>
  {
    /* Check the parameters */
    assert_param(IS_RCC_LSI(RCC_OscInitStruct->LSIState));

    /* Check the LSI State */
    if (RCC_OscInitStruct->LSIState != RCC_LSI_OFF)
 8007002:	687b      	ldr	r3, [r7, #4]
 8007004:	699b      	ldr	r3, [r3, #24]
 8007006:	2b00      	cmp	r3, #0
 8007008:	d019      	beq.n	800703e <HAL_RCC_OscConfig+0x24a>
    {
      /* Enable the Internal Low Speed oscillator (LSI). */
      __HAL_RCC_LSI_ENABLE();
 800700a:	4b17      	ldr	r3, [pc, #92]	; (8007068 <HAL_RCC_OscConfig+0x274>)
 800700c:	2201      	movs	r2, #1
 800700e:	601a      	str	r2, [r3, #0]

      /* Get Start Tick */
      tickstart = HAL_GetTick();
 8007010:	f7ff fb38 	bl	8006684 <HAL_GetTick>
 8007014:	6138      	str	r0, [r7, #16]

      /* Wait till LSI is ready */
      while (__HAL_RCC_GET_FLAG(RCC_FLAG_LSIRDY) == RESET)
 8007016:	e008      	b.n	800702a <HAL_RCC_OscConfig+0x236>
      {
        if ((HAL_GetTick() - tickstart) > LSI_TIMEOUT_VALUE)
 8007018:	f7ff fb34 	bl	8006684 <HAL_GetTick>
 800701c:	4602      	mov	r2, r0
 800701e:	693b      	ldr	r3, [r7, #16]
 8007020:	1ad3      	subs	r3, r2, r3
 8007022:	2b02      	cmp	r3, #2
 8007024:	d901      	bls.n	800702a <HAL_RCC_OscConfig+0x236>
        {
          return HAL_TIMEOUT;
 8007026:	2303      	movs	r3, #3
 8007028:	e15a      	b.n	80072e0 <HAL_RCC_OscConfig+0x4ec>
      while (__HAL_RCC_GET_FLAG(RCC_FLAG_LSIRDY) == RESET)
 800702a:	4b0d      	ldr	r3, [pc, #52]	; (8007060 <HAL_RCC_OscConfig+0x26c>)
 800702c:	6a5b      	ldr	r3, [r3, #36]	; 0x24
 800702e:	f003 0302 	and.w	r3, r3, #2
 8007032:	2b00      	cmp	r3, #0
 8007034:	d0f0      	beq.n	8007018 <HAL_RCC_OscConfig+0x224>
        }
      }
      /*  To have a fully stabilized clock in the specified range, a software delay of 1ms
          should be added.*/
      RCC_Delay(1);
 8007036:	2001      	movs	r0, #1
 8007038:	f000 fad8 	bl	80075ec <RCC_Delay>
 800703c:	e01c      	b.n	8007078 <HAL_RCC_OscConfig+0x284>
    }
    else
    {
      /* Disable the Internal Low Speed oscillator (LSI). */
      __HAL_RCC_LSI_DISABLE();
 800703e:	4b0a      	ldr	r3, [pc, #40]	; (8007068 <HAL_RCC_OscConfig+0x274>)
 8007040:	2200      	movs	r2, #0
 8007042:	601a      	str	r2, [r3, #0]

      /* Get Start Tick */
      tickstart = HAL_GetTick();
 8007044:	f7ff fb1e 	bl	8006684 <HAL_GetTick>
 8007048:	6138      	str	r0, [r7, #16]

      /* Wait till LSI is disabled */
      while (__HAL_RCC_GET_FLAG(RCC_FLAG_LSIRDY) != RESET)
 800704a:	e00f      	b.n	800706c <HAL_RCC_OscConfig+0x278>
      {
        if ((HAL_GetTick() - tickstart) > LSI_TIMEOUT_VALUE)
 800704c:	f7ff fb1a 	bl	8006684 <HAL_GetTick>
 8007050:	4602      	mov	r2, r0
 8007052:	693b      	ldr	r3, [r7, #16]
 8007054:	1ad3      	subs	r3, r2, r3
 8007056:	2b02      	cmp	r3, #2
 8007058:	d908      	bls.n	800706c <HAL_RCC_OscConfig+0x278>
        {
          return HAL_TIMEOUT;
 800705a:	2303      	movs	r3, #3
 800705c:	e140      	b.n	80072e0 <HAL_RCC_OscConfig+0x4ec>
 800705e:	bf00      	nop
 8007060:	40021000 	.word	0x40021000
 8007064:	42420000 	.word	0x42420000
 8007068:	42420480 	.word	0x42420480
      while (__HAL_RCC_GET_FLAG(RCC_FLAG_LSIRDY) != RESET)
 800706c:	4b9e      	ldr	r3, [pc, #632]	; (80072e8 <HAL_RCC_OscConfig+0x4f4>)
 800706e:	6a5b      	ldr	r3, [r3, #36]	; 0x24
 8007070:	f003 0302 	and.w	r3, r3, #2
 8007074:	2b00      	cmp	r3, #0
 8007076:	d1e9      	bne.n	800704c <HAL_RCC_OscConfig+0x258>
        }
      }
    }
  }
  /*------------------------------ LSE Configuration -------------------------*/
  if (((RCC_OscInitStruct->OscillatorType) & RCC_OSCILLATORTYPE_LSE) == RCC_OSCILLATORTYPE_LSE)
 8007078:	687b      	ldr	r3, [r7, #4]
 800707a:	681b      	ldr	r3, [r3, #0]
 800707c:	f003 0304 	and.w	r3, r3, #4
 8007080:	2b00      	cmp	r3, #0
 8007082:	f000 80a6 	beq.w	80071d2 <HAL_RCC_OscConfig+0x3de>
  {
    FlagStatus       pwrclkchanged = RESET;
 8007086:	2300      	movs	r3, #0
 8007088:	75fb      	strb	r3, [r7, #23]
    /* Check the parameters */
    assert_param(IS_RCC_LSE(RCC_OscInitStruct->LSEState));

    /* Update LSE configuration in Backup Domain control register    */
    /* Requires to enable write access to Backup Domain of necessary */
    if (__HAL_RCC_PWR_IS_CLK_DISABLED())
 800708a:	4b97      	ldr	r3, [pc, #604]	; (80072e8 <HAL_RCC_OscConfig+0x4f4>)
 800708c:	69db      	ldr	r3, [r3, #28]
 800708e:	f003 5380 	and.w	r3, r3, #268435456	; 0x10000000
 8007092:	2b00      	cmp	r3, #0
 8007094:	d10d      	bne.n	80070b2 <HAL_RCC_OscConfig+0x2be>
    {
      __HAL_RCC_PWR_CLK_ENABLE();
 8007096:	4b94      	ldr	r3, [pc, #592]	; (80072e8 <HAL_RCC_OscConfig+0x4f4>)
 8007098:	69db      	ldr	r3, [r3, #28]
 800709a:	4a93      	ldr	r2, [pc, #588]	; (80072e8 <HAL_RCC_OscConfig+0x4f4>)
 800709c:	f043 5380 	orr.w	r3, r3, #268435456	; 0x10000000
 80070a0:	61d3      	str	r3, [r2, #28]
 80070a2:	4b91      	ldr	r3, [pc, #580]	; (80072e8 <HAL_RCC_OscConfig+0x4f4>)
 80070a4:	69db      	ldr	r3, [r3, #28]
 80070a6:	f003 5380 	and.w	r3, r3, #268435456	; 0x10000000
 80070aa:	60bb      	str	r3, [r7, #8]
 80070ac:	68bb      	ldr	r3, [r7, #8]
      pwrclkchanged = SET;
 80070ae:	2301      	movs	r3, #1
 80070b0:	75fb      	strb	r3, [r7, #23]
    }

    if (HAL_IS_BIT_CLR(PWR->CR, PWR_CR_DBP))
 80070b2:	4b8e      	ldr	r3, [pc, #568]	; (80072ec <HAL_RCC_OscConfig+0x4f8>)
 80070b4:	681b      	ldr	r3, [r3, #0]
 80070b6:	f403 7380 	and.w	r3, r3, #256	; 0x100
 80070ba:	2b00      	cmp	r3, #0
 80070bc:	d118      	bne.n	80070f0 <HAL_RCC_OscConfig+0x2fc>
    {
      /* Enable write access to Backup domain */
      SET_BIT(PWR->CR, PWR_CR_DBP);
 80070be:	4b8b      	ldr	r3, [pc, #556]	; (80072ec <HAL_RCC_OscConfig+0x4f8>)
 80070c0:	681b      	ldr	r3, [r3, #0]
 80070c2:	4a8a      	ldr	r2, [pc, #552]	; (80072ec <HAL_RCC_OscConfig+0x4f8>)
 80070c4:	f443 7380 	orr.w	r3, r3, #256	; 0x100
 80070c8:	6013      	str	r3, [r2, #0]

      /* Wait for Backup domain Write protection disable */
      tickstart = HAL_GetTick();
 80070ca:	f7ff fadb 	bl	8006684 <HAL_GetTick>
 80070ce:	6138      	str	r0, [r7, #16]

      while (HAL_IS_BIT_CLR(PWR->CR, PWR_CR_DBP))
 80070d0:	e008      	b.n	80070e4 <HAL_RCC_OscConfig+0x2f0>
      {
        if ((HAL_GetTick() - tickstart) > RCC_DBP_TIMEOUT_VALUE)
 80070d2:	f7ff fad7 	bl	8006684 <HAL_GetTick>
 80070d6:	4602      	mov	r2, r0
 80070d8:	693b      	ldr	r3, [r7, #16]
 80070da:	1ad3      	subs	r3, r2, r3
 80070dc:	2b64      	cmp	r3, #100	; 0x64
 80070de:	d901      	bls.n	80070e4 <HAL_RCC_OscConfig+0x2f0>
        {
          return HAL_TIMEOUT;
 80070e0:	2303      	movs	r3, #3
 80070e2:	e0fd      	b.n	80072e0 <HAL_RCC_OscConfig+0x4ec>
      while (HAL_IS_BIT_CLR(PWR->CR, PWR_CR_DBP))
 80070e4:	4b81      	ldr	r3, [pc, #516]	; (80072ec <HAL_RCC_OscConfig+0x4f8>)
 80070e6:	681b      	ldr	r3, [r3, #0]
 80070e8:	f403 7380 	and.w	r3, r3, #256	; 0x100
 80070ec:	2b00      	cmp	r3, #0
 80070ee:	d0f0      	beq.n	80070d2 <HAL_RCC_OscConfig+0x2de>
        }
      }
    }

    /* Set the new LSE configuration -----------------------------------------*/
    __HAL_RCC_LSE_CONFIG(RCC_OscInitStruct->LSEState);
 80070f0:	687b      	ldr	r3, [r7, #4]
 80070f2:	68db      	ldr	r3, [r3, #12]
 80070f4:	2b01      	cmp	r3, #1
 80070f6:	d106      	bne.n	8007106 <HAL_RCC_OscConfig+0x312>
 80070f8:	4b7b      	ldr	r3, [pc, #492]	; (80072e8 <HAL_RCC_OscConfig+0x4f4>)
 80070fa:	6a1b      	ldr	r3, [r3, #32]
 80070fc:	4a7a      	ldr	r2, [pc, #488]	; (80072e8 <HAL_RCC_OscConfig+0x4f4>)
 80070fe:	f043 0301 	orr.w	r3, r3, #1
 8007102:	6213      	str	r3, [r2, #32]
 8007104:	e02d      	b.n	8007162 <HAL_RCC_OscConfig+0x36e>
 8007106:	687b      	ldr	r3, [r7, #4]
 8007108:	68db      	ldr	r3, [r3, #12]
 800710a:	2b00      	cmp	r3, #0
 800710c:	d10c      	bne.n	8007128 <HAL_RCC_OscConfig+0x334>
 800710e:	4b76      	ldr	r3, [pc, #472]	; (80072e8 <HAL_RCC_OscConfig+0x4f4>)
 8007110:	6a1b      	ldr	r3, [r3, #32]
 8007112:	4a75      	ldr	r2, [pc, #468]	; (80072e8 <HAL_RCC_OscConfig+0x4f4>)
 8007114:	f023 0301 	bic.w	r3, r3, #1
 8007118:	6213      	str	r3, [r2, #32]
 800711a:	4b73      	ldr	r3, [pc, #460]	; (80072e8 <HAL_RCC_OscConfig+0x4f4>)
 800711c:	6a1b      	ldr	r3, [r3, #32]
 800711e:	4a72      	ldr	r2, [pc, #456]	; (80072e8 <HAL_RCC_OscConfig+0x4f4>)
 8007120:	f023 0304 	bic.w	r3, r3, #4
 8007124:	6213      	str	r3, [r2, #32]
 8007126:	e01c      	b.n	8007162 <HAL_RCC_OscConfig+0x36e>
 8007128:	687b      	ldr	r3, [r7, #4]
 800712a:	68db      	ldr	r3, [r3, #12]
 800712c:	2b05      	cmp	r3, #5
 800712e:	d10c      	bne.n	800714a <HAL_RCC_OscConfig+0x356>
 8007130:	4b6d      	ldr	r3, [pc, #436]	; (80072e8 <HAL_RCC_OscConfig+0x4f4>)
 8007132:	6a1b      	ldr	r3, [r3, #32]
 8007134:	4a6c      	ldr	r2, [pc, #432]	; (80072e8 <HAL_RCC_OscConfig+0x4f4>)
 8007136:	f043 0304 	orr.w	r3, r3, #4
 800713a:	6213      	str	r3, [r2, #32]
 800713c:	4b6a      	ldr	r3, [pc, #424]	; (80072e8 <HAL_RCC_OscConfig+0x4f4>)
 800713e:	6a1b      	ldr	r3, [r3, #32]
 8007140:	4a69      	ldr	r2, [pc, #420]	; (80072e8 <HAL_RCC_OscConfig+0x4f4>)
 8007142:	f043 0301 	orr.w	r3, r3, #1
 8007146:	6213      	str	r3, [r2, #32]
 8007148:	e00b      	b.n	8007162 <HAL_RCC_OscConfig+0x36e>
 800714a:	4b67      	ldr	r3, [pc, #412]	; (80072e8 <HAL_RCC_OscConfig+0x4f4>)
 800714c:	6a1b      	ldr	r3, [r3, #32]
 800714e:	4a66      	ldr	r2, [pc, #408]	; (80072e8 <HAL_RCC_OscConfig+0x4f4>)
 8007150:	f023 0301 	bic.w	r3, r3, #1
 8007154:	6213      	str	r3, [r2, #32]
 8007156:	4b64      	ldr	r3, [pc, #400]	; (80072e8 <HAL_RCC_OscConfig+0x4f4>)
 8007158:	6a1b      	ldr	r3, [r3, #32]
 800715a:	4a63      	ldr	r2, [pc, #396]	; (80072e8 <HAL_RCC_OscConfig+0x4f4>)
 800715c:	f023 0304 	bic.w	r3, r3, #4
 8007160:	6213      	str	r3, [r2, #32]
    /* Check the LSE State */
    if (RCC_OscInitStruct->LSEState != RCC_LSE_OFF)
 8007162:	687b      	ldr	r3, [r7, #4]
 8007164:	68db      	ldr	r3, [r3, #12]
 8007166:	2b00      	cmp	r3, #0
 8007168:	d015      	beq.n	8007196 <HAL_RCC_OscConfig+0x3a2>
    {
      /* Get Start Tick */
      tickstart = HAL_GetTick();
 800716a:	f7ff fa8b 	bl	8006684 <HAL_GetTick>
 800716e:	6138      	str	r0, [r7, #16]

      /* Wait till LSE is ready */
      while (__HAL_RCC_GET_FLAG(RCC_FLAG_LSERDY) == RESET)
 8007170:	e00a      	b.n	8007188 <HAL_RCC_OscConfig+0x394>
      {
        if ((HAL_GetTick() - tickstart) > RCC_LSE_TIMEOUT_VALUE)
 8007172:	f7ff fa87 	bl	8006684 <HAL_GetTick>
 8007176:	4602      	mov	r2, r0
 8007178:	693b      	ldr	r3, [r7, #16]
 800717a:	1ad3      	subs	r3, r2, r3
 800717c:	f241 3288 	movw	r2, #5000	; 0x1388
 8007180:	4293      	cmp	r3, r2
 8007182:	d901      	bls.n	8007188 <HAL_RCC_OscConfig+0x394>
        {
          return HAL_TIMEOUT;
 8007184:	2303      	movs	r3, #3
 8007186:	e0ab      	b.n	80072e0 <HAL_RCC_OscConfig+0x4ec>
      while (__HAL_RCC_GET_FLAG(RCC_FLAG_LSERDY) == RESET)
 8007188:	4b57      	ldr	r3, [pc, #348]	; (80072e8 <HAL_RCC_OscConfig+0x4f4>)
 800718a:	6a1b      	ldr	r3, [r3, #32]
 800718c:	f003 0302 	and.w	r3, r3, #2
 8007190:	2b00      	cmp	r3, #0
 8007192:	d0ee      	beq.n	8007172 <HAL_RCC_OscConfig+0x37e>
 8007194:	e014      	b.n	80071c0 <HAL_RCC_OscConfig+0x3cc>
      }
    }
    else
    {
      /* Get Start Tick */
      tickstart = HAL_GetTick();
 8007196:	f7ff fa75 	bl	8006684 <HAL_GetTick>
 800719a:	6138      	str	r0, [r7, #16]

      /* Wait till LSE is disabled */
      while (__HAL_RCC_GET_FLAG(RCC_FLAG_LSERDY) != RESET)
 800719c:	e00a      	b.n	80071b4 <HAL_RCC_OscConfig+0x3c0>
      {
        if ((HAL_GetTick() - tickstart) > RCC_LSE_TIMEOUT_VALUE)
 800719e:	f7ff fa71 	bl	8006684 <HAL_GetTick>
 80071a2:	4602      	mov	r2, r0
 80071a4:	693b      	ldr	r3, [r7, #16]
 80071a6:	1ad3      	subs	r3, r2, r3
 80071a8:	f241 3288 	movw	r2, #5000	; 0x1388
 80071ac:	4293      	cmp	r3, r2
 80071ae:	d901      	bls.n	80071b4 <HAL_RCC_OscConfig+0x3c0>
        {
          return HAL_TIMEOUT;
 80071b0:	2303      	movs	r3, #3
 80071b2:	e095      	b.n	80072e0 <HAL_RCC_OscConfig+0x4ec>
      while (__HAL_RCC_GET_FLAG(RCC_FLAG_LSERDY) != RESET)
 80071b4:	4b4c      	ldr	r3, [pc, #304]	; (80072e8 <HAL_RCC_OscConfig+0x4f4>)
 80071b6:	6a1b      	ldr	r3, [r3, #32]
 80071b8:	f003 0302 	and.w	r3, r3, #2
 80071bc:	2b00      	cmp	r3, #0
 80071be:	d1ee      	bne.n	800719e <HAL_RCC_OscConfig+0x3aa>
        }
      }
    }

    /* Require to disable power clock if necessary */
    if (pwrclkchanged == SET)
 80071c0:	7dfb      	ldrb	r3, [r7, #23]
 80071c2:	2b01      	cmp	r3, #1
 80071c4:	d105      	bne.n	80071d2 <HAL_RCC_OscConfig+0x3de>
    {
      __HAL_RCC_PWR_CLK_DISABLE();
 80071c6:	4b48      	ldr	r3, [pc, #288]	; (80072e8 <HAL_RCC_OscConfig+0x4f4>)
 80071c8:	69db      	ldr	r3, [r3, #28]
 80071ca:	4a47      	ldr	r2, [pc, #284]	; (80072e8 <HAL_RCC_OscConfig+0x4f4>)
 80071cc:	f023 5380 	bic.w	r3, r3, #268435456	; 0x10000000
 80071d0:	61d3      	str	r3, [r2, #28]

#endif /* RCC_CR_PLL2ON */
  /*-------------------------------- PLL Configuration -----------------------*/
  /* Check the parameters */
  assert_param(IS_RCC_PLL(RCC_OscInitStruct->PLL.PLLState));
  if ((RCC_OscInitStruct->PLL.PLLState) != RCC_PLL_NONE)
 80071d2:	687b      	ldr	r3, [r7, #4]
 80071d4:	69db      	ldr	r3, [r3, #28]
 80071d6:	2b00      	cmp	r3, #0
 80071d8:	f000 8081 	beq.w	80072de <HAL_RCC_OscConfig+0x4ea>
  {
    /* Check if the PLL is used as system clock or not */
    if (__HAL_RCC_GET_SYSCLK_SOURCE() != RCC_SYSCLKSOURCE_STATUS_PLLCLK)
 80071dc:	4b42      	ldr	r3, [pc, #264]	; (80072e8 <HAL_RCC_OscConfig+0x4f4>)
 80071de:	685b      	ldr	r3, [r3, #4]
 80071e0:	f003 030c 	and.w	r3, r3, #12
 80071e4:	2b08      	cmp	r3, #8
 80071e6:	d061      	beq.n	80072ac <HAL_RCC_OscConfig+0x4b8>
    {
      if ((RCC_OscInitStruct->PLL.PLLState) == RCC_PLL_ON)
 80071e8:	687b      	ldr	r3, [r7, #4]
 80071ea:	69db      	ldr	r3, [r3, #28]
 80071ec:	2b02      	cmp	r3, #2
 80071ee:	d146      	bne.n	800727e <HAL_RCC_OscConfig+0x48a>
        /* Check the parameters */
        assert_param(IS_RCC_PLLSOURCE(RCC_OscInitStruct->PLL.PLLSource));
        assert_param(IS_RCC_PLL_MUL(RCC_OscInitStruct->PLL.PLLMUL));

        /* Disable the main PLL. */
        __HAL_RCC_PLL_DISABLE();
 80071f0:	4b3f      	ldr	r3, [pc, #252]	; (80072f0 <HAL_RCC_OscConfig+0x4fc>)
 80071f2:	2200      	movs	r2, #0
 80071f4:	601a      	str	r2, [r3, #0]

        /* Get Start Tick */
        tickstart = HAL_GetTick();
 80071f6:	f7ff fa45 	bl	8006684 <HAL_GetTick>
 80071fa:	6138      	str	r0, [r7, #16]

        /* Wait till PLL is disabled */
        while (__HAL_RCC_GET_FLAG(RCC_FLAG_PLLRDY)  != RESET)
 80071fc:	e008      	b.n	8007210 <HAL_RCC_OscConfig+0x41c>
        {
          if ((HAL_GetTick() - tickstart) > PLL_TIMEOUT_VALUE)
 80071fe:	f7ff fa41 	bl	8006684 <HAL_GetTick>
 8007202:	4602      	mov	r2, r0
 8007204:	693b      	ldr	r3, [r7, #16]
 8007206:	1ad3      	subs	r3, r2, r3
 8007208:	2b02      	cmp	r3, #2
 800720a:	d901      	bls.n	8007210 <HAL_RCC_OscConfig+0x41c>
          {
            return HAL_TIMEOUT;
 800720c:	2303      	movs	r3, #3
 800720e:	e067      	b.n	80072e0 <HAL_RCC_OscConfig+0x4ec>
        while (__HAL_RCC_GET_FLAG(RCC_FLAG_PLLRDY)  != RESET)
 8007210:	4b35      	ldr	r3, [pc, #212]	; (80072e8 <HAL_RCC_OscConfig+0x4f4>)
 8007212:	681b      	ldr	r3, [r3, #0]
 8007214:	f003 7300 	and.w	r3, r3, #33554432	; 0x2000000
 8007218:	2b00      	cmp	r3, #0
 800721a:	d1f0      	bne.n	80071fe <HAL_RCC_OscConfig+0x40a>
          }
        }

        /* Configure the HSE prediv factor --------------------------------*/
        /* It can be written only when the PLL is disabled. Not used in PLL source is different than HSE */
        if (RCC_OscInitStruct->PLL.PLLSource == RCC_PLLSOURCE_HSE)
 800721c:	687b      	ldr	r3, [r7, #4]
 800721e:	6a1b      	ldr	r3, [r3, #32]
 8007220:	f5b3 3f80 	cmp.w	r3, #65536	; 0x10000
 8007224:	d108      	bne.n	8007238 <HAL_RCC_OscConfig+0x444>
          /* Set PREDIV1 source */
          SET_BIT(RCC->CFGR2, RCC_OscInitStruct->Prediv1Source);
#endif /* RCC_CFGR2_PREDIV1SRC */

          /* Set PREDIV1 Value */
          __HAL_RCC_HSE_PREDIV_CONFIG(RCC_OscInitStruct->HSEPredivValue);
 8007226:	4b30      	ldr	r3, [pc, #192]	; (80072e8 <HAL_RCC_OscConfig+0x4f4>)
 8007228:	685b      	ldr	r3, [r3, #4]
 800722a:	f423 3200 	bic.w	r2, r3, #131072	; 0x20000
 800722e:	687b      	ldr	r3, [r7, #4]
 8007230:	689b      	ldr	r3, [r3, #8]
 8007232:	492d      	ldr	r1, [pc, #180]	; (80072e8 <HAL_RCC_OscConfig+0x4f4>)
 8007234:	4313      	orrs	r3, r2
 8007236:	604b      	str	r3, [r1, #4]
        }

        /* Configure the main PLL clock source and multiplication factors. */
        __HAL_RCC_PLL_CONFIG(RCC_OscInitStruct->PLL.PLLSource,
 8007238:	4b2b      	ldr	r3, [pc, #172]	; (80072e8 <HAL_RCC_OscConfig+0x4f4>)
 800723a:	685b      	ldr	r3, [r3, #4]
 800723c:	f423 1274 	bic.w	r2, r3, #3997696	; 0x3d0000
 8007240:	687b      	ldr	r3, [r7, #4]
 8007242:	6a19      	ldr	r1, [r3, #32]
 8007244:	687b      	ldr	r3, [r7, #4]
 8007246:	6a5b      	ldr	r3, [r3, #36]	; 0x24
 8007248:	430b      	orrs	r3, r1
 800724a:	4927      	ldr	r1, [pc, #156]	; (80072e8 <HAL_RCC_OscConfig+0x4f4>)
 800724c:	4313      	orrs	r3, r2
 800724e:	604b      	str	r3, [r1, #4]
                             RCC_OscInitStruct->PLL.PLLMUL);
        /* Enable the main PLL. */
        __HAL_RCC_PLL_ENABLE();
 8007250:	4b27      	ldr	r3, [pc, #156]	; (80072f0 <HAL_RCC_OscConfig+0x4fc>)
 8007252:	2201      	movs	r2, #1
 8007254:	601a      	str	r2, [r3, #0]

        /* Get Start Tick */
        tickstart = HAL_GetTick();
 8007256:	f7ff fa15 	bl	8006684 <HAL_GetTick>
 800725a:	6138      	str	r0, [r7, #16]

        /* Wait till PLL is ready */
        while (__HAL_RCC_GET_FLAG(RCC_FLAG_PLLRDY)  == RESET)
 800725c:	e008      	b.n	8007270 <HAL_RCC_OscConfig+0x47c>
        {
          if ((HAL_GetTick() - tickstart) > PLL_TIMEOUT_VALUE)
 800725e:	f7ff fa11 	bl	8006684 <HAL_GetTick>
 8007262:	4602      	mov	r2, r0
 8007264:	693b      	ldr	r3, [r7, #16]
 8007266:	1ad3      	subs	r3, r2, r3
 8007268:	2b02      	cmp	r3, #2
 800726a:	d901      	bls.n	8007270 <HAL_RCC_OscConfig+0x47c>
          {
            return HAL_TIMEOUT;
 800726c:	2303      	movs	r3, #3
 800726e:	e037      	b.n	80072e0 <HAL_RCC_OscConfig+0x4ec>
        while (__HAL_RCC_GET_FLAG(RCC_FLAG_PLLRDY)  == RESET)
 8007270:	4b1d      	ldr	r3, [pc, #116]	; (80072e8 <HAL_RCC_OscConfig+0x4f4>)
 8007272:	681b      	ldr	r3, [r3, #0]
 8007274:	f003 7300 	and.w	r3, r3, #33554432	; 0x2000000
 8007278:	2b00      	cmp	r3, #0
 800727a:	d0f0      	beq.n	800725e <HAL_RCC_OscConfig+0x46a>
 800727c:	e02f      	b.n	80072de <HAL_RCC_OscConfig+0x4ea>
        }
      }
      else
      {
        /* Disable the main PLL. */
        __HAL_RCC_PLL_DISABLE();
 800727e:	4b1c      	ldr	r3, [pc, #112]	; (80072f0 <HAL_RCC_OscConfig+0x4fc>)
 8007280:	2200      	movs	r2, #0
 8007282:	601a      	str	r2, [r3, #0]

        /* Get Start Tick */
        tickstart = HAL_GetTick();
 8007284:	f7ff f9fe 	bl	8006684 <HAL_GetTick>
 8007288:	6138      	str	r0, [r7, #16]

        /* Wait till PLL is disabled */
        while (__HAL_RCC_GET_FLAG(RCC_FLAG_PLLRDY)  != RESET)
 800728a:	e008      	b.n	800729e <HAL_RCC_OscConfig+0x4aa>
        {
          if ((HAL_GetTick() - tickstart) > PLL_TIMEOUT_VALUE)
 800728c:	f7ff f9fa 	bl	8006684 <HAL_GetTick>
 8007290:	4602      	mov	r2, r0
 8007292:	693b      	ldr	r3, [r7, #16]
 8007294:	1ad3      	subs	r3, r2, r3
 8007296:	2b02      	cmp	r3, #2
 8007298:	d901      	bls.n	800729e <HAL_RCC_OscConfig+0x4aa>
          {
            return HAL_TIMEOUT;
 800729a:	2303      	movs	r3, #3
 800729c:	e020      	b.n	80072e0 <HAL_RCC_OscConfig+0x4ec>
        while (__HAL_RCC_GET_FLAG(RCC_FLAG_PLLRDY)  != RESET)
 800729e:	4b12      	ldr	r3, [pc, #72]	; (80072e8 <HAL_RCC_OscConfig+0x4f4>)
 80072a0:	681b      	ldr	r3, [r3, #0]
 80072a2:	f003 7300 	and.w	r3, r3, #33554432	; 0x2000000
 80072a6:	2b00      	cmp	r3, #0
 80072a8:	d1f0      	bne.n	800728c <HAL_RCC_OscConfig+0x498>
 80072aa:	e018      	b.n	80072de <HAL_RCC_OscConfig+0x4ea>
      }
    }
    else
    {
      /* Check if there is a request to disable the PLL used as System clock source */
      if ((RCC_OscInitStruct->PLL.PLLState) == RCC_PLL_OFF)
 80072ac:	687b      	ldr	r3, [r7, #4]
 80072ae:	69db      	ldr	r3, [r3, #28]
 80072b0:	2b01      	cmp	r3, #1
 80072b2:	d101      	bne.n	80072b8 <HAL_RCC_OscConfig+0x4c4>
      {
        return HAL_ERROR;
 80072b4:	2301      	movs	r3, #1
 80072b6:	e013      	b.n	80072e0 <HAL_RCC_OscConfig+0x4ec>
      }
      else
      {
        /* Do not return HAL_ERROR if request repeats the current configuration */
        pll_config = RCC->CFGR;
 80072b8:	4b0b      	ldr	r3, [pc, #44]	; (80072e8 <HAL_RCC_OscConfig+0x4f4>)
 80072ba:	685b      	ldr	r3, [r3, #4]
 80072bc:	60fb      	str	r3, [r7, #12]
        if ((READ_BIT(pll_config, RCC_CFGR_PLLSRC) != RCC_OscInitStruct->PLL.PLLSource) ||
 80072be:	68fb      	ldr	r3, [r7, #12]
 80072c0:	f403 3280 	and.w	r2, r3, #65536	; 0x10000
 80072c4:	687b      	ldr	r3, [r7, #4]
 80072c6:	6a1b      	ldr	r3, [r3, #32]
 80072c8:	429a      	cmp	r2, r3
 80072ca:	d106      	bne.n	80072da <HAL_RCC_OscConfig+0x4e6>
            (READ_BIT(pll_config, RCC_CFGR_PLLMULL) != RCC_OscInitStruct->PLL.PLLMUL))
 80072cc:	68fb      	ldr	r3, [r7, #12]
 80072ce:	f403 1270 	and.w	r2, r3, #3932160	; 0x3c0000
 80072d2:	687b      	ldr	r3, [r7, #4]
 80072d4:	6a5b      	ldr	r3, [r3, #36]	; 0x24
        if ((READ_BIT(pll_config, RCC_CFGR_PLLSRC) != RCC_OscInitStruct->PLL.PLLSource) ||
 80072d6:	429a      	cmp	r2, r3
 80072d8:	d001      	beq.n	80072de <HAL_RCC_OscConfig+0x4ea>
        {
          return HAL_ERROR;
 80072da:	2301      	movs	r3, #1
 80072dc:	e000      	b.n	80072e0 <HAL_RCC_OscConfig+0x4ec>
        }
      }
    }
  }

  return HAL_OK;
 80072de:	2300      	movs	r3, #0
}
 80072e0:	4618      	mov	r0, r3
 80072e2:	3718      	adds	r7, #24
 80072e4:	46bd      	mov	sp, r7
 80072e6:	bd80      	pop	{r7, pc}
 80072e8:	40021000 	.word	0x40021000
 80072ec:	40007000 	.word	0x40007000
 80072f0:	42420060 	.word	0x42420060

080072f4 <HAL_RCC_ClockConfig>:
  *         You can use @ref HAL_RCC_GetClockConfig() function to know which clock is
  *         currently used as system clock source.
  * @retval HAL status
  */
HAL_StatusTypeDef HAL_RCC_ClockConfig(RCC_ClkInitTypeDef  *RCC_ClkInitStruct, uint32_t FLatency)
{
 80072f4:	b580      	push	{r7, lr}
 80072f6:	b084      	sub	sp, #16
 80072f8:	af00      	add	r7, sp, #0
 80072fa:	6078      	str	r0, [r7, #4]
 80072fc:	6039      	str	r1, [r7, #0]
  uint32_t tickstart;

  /* Check Null pointer */
  if (RCC_ClkInitStruct == NULL)
 80072fe:	687b      	ldr	r3, [r7, #4]
 8007300:	2b00      	cmp	r3, #0
 8007302:	d101      	bne.n	8007308 <HAL_RCC_ClockConfig+0x14>
  {
    return HAL_ERROR;
 8007304:	2301      	movs	r3, #1
 8007306:	e0d0      	b.n	80074aa <HAL_RCC_ClockConfig+0x1b6>
  must be correctly programmed according to the frequency of the CPU clock
    (HCLK) of the device. */

#if defined(FLASH_ACR_LATENCY)
  /* Increasing the number of wait states because of higher CPU frequency */
  if (FLatency > __HAL_FLASH_GET_LATENCY())
 8007308:	4b6a      	ldr	r3, [pc, #424]	; (80074b4 <HAL_RCC_ClockConfig+0x1c0>)
 800730a:	681b      	ldr	r3, [r3, #0]
 800730c:	f003 0307 	and.w	r3, r3, #7
 8007310:	683a      	ldr	r2, [r7, #0]
 8007312:	429a      	cmp	r2, r3
 8007314:	d910      	bls.n	8007338 <HAL_RCC_ClockConfig+0x44>
  {
    /* Program the new number of wait states to the LATENCY bits in the FLASH_ACR register */
    __HAL_FLASH_SET_LATENCY(FLatency);
 8007316:	4b67      	ldr	r3, [pc, #412]	; (80074b4 <HAL_RCC_ClockConfig+0x1c0>)
 8007318:	681b      	ldr	r3, [r3, #0]
 800731a:	f023 0207 	bic.w	r2, r3, #7
 800731e:	4965      	ldr	r1, [pc, #404]	; (80074b4 <HAL_RCC_ClockConfig+0x1c0>)
 8007320:	683b      	ldr	r3, [r7, #0]
 8007322:	4313      	orrs	r3, r2
 8007324:	600b      	str	r3, [r1, #0]

    /* Check that the new number of wait states is taken into account to access the Flash
    memory by reading the FLASH_ACR register */
    if (__HAL_FLASH_GET_LATENCY() != FLatency)
 8007326:	4b63      	ldr	r3, [pc, #396]	; (80074b4 <HAL_RCC_ClockConfig+0x1c0>)
 8007328:	681b      	ldr	r3, [r3, #0]
 800732a:	f003 0307 	and.w	r3, r3, #7
 800732e:	683a      	ldr	r2, [r7, #0]
 8007330:	429a      	cmp	r2, r3
 8007332:	d001      	beq.n	8007338 <HAL_RCC_ClockConfig+0x44>
  {
    return HAL_ERROR;
 8007334:	2301      	movs	r3, #1
 8007336:	e0b8      	b.n	80074aa <HAL_RCC_ClockConfig+0x1b6>
  }
}

#endif /* FLASH_ACR_LATENCY */
/*-------------------------- HCLK Configuration --------------------------*/
if (((RCC_ClkInitStruct->ClockType) & RCC_CLOCKTYPE_HCLK) == RCC_CLOCKTYPE_HCLK)
 8007338:	687b      	ldr	r3, [r7, #4]
 800733a:	681b      	ldr	r3, [r3, #0]
 800733c:	f003 0302 	and.w	r3, r3, #2
 8007340:	2b00      	cmp	r3, #0
 8007342:	d020      	beq.n	8007386 <HAL_RCC_ClockConfig+0x92>
  {
    /* Set the highest APBx dividers in order to ensure that we do not go through
    a non-spec phase whatever we decrease or increase HCLK. */
    if (((RCC_ClkInitStruct->ClockType) & RCC_CLOCKTYPE_PCLK1) == RCC_CLOCKTYPE_PCLK1)
 8007344:	687b      	ldr	r3, [r7, #4]
 8007346:	681b      	ldr	r3, [r3, #0]
 8007348:	f003 0304 	and.w	r3, r3, #4
 800734c:	2b00      	cmp	r3, #0
 800734e:	d005      	beq.n	800735c <HAL_RCC_ClockConfig+0x68>
    {
      MODIFY_REG(RCC->CFGR, RCC_CFGR_PPRE1, RCC_HCLK_DIV16);
 8007350:	4b59      	ldr	r3, [pc, #356]	; (80074b8 <HAL_RCC_ClockConfig+0x1c4>)
 8007352:	685b      	ldr	r3, [r3, #4]
 8007354:	4a58      	ldr	r2, [pc, #352]	; (80074b8 <HAL_RCC_ClockConfig+0x1c4>)
 8007356:	f443 63e0 	orr.w	r3, r3, #1792	; 0x700
 800735a:	6053      	str	r3, [r2, #4]
    }

    if (((RCC_ClkInitStruct->ClockType) & RCC_CLOCKTYPE_PCLK2) == RCC_CLOCKTYPE_PCLK2)
 800735c:	687b      	ldr	r3, [r7, #4]
 800735e:	681b      	ldr	r3, [r3, #0]
 8007360:	f003 0308 	and.w	r3, r3, #8
 8007364:	2b00      	cmp	r3, #0
 8007366:	d005      	beq.n	8007374 <HAL_RCC_ClockConfig+0x80>
    {
      MODIFY_REG(RCC->CFGR, RCC_CFGR_PPRE2, (RCC_HCLK_DIV16 << 3));
 8007368:	4b53      	ldr	r3, [pc, #332]	; (80074b8 <HAL_RCC_ClockConfig+0x1c4>)
 800736a:	685b      	ldr	r3, [r3, #4]
 800736c:	4a52      	ldr	r2, [pc, #328]	; (80074b8 <HAL_RCC_ClockConfig+0x1c4>)
 800736e:	f443 5360 	orr.w	r3, r3, #14336	; 0x3800
 8007372:	6053      	str	r3, [r2, #4]
    }

    /* Set the new HCLK clock divider */
    assert_param(IS_RCC_HCLK(RCC_ClkInitStruct->AHBCLKDivider));
    MODIFY_REG(RCC->CFGR, RCC_CFGR_HPRE, RCC_ClkInitStruct->AHBCLKDivider);
 8007374:	4b50      	ldr	r3, [pc, #320]	; (80074b8 <HAL_RCC_ClockConfig+0x1c4>)
 8007376:	685b      	ldr	r3, [r3, #4]
 8007378:	f023 02f0 	bic.w	r2, r3, #240	; 0xf0
 800737c:	687b      	ldr	r3, [r7, #4]
 800737e:	689b      	ldr	r3, [r3, #8]
 8007380:	494d      	ldr	r1, [pc, #308]	; (80074b8 <HAL_RCC_ClockConfig+0x1c4>)
 8007382:	4313      	orrs	r3, r2
 8007384:	604b      	str	r3, [r1, #4]
  }

  /*------------------------- SYSCLK Configuration ---------------------------*/
  if (((RCC_ClkInitStruct->ClockType) & RCC_CLOCKTYPE_SYSCLK) == RCC_CLOCKTYPE_SYSCLK)
 8007386:	687b      	ldr	r3, [r7, #4]
 8007388:	681b      	ldr	r3, [r3, #0]
 800738a:	f003 0301 	and.w	r3, r3, #1
 800738e:	2b00      	cmp	r3, #0
 8007390:	d040      	beq.n	8007414 <HAL_RCC_ClockConfig+0x120>
  {
    assert_param(IS_RCC_SYSCLKSOURCE(RCC_ClkInitStruct->SYSCLKSource));

    /* HSE is selected as System Clock Source */
    if (RCC_ClkInitStruct->SYSCLKSource == RCC_SYSCLKSOURCE_HSE)
 8007392:	687b      	ldr	r3, [r7, #4]
 8007394:	685b      	ldr	r3, [r3, #4]
 8007396:	2b01      	cmp	r3, #1
 8007398:	d107      	bne.n	80073aa <HAL_RCC_ClockConfig+0xb6>
    {
      /* Check the HSE ready flag */
      if (__HAL_RCC_GET_FLAG(RCC_FLAG_HSERDY) == RESET)
 800739a:	4b47      	ldr	r3, [pc, #284]	; (80074b8 <HAL_RCC_ClockConfig+0x1c4>)
 800739c:	681b      	ldr	r3, [r3, #0]
 800739e:	f403 3300 	and.w	r3, r3, #131072	; 0x20000
 80073a2:	2b00      	cmp	r3, #0
 80073a4:	d115      	bne.n	80073d2 <HAL_RCC_ClockConfig+0xde>
      {
        return HAL_ERROR;
 80073a6:	2301      	movs	r3, #1
 80073a8:	e07f      	b.n	80074aa <HAL_RCC_ClockConfig+0x1b6>
      }
    }
    /* PLL is selected as System Clock Source */
    else if (RCC_ClkInitStruct->SYSCLKSource == RCC_SYSCLKSOURCE_PLLCLK)
 80073aa:	687b      	ldr	r3, [r7, #4]
 80073ac:	685b      	ldr	r3, [r3, #4]
 80073ae:	2b02      	cmp	r3, #2
 80073b0:	d107      	bne.n	80073c2 <HAL_RCC_ClockConfig+0xce>
    {
      /* Check the PLL ready flag */
      if (__HAL_RCC_GET_FLAG(RCC_FLAG_PLLRDY) == RESET)
 80073b2:	4b41      	ldr	r3, [pc, #260]	; (80074b8 <HAL_RCC_ClockConfig+0x1c4>)
 80073b4:	681b      	ldr	r3, [r3, #0]
 80073b6:	f003 7300 	and.w	r3, r3, #33554432	; 0x2000000
 80073ba:	2b00      	cmp	r3, #0
 80073bc:	d109      	bne.n	80073d2 <HAL_RCC_ClockConfig+0xde>
      {
        return HAL_ERROR;
 80073be:	2301      	movs	r3, #1
 80073c0:	e073      	b.n	80074aa <HAL_RCC_ClockConfig+0x1b6>
    }
    /* HSI is selected as System Clock Source */
    else
    {
      /* Check the HSI ready flag */
      if (__HAL_RCC_GET_FLAG(RCC_FLAG_HSIRDY) == RESET)
 80073c2:	4b3d      	ldr	r3, [pc, #244]	; (80074b8 <HAL_RCC_ClockConfig+0x1c4>)
 80073c4:	681b      	ldr	r3, [r3, #0]
 80073c6:	f003 0302 	and.w	r3, r3, #2
 80073ca:	2b00      	cmp	r3, #0
 80073cc:	d101      	bne.n	80073d2 <HAL_RCC_ClockConfig+0xde>
      {
        return HAL_ERROR;
 80073ce:	2301      	movs	r3, #1
 80073d0:	e06b      	b.n	80074aa <HAL_RCC_ClockConfig+0x1b6>
      }
    }
    __HAL_RCC_SYSCLK_CONFIG(RCC_ClkInitStruct->SYSCLKSource);
 80073d2:	4b39      	ldr	r3, [pc, #228]	; (80074b8 <HAL_RCC_ClockConfig+0x1c4>)
 80073d4:	685b      	ldr	r3, [r3, #4]
 80073d6:	f023 0203 	bic.w	r2, r3, #3
 80073da:	687b      	ldr	r3, [r7, #4]
 80073dc:	685b      	ldr	r3, [r3, #4]
 80073de:	4936      	ldr	r1, [pc, #216]	; (80074b8 <HAL_RCC_ClockConfig+0x1c4>)
 80073e0:	4313      	orrs	r3, r2
 80073e2:	604b      	str	r3, [r1, #4]

    /* Get Start Tick */
    tickstart = HAL_GetTick();
 80073e4:	f7ff f94e 	bl	8006684 <HAL_GetTick>
 80073e8:	60f8      	str	r0, [r7, #12]

    while (__HAL_RCC_GET_SYSCLK_SOURCE() != (RCC_ClkInitStruct->SYSCLKSource << RCC_CFGR_SWS_Pos))
 80073ea:	e00a      	b.n	8007402 <HAL_RCC_ClockConfig+0x10e>
    {
      if ((HAL_GetTick() - tickstart) > CLOCKSWITCH_TIMEOUT_VALUE)
 80073ec:	f7ff f94a 	bl	8006684 <HAL_GetTick>
 80073f0:	4602      	mov	r2, r0
 80073f2:	68fb      	ldr	r3, [r7, #12]
 80073f4:	1ad3      	subs	r3, r2, r3
 80073f6:	f241 3288 	movw	r2, #5000	; 0x1388
 80073fa:	4293      	cmp	r3, r2
 80073fc:	d901      	bls.n	8007402 <HAL_RCC_ClockConfig+0x10e>
      {
        return HAL_TIMEOUT;
 80073fe:	2303      	movs	r3, #3
 8007400:	e053      	b.n	80074aa <HAL_RCC_ClockConfig+0x1b6>
    while (__HAL_RCC_GET_SYSCLK_SOURCE() != (RCC_ClkInitStruct->SYSCLKSource << RCC_CFGR_SWS_Pos))
 8007402:	4b2d      	ldr	r3, [pc, #180]	; (80074b8 <HAL_RCC_ClockConfig+0x1c4>)
 8007404:	685b      	ldr	r3, [r3, #4]
 8007406:	f003 020c 	and.w	r2, r3, #12
 800740a:	687b      	ldr	r3, [r7, #4]
 800740c:	685b      	ldr	r3, [r3, #4]
 800740e:	009b      	lsls	r3, r3, #2
 8007410:	429a      	cmp	r2, r3
 8007412:	d1eb      	bne.n	80073ec <HAL_RCC_ClockConfig+0xf8>
    }
  }

#if defined(FLASH_ACR_LATENCY)
  /* Decreasing the number of wait states because of lower CPU frequency */
  if (FLatency < __HAL_FLASH_GET_LATENCY())
 8007414:	4b27      	ldr	r3, [pc, #156]	; (80074b4 <HAL_RCC_ClockConfig+0x1c0>)
 8007416:	681b      	ldr	r3, [r3, #0]
 8007418:	f003 0307 	and.w	r3, r3, #7
 800741c:	683a      	ldr	r2, [r7, #0]
 800741e:	429a      	cmp	r2, r3
 8007420:	d210      	bcs.n	8007444 <HAL_RCC_ClockConfig+0x150>
  {
    /* Program the new number of wait states to the LATENCY bits in the FLASH_ACR register */
    __HAL_FLASH_SET_LATENCY(FLatency);
 8007422:	4b24      	ldr	r3, [pc, #144]	; (80074b4 <HAL_RCC_ClockConfig+0x1c0>)
 8007424:	681b      	ldr	r3, [r3, #0]
 8007426:	f023 0207 	bic.w	r2, r3, #7
 800742a:	4922      	ldr	r1, [pc, #136]	; (80074b4 <HAL_RCC_ClockConfig+0x1c0>)
 800742c:	683b      	ldr	r3, [r7, #0]
 800742e:	4313      	orrs	r3, r2
 8007430:	600b      	str	r3, [r1, #0]

    /* Check that the new number of wait states is taken into account to access the Flash
    memory by reading the FLASH_ACR register */
    if (__HAL_FLASH_GET_LATENCY() != FLatency)
 8007432:	4b20      	ldr	r3, [pc, #128]	; (80074b4 <HAL_RCC_ClockConfig+0x1c0>)
 8007434:	681b      	ldr	r3, [r3, #0]
 8007436:	f003 0307 	and.w	r3, r3, #7
 800743a:	683a      	ldr	r2, [r7, #0]
 800743c:	429a      	cmp	r2, r3
 800743e:	d001      	beq.n	8007444 <HAL_RCC_ClockConfig+0x150>
  {
    return HAL_ERROR;
 8007440:	2301      	movs	r3, #1
 8007442:	e032      	b.n	80074aa <HAL_RCC_ClockConfig+0x1b6>
  }
}
#endif /* FLASH_ACR_LATENCY */

/*-------------------------- PCLK1 Configuration ---------------------------*/
if (((RCC_ClkInitStruct->ClockType) & RCC_CLOCKTYPE_PCLK1) == RCC_CLOCKTYPE_PCLK1)
 8007444:	687b      	ldr	r3, [r7, #4]
 8007446:	681b      	ldr	r3, [r3, #0]
 8007448:	f003 0304 	and.w	r3, r3, #4
 800744c:	2b00      	cmp	r3, #0
 800744e:	d008      	beq.n	8007462 <HAL_RCC_ClockConfig+0x16e>
  {
    assert_param(IS_RCC_PCLK(RCC_ClkInitStruct->APB1CLKDivider));
    MODIFY_REG(RCC->CFGR, RCC_CFGR_PPRE1, RCC_ClkInitStruct->APB1CLKDivider);
 8007450:	4b19      	ldr	r3, [pc, #100]	; (80074b8 <HAL_RCC_ClockConfig+0x1c4>)
 8007452:	685b      	ldr	r3, [r3, #4]
 8007454:	f423 62e0 	bic.w	r2, r3, #1792	; 0x700
 8007458:	687b      	ldr	r3, [r7, #4]
 800745a:	68db      	ldr	r3, [r3, #12]
 800745c:	4916      	ldr	r1, [pc, #88]	; (80074b8 <HAL_RCC_ClockConfig+0x1c4>)
 800745e:	4313      	orrs	r3, r2
 8007460:	604b      	str	r3, [r1, #4]
  }

  /*-------------------------- PCLK2 Configuration ---------------------------*/
  if (((RCC_ClkInitStruct->ClockType) & RCC_CLOCKTYPE_PCLK2) == RCC_CLOCKTYPE_PCLK2)
 8007462:	687b      	ldr	r3, [r7, #4]
 8007464:	681b      	ldr	r3, [r3, #0]
 8007466:	f003 0308 	and.w	r3, r3, #8
 800746a:	2b00      	cmp	r3, #0
 800746c:	d009      	beq.n	8007482 <HAL_RCC_ClockConfig+0x18e>
  {
    assert_param(IS_RCC_PCLK(RCC_ClkInitStruct->APB2CLKDivider));
    MODIFY_REG(RCC->CFGR, RCC_CFGR_PPRE2, ((RCC_ClkInitStruct->APB2CLKDivider) << 3));
 800746e:	4b12      	ldr	r3, [pc, #72]	; (80074b8 <HAL_RCC_ClockConfig+0x1c4>)
 8007470:	685b      	ldr	r3, [r3, #4]
 8007472:	f423 5260 	bic.w	r2, r3, #14336	; 0x3800
 8007476:	687b      	ldr	r3, [r7, #4]
 8007478:	691b      	ldr	r3, [r3, #16]
 800747a:	00db      	lsls	r3, r3, #3
 800747c:	490e      	ldr	r1, [pc, #56]	; (80074b8 <HAL_RCC_ClockConfig+0x1c4>)
 800747e:	4313      	orrs	r3, r2
 8007480:	604b      	str	r3, [r1, #4]
  }

  /* Update the SystemCoreClock global variable */
  SystemCoreClock = HAL_RCC_GetSysClockFreq() >> AHBPrescTable[(RCC->CFGR & RCC_CFGR_HPRE) >> RCC_CFGR_HPRE_Pos];
 8007482:	f000 f821 	bl	80074c8 <HAL_RCC_GetSysClockFreq>
 8007486:	4602      	mov	r2, r0
 8007488:	4b0b      	ldr	r3, [pc, #44]	; (80074b8 <HAL_RCC_ClockConfig+0x1c4>)
 800748a:	685b      	ldr	r3, [r3, #4]
 800748c:	091b      	lsrs	r3, r3, #4
 800748e:	f003 030f 	and.w	r3, r3, #15
 8007492:	490a      	ldr	r1, [pc, #40]	; (80074bc <HAL_RCC_ClockConfig+0x1c8>)
 8007494:	5ccb      	ldrb	r3, [r1, r3]
 8007496:	fa22 f303 	lsr.w	r3, r2, r3
 800749a:	4a09      	ldr	r2, [pc, #36]	; (80074c0 <HAL_RCC_ClockConfig+0x1cc>)
 800749c:	6013      	str	r3, [r2, #0]

  /* Configure the source of time base considering new system clocks settings*/
  HAL_InitTick(uwTickPrio);
 800749e:	4b09      	ldr	r3, [pc, #36]	; (80074c4 <HAL_RCC_ClockConfig+0x1d0>)
 80074a0:	681b      	ldr	r3, [r3, #0]
 80074a2:	4618      	mov	r0, r3
 80074a4:	f7ff f8ac 	bl	8006600 <HAL_InitTick>

  return HAL_OK;
 80074a8:	2300      	movs	r3, #0
}
 80074aa:	4618      	mov	r0, r3
 80074ac:	3710      	adds	r7, #16
 80074ae:	46bd      	mov	sp, r7
 80074b0:	bd80      	pop	{r7, pc}
 80074b2:	bf00      	nop
 80074b4:	40022000 	.word	0x40022000
 80074b8:	40021000 	.word	0x40021000
 80074bc:	08008d80 	.word	0x08008d80
 80074c0:	2000003c 	.word	0x2000003c
 80074c4:	20000040 	.word	0x20000040

080074c8 <HAL_RCC_GetSysClockFreq>:
  *         right SYSCLK value. Otherwise, any configuration based on this function will be incorrect.
  *
  * @retval SYSCLK frequency
  */
uint32_t HAL_RCC_GetSysClockFreq(void)
{
 80074c8:	b490      	push	{r4, r7}
 80074ca:	b08a      	sub	sp, #40	; 0x28
 80074cc:	af00      	add	r7, sp, #0
#if defined(RCC_CFGR2_PREDIV1SRC)
  const uint8_t aPLLMULFactorTable[14] = {0, 0, 4, 5, 6, 7, 8, 9, 0, 0, 0, 0, 0, 13};
  const uint8_t aPredivFactorTable[16] = {1, 2, 3, 4, 5, 6, 7, 8, 9, 10, 11, 12, 13, 14, 15, 16};
#else
  const uint8_t aPLLMULFactorTable[16] = {2, 3, 4, 5, 6, 7, 8, 9, 10, 11, 12, 13, 14, 15, 16, 16};
 80074ce:	4b2a      	ldr	r3, [pc, #168]	; (8007578 <HAL_RCC_GetSysClockFreq+0xb0>)
 80074d0:	1d3c      	adds	r4, r7, #4
 80074d2:	cb0f      	ldmia	r3, {r0, r1, r2, r3}
 80074d4:	e884 000f 	stmia.w	r4, {r0, r1, r2, r3}
#if defined(RCC_CFGR2_PREDIV1)
  const uint8_t aPredivFactorTable[16] = {1, 2, 3, 4, 5, 6, 7, 8, 9, 10, 11, 12, 13, 14, 15, 16};
#else
  const uint8_t aPredivFactorTable[2] = {1, 2};
 80074d8:	f240 2301 	movw	r3, #513	; 0x201
 80074dc:	803b      	strh	r3, [r7, #0]
#endif /*RCC_CFGR2_PREDIV1*/

#endif
  uint32_t tmpreg = 0U, prediv = 0U, pllclk = 0U, pllmul = 0U;
 80074de:	2300      	movs	r3, #0
 80074e0:	61fb      	str	r3, [r7, #28]
 80074e2:	2300      	movs	r3, #0
 80074e4:	61bb      	str	r3, [r7, #24]
 80074e6:	2300      	movs	r3, #0
 80074e8:	627b      	str	r3, [r7, #36]	; 0x24
 80074ea:	2300      	movs	r3, #0
 80074ec:	617b      	str	r3, [r7, #20]
  uint32_t sysclockfreq = 0U;
 80074ee:	2300      	movs	r3, #0
 80074f0:	623b      	str	r3, [r7, #32]
#if defined(RCC_CFGR2_PREDIV1SRC)
  uint32_t prediv2 = 0U, pll2mul = 0U;
#endif /*RCC_CFGR2_PREDIV1SRC*/

  tmpreg = RCC->CFGR;
 80074f2:	4b22      	ldr	r3, [pc, #136]	; (800757c <HAL_RCC_GetSysClockFreq+0xb4>)
 80074f4:	685b      	ldr	r3, [r3, #4]
 80074f6:	61fb      	str	r3, [r7, #28]

  /* Get SYSCLK source -------------------------------------------------------*/
  switch (tmpreg & RCC_CFGR_SWS)
 80074f8:	69fb      	ldr	r3, [r7, #28]
 80074fa:	f003 030c 	and.w	r3, r3, #12
 80074fe:	2b04      	cmp	r3, #4
 8007500:	d002      	beq.n	8007508 <HAL_RCC_GetSysClockFreq+0x40>
 8007502:	2b08      	cmp	r3, #8
 8007504:	d003      	beq.n	800750e <HAL_RCC_GetSysClockFreq+0x46>
 8007506:	e02d      	b.n	8007564 <HAL_RCC_GetSysClockFreq+0x9c>
  {
    case RCC_SYSCLKSOURCE_STATUS_HSE:  /* HSE used as system clock */
    {
      sysclockfreq = HSE_VALUE;
 8007508:	4b1d      	ldr	r3, [pc, #116]	; (8007580 <HAL_RCC_GetSysClockFreq+0xb8>)
 800750a:	623b      	str	r3, [r7, #32]
      break;
 800750c:	e02d      	b.n	800756a <HAL_RCC_GetSysClockFreq+0xa2>
    }
    case RCC_SYSCLKSOURCE_STATUS_PLLCLK:  /* PLL used as system clock */
    {
      pllmul = aPLLMULFactorTable[(uint32_t)(tmpreg & RCC_CFGR_PLLMULL) >> RCC_CFGR_PLLMULL_Pos];
 800750e:	69fb      	ldr	r3, [r7, #28]
 8007510:	0c9b      	lsrs	r3, r3, #18
 8007512:	f003 030f 	and.w	r3, r3, #15
 8007516:	f107 0228 	add.w	r2, r7, #40	; 0x28
 800751a:	4413      	add	r3, r2
 800751c:	f813 3c24 	ldrb.w	r3, [r3, #-36]
 8007520:	617b      	str	r3, [r7, #20]
      if ((tmpreg & RCC_CFGR_PLLSRC) != RCC_PLLSOURCE_HSI_DIV2)
 8007522:	69fb      	ldr	r3, [r7, #28]
 8007524:	f403 3380 	and.w	r3, r3, #65536	; 0x10000
 8007528:	2b00      	cmp	r3, #0
 800752a:	d013      	beq.n	8007554 <HAL_RCC_GetSysClockFreq+0x8c>
      {
#if defined(RCC_CFGR2_PREDIV1)
        prediv = aPredivFactorTable[(uint32_t)(RCC->CFGR2 & RCC_CFGR2_PREDIV1) >> RCC_CFGR2_PREDIV1_Pos];
#else
        prediv = aPredivFactorTable[(uint32_t)(RCC->CFGR & RCC_CFGR_PLLXTPRE) >> RCC_CFGR_PLLXTPRE_Pos];
 800752c:	4b13      	ldr	r3, [pc, #76]	; (800757c <HAL_RCC_GetSysClockFreq+0xb4>)
 800752e:	685b      	ldr	r3, [r3, #4]
 8007530:	0c5b      	lsrs	r3, r3, #17
 8007532:	f003 0301 	and.w	r3, r3, #1
 8007536:	f107 0228 	add.w	r2, r7, #40	; 0x28
 800753a:	4413      	add	r3, r2
 800753c:	f813 3c28 	ldrb.w	r3, [r3, #-40]
 8007540:	61bb      	str	r3, [r7, #24]
        {
          pllclk = pllclk / 2;
        }
#else
        /* HSE used as PLL clock source : PLLCLK = HSE/PREDIV1 * PLLMUL */
        pllclk = (uint32_t)((HSE_VALUE  * pllmul) / prediv);
 8007542:	697b      	ldr	r3, [r7, #20]
 8007544:	4a0e      	ldr	r2, [pc, #56]	; (8007580 <HAL_RCC_GetSysClockFreq+0xb8>)
 8007546:	fb02 f203 	mul.w	r2, r2, r3
 800754a:	69bb      	ldr	r3, [r7, #24]
 800754c:	fbb2 f3f3 	udiv	r3, r2, r3
 8007550:	627b      	str	r3, [r7, #36]	; 0x24
 8007552:	e004      	b.n	800755e <HAL_RCC_GetSysClockFreq+0x96>
#endif /*RCC_CFGR2_PREDIV1SRC*/
      }
      else
      {
        /* HSI used as PLL clock source : PLLCLK = HSI/2 * PLLMUL */
        pllclk = (uint32_t)((HSI_VALUE >> 1) * pllmul);
 8007554:	697b      	ldr	r3, [r7, #20]
 8007556:	4a0b      	ldr	r2, [pc, #44]	; (8007584 <HAL_RCC_GetSysClockFreq+0xbc>)
 8007558:	fb02 f303 	mul.w	r3, r2, r3
 800755c:	627b      	str	r3, [r7, #36]	; 0x24
      }
      sysclockfreq = pllclk;
 800755e:	6a7b      	ldr	r3, [r7, #36]	; 0x24
 8007560:	623b      	str	r3, [r7, #32]
      break;
 8007562:	e002      	b.n	800756a <HAL_RCC_GetSysClockFreq+0xa2>
    }
    case RCC_SYSCLKSOURCE_STATUS_HSI:  /* HSI used as system clock source */
    default: /* HSI used as system clock */
    {
      sysclockfreq = HSI_VALUE;
 8007564:	4b06      	ldr	r3, [pc, #24]	; (8007580 <HAL_RCC_GetSysClockFreq+0xb8>)
 8007566:	623b      	str	r3, [r7, #32]
      break;
 8007568:	bf00      	nop
    }
  }
  return sysclockfreq;
 800756a:	6a3b      	ldr	r3, [r7, #32]
}
 800756c:	4618      	mov	r0, r3
 800756e:	3728      	adds	r7, #40	; 0x28
 8007570:	46bd      	mov	sp, r7
 8007572:	bc90      	pop	{r4, r7}
 8007574:	4770      	bx	lr
 8007576:	bf00      	nop
 8007578:	08008ab4 	.word	0x08008ab4
 800757c:	40021000 	.word	0x40021000
 8007580:	007a1200 	.word	0x007a1200
 8007584:	003d0900 	.word	0x003d0900

08007588 <HAL_RCC_GetHCLKFreq>:
  * @note   The SystemCoreClock CMSIS variable is used to store System Clock Frequency
  *         and updated within this function
  * @retval HCLK frequency
  */
uint32_t HAL_RCC_GetHCLKFreq(void)
{
 8007588:	b480      	push	{r7}
 800758a:	af00      	add	r7, sp, #0
  return SystemCoreClock;
 800758c:	4b02      	ldr	r3, [pc, #8]	; (8007598 <HAL_RCC_GetHCLKFreq+0x10>)
 800758e:	681b      	ldr	r3, [r3, #0]
}
 8007590:	4618      	mov	r0, r3
 8007592:	46bd      	mov	sp, r7
 8007594:	bc80      	pop	{r7}
 8007596:	4770      	bx	lr
 8007598:	2000003c 	.word	0x2000003c

0800759c <HAL_RCC_GetPCLK1Freq>:
  * @note   Each time PCLK1 changes, this function must be called to update the
  *         right PCLK1 value. Otherwise, any configuration based on this function will be incorrect.
  * @retval PCLK1 frequency
  */
uint32_t HAL_RCC_GetPCLK1Freq(void)
{
 800759c:	b580      	push	{r7, lr}
 800759e:	af00      	add	r7, sp, #0
  /* Get HCLK source and Compute PCLK1 frequency ---------------------------*/
  return (HAL_RCC_GetHCLKFreq() >> APBPrescTable[(RCC->CFGR & RCC_CFGR_PPRE1) >> RCC_CFGR_PPRE1_Pos]);
 80075a0:	f7ff fff2 	bl	8007588 <HAL_RCC_GetHCLKFreq>
 80075a4:	4602      	mov	r2, r0
 80075a6:	4b05      	ldr	r3, [pc, #20]	; (80075bc <HAL_RCC_GetPCLK1Freq+0x20>)
 80075a8:	685b      	ldr	r3, [r3, #4]
 80075aa:	0a1b      	lsrs	r3, r3, #8
 80075ac:	f003 0307 	and.w	r3, r3, #7
 80075b0:	4903      	ldr	r1, [pc, #12]	; (80075c0 <HAL_RCC_GetPCLK1Freq+0x24>)
 80075b2:	5ccb      	ldrb	r3, [r1, r3]
 80075b4:	fa22 f303 	lsr.w	r3, r2, r3
}
 80075b8:	4618      	mov	r0, r3
 80075ba:	bd80      	pop	{r7, pc}
 80075bc:	40021000 	.word	0x40021000
 80075c0:	08008d90 	.word	0x08008d90

080075c4 <HAL_RCC_GetPCLK2Freq>:
  * @note   Each time PCLK2 changes, this function must be called to update the
  *         right PCLK2 value. Otherwise, any configuration based on this function will be incorrect.
  * @retval PCLK2 frequency
  */
uint32_t HAL_RCC_GetPCLK2Freq(void)
{
 80075c4:	b580      	push	{r7, lr}
 80075c6:	af00      	add	r7, sp, #0
  /* Get HCLK source and Compute PCLK2 frequency ---------------------------*/
  return (HAL_RCC_GetHCLKFreq() >> APBPrescTable[(RCC->CFGR & RCC_CFGR_PPRE2) >> RCC_CFGR_PPRE2_Pos]);
 80075c8:	f7ff ffde 	bl	8007588 <HAL_RCC_GetHCLKFreq>
 80075cc:	4602      	mov	r2, r0
 80075ce:	4b05      	ldr	r3, [pc, #20]	; (80075e4 <HAL_RCC_GetPCLK2Freq+0x20>)
 80075d0:	685b      	ldr	r3, [r3, #4]
 80075d2:	0adb      	lsrs	r3, r3, #11
 80075d4:	f003 0307 	and.w	r3, r3, #7
 80075d8:	4903      	ldr	r1, [pc, #12]	; (80075e8 <HAL_RCC_GetPCLK2Freq+0x24>)
 80075da:	5ccb      	ldrb	r3, [r1, r3]
 80075dc:	fa22 f303 	lsr.w	r3, r2, r3
}
 80075e0:	4618      	mov	r0, r3
 80075e2:	bd80      	pop	{r7, pc}
 80075e4:	40021000 	.word	0x40021000
 80075e8:	08008d90 	.word	0x08008d90

080075ec <RCC_Delay>:
  * @brief  This function provides delay (in milliseconds) based on CPU cycles method.
  * @param  mdelay: specifies the delay time length, in milliseconds.
  * @retval None
  */
static void RCC_Delay(uint32_t mdelay)
{
 80075ec:	b480      	push	{r7}
 80075ee:	b085      	sub	sp, #20
 80075f0:	af00      	add	r7, sp, #0
 80075f2:	6078      	str	r0, [r7, #4]
  __IO uint32_t Delay = mdelay * (SystemCoreClock / 8U / 1000U);
 80075f4:	4b0a      	ldr	r3, [pc, #40]	; (8007620 <RCC_Delay+0x34>)
 80075f6:	681b      	ldr	r3, [r3, #0]
 80075f8:	4a0a      	ldr	r2, [pc, #40]	; (8007624 <RCC_Delay+0x38>)
 80075fa:	fba2 2303 	umull	r2, r3, r2, r3
 80075fe:	0a5b      	lsrs	r3, r3, #9
 8007600:	687a      	ldr	r2, [r7, #4]
 8007602:	fb02 f303 	mul.w	r3, r2, r3
 8007606:	60fb      	str	r3, [r7, #12]
  do
  {
    __NOP();
 8007608:	bf00      	nop
  }
  while (Delay --);
 800760a:	68fb      	ldr	r3, [r7, #12]
 800760c:	1e5a      	subs	r2, r3, #1
 800760e:	60fa      	str	r2, [r7, #12]
 8007610:	2b00      	cmp	r3, #0
 8007612:	d1f9      	bne.n	8007608 <RCC_Delay+0x1c>
}
 8007614:	bf00      	nop
 8007616:	bf00      	nop
 8007618:	3714      	adds	r7, #20
 800761a:	46bd      	mov	sp, r7
 800761c:	bc80      	pop	{r7}
 800761e:	4770      	bx	lr
 8007620:	2000003c 	.word	0x2000003c
 8007624:	10624dd3 	.word	0x10624dd3

08007628 <HAL_SPI_Init>:
  * @param  hspi pointer to a SPI_HandleTypeDef structure that contains
  *               the configuration information for SPI module.
  * @retval HAL status
  */
HAL_StatusTypeDef HAL_SPI_Init(SPI_HandleTypeDef *hspi)
{
 8007628:	b580      	push	{r7, lr}
 800762a:	b082      	sub	sp, #8
 800762c:	af00      	add	r7, sp, #0
 800762e:	6078      	str	r0, [r7, #4]
  /* Check the SPI handle allocation */
  if (hspi == NULL)
 8007630:	687b      	ldr	r3, [r7, #4]
 8007632:	2b00      	cmp	r3, #0
 8007634:	d101      	bne.n	800763a <HAL_SPI_Init+0x12>
  {
    return HAL_ERROR;
 8007636:	2301      	movs	r3, #1
 8007638:	e076      	b.n	8007728 <HAL_SPI_Init+0x100>
  assert_param(IS_SPI_BAUDRATE_PRESCALER(hspi->Init.BaudRatePrescaler));
  assert_param(IS_SPI_FIRST_BIT(hspi->Init.FirstBit));
  /* TI mode is not supported on this device.
     TIMode parameter is mandatory equal to SPI_TIMODE_DISABLE */
  assert_param(IS_SPI_TIMODE(hspi->Init.TIMode));
  if (hspi->Init.TIMode == SPI_TIMODE_DISABLE)
 800763a:	687b      	ldr	r3, [r7, #4]
 800763c:	6a5b      	ldr	r3, [r3, #36]	; 0x24
 800763e:	2b00      	cmp	r3, #0
 8007640:	d108      	bne.n	8007654 <HAL_SPI_Init+0x2c>
  {
    assert_param(IS_SPI_CPOL(hspi->Init.CLKPolarity));
    assert_param(IS_SPI_CPHA(hspi->Init.CLKPhase));

    if (hspi->Init.Mode == SPI_MODE_MASTER)
 8007642:	687b      	ldr	r3, [r7, #4]
 8007644:	685b      	ldr	r3, [r3, #4]
 8007646:	f5b3 7f82 	cmp.w	r3, #260	; 0x104
 800764a:	d009      	beq.n	8007660 <HAL_SPI_Init+0x38>
      assert_param(IS_SPI_BAUDRATE_PRESCALER(hspi->Init.BaudRatePrescaler));
    }
    else
    {
      /* Baudrate prescaler not use in Motoraola Slave mode. force to default value */
      hspi->Init.BaudRatePrescaler = SPI_BAUDRATEPRESCALER_2;
 800764c:	687b      	ldr	r3, [r7, #4]
 800764e:	2200      	movs	r2, #0
 8007650:	61da      	str	r2, [r3, #28]
 8007652:	e005      	b.n	8007660 <HAL_SPI_Init+0x38>
  else
  {
    assert_param(IS_SPI_BAUDRATE_PRESCALER(hspi->Init.BaudRatePrescaler));

    /* Force polarity and phase to TI protocaol requirements */
    hspi->Init.CLKPolarity = SPI_POLARITY_LOW;
 8007654:	687b      	ldr	r3, [r7, #4]
 8007656:	2200      	movs	r2, #0
 8007658:	611a      	str	r2, [r3, #16]
    hspi->Init.CLKPhase    = SPI_PHASE_1EDGE;
 800765a:	687b      	ldr	r3, [r7, #4]
 800765c:	2200      	movs	r2, #0
 800765e:	615a      	str	r2, [r3, #20]
  if (hspi->Init.CRCCalculation == SPI_CRCCALCULATION_ENABLE)
  {
    assert_param(IS_SPI_CRC_POLYNOMIAL(hspi->Init.CRCPolynomial));
  }
#else
  hspi->Init.CRCCalculation = SPI_CRCCALCULATION_DISABLE;
 8007660:	687b      	ldr	r3, [r7, #4]
 8007662:	2200      	movs	r2, #0
 8007664:	629a      	str	r2, [r3, #40]	; 0x28
#endif /* USE_SPI_CRC */

  if (hspi->State == HAL_SPI_STATE_RESET)
 8007666:	687b      	ldr	r3, [r7, #4]
 8007668:	f893 3051 	ldrb.w	r3, [r3, #81]	; 0x51
 800766c:	b2db      	uxtb	r3, r3
 800766e:	2b00      	cmp	r3, #0
 8007670:	d106      	bne.n	8007680 <HAL_SPI_Init+0x58>
  {
    /* Allocate lock resource and initialize it */
    hspi->Lock = HAL_UNLOCKED;
 8007672:	687b      	ldr	r3, [r7, #4]
 8007674:	2200      	movs	r2, #0
 8007676:	f883 2050 	strb.w	r2, [r3, #80]	; 0x50

    /* Init the low level hardware : GPIO, CLOCK, NVIC... */
    hspi->MspInitCallback(hspi);
#else
    /* Init the low level hardware : GPIO, CLOCK, NVIC... */
    HAL_SPI_MspInit(hspi);
 800767a:	6878      	ldr	r0, [r7, #4]
 800767c:	f7fc faea 	bl	8003c54 <HAL_SPI_MspInit>
#endif /* USE_HAL_SPI_REGISTER_CALLBACKS */
  }

  hspi->State = HAL_SPI_STATE_BUSY;
 8007680:	687b      	ldr	r3, [r7, #4]
 8007682:	2202      	movs	r2, #2
 8007684:	f883 2051 	strb.w	r2, [r3, #81]	; 0x51

  /* Disable the selected SPI peripheral */
  __HAL_SPI_DISABLE(hspi);
 8007688:	687b      	ldr	r3, [r7, #4]
 800768a:	681b      	ldr	r3, [r3, #0]
 800768c:	681a      	ldr	r2, [r3, #0]
 800768e:	687b      	ldr	r3, [r7, #4]
 8007690:	681b      	ldr	r3, [r3, #0]
 8007692:	f022 0240 	bic.w	r2, r2, #64	; 0x40
 8007696:	601a      	str	r2, [r3, #0]

  /*----------------------- SPIx CR1 & CR2 Configuration ---------------------*/
  /* Configure : SPI Mode, Communication Mode, Data size, Clock polarity and phase, NSS management,
  Communication speed, First bit and CRC calculation state */
  WRITE_REG(hspi->Instance->CR1, ((hspi->Init.Mode & (SPI_CR1_MSTR | SPI_CR1_SSI)) |
 8007698:	687b      	ldr	r3, [r7, #4]
 800769a:	685b      	ldr	r3, [r3, #4]
 800769c:	f403 7282 	and.w	r2, r3, #260	; 0x104
 80076a0:	687b      	ldr	r3, [r7, #4]
 80076a2:	689b      	ldr	r3, [r3, #8]
 80076a4:	f403 4304 	and.w	r3, r3, #33792	; 0x8400
 80076a8:	431a      	orrs	r2, r3
 80076aa:	687b      	ldr	r3, [r7, #4]
 80076ac:	68db      	ldr	r3, [r3, #12]
 80076ae:	f403 6300 	and.w	r3, r3, #2048	; 0x800
 80076b2:	431a      	orrs	r2, r3
 80076b4:	687b      	ldr	r3, [r7, #4]
 80076b6:	691b      	ldr	r3, [r3, #16]
 80076b8:	f003 0302 	and.w	r3, r3, #2
 80076bc:	431a      	orrs	r2, r3
 80076be:	687b      	ldr	r3, [r7, #4]
 80076c0:	695b      	ldr	r3, [r3, #20]
 80076c2:	f003 0301 	and.w	r3, r3, #1
 80076c6:	431a      	orrs	r2, r3
 80076c8:	687b      	ldr	r3, [r7, #4]
 80076ca:	699b      	ldr	r3, [r3, #24]
 80076cc:	f403 7300 	and.w	r3, r3, #512	; 0x200
 80076d0:	431a      	orrs	r2, r3
 80076d2:	687b      	ldr	r3, [r7, #4]
 80076d4:	69db      	ldr	r3, [r3, #28]
 80076d6:	f003 0338 	and.w	r3, r3, #56	; 0x38
 80076da:	431a      	orrs	r2, r3
 80076dc:	687b      	ldr	r3, [r7, #4]
 80076de:	6a1b      	ldr	r3, [r3, #32]
 80076e0:	f003 0380 	and.w	r3, r3, #128	; 0x80
 80076e4:	ea42 0103 	orr.w	r1, r2, r3
 80076e8:	687b      	ldr	r3, [r7, #4]
 80076ea:	6a9b      	ldr	r3, [r3, #40]	; 0x28
 80076ec:	f403 5200 	and.w	r2, r3, #8192	; 0x2000
 80076f0:	687b      	ldr	r3, [r7, #4]
 80076f2:	681b      	ldr	r3, [r3, #0]
 80076f4:	430a      	orrs	r2, r1
 80076f6:	601a      	str	r2, [r3, #0]
                                  (hspi->Init.BaudRatePrescaler & SPI_CR1_BR_Msk) |
                                  (hspi->Init.FirstBit  & SPI_CR1_LSBFIRST) |
                                  (hspi->Init.CRCCalculation & SPI_CR1_CRCEN)));

  /* Configure : NSS management */
  WRITE_REG(hspi->Instance->CR2, ((hspi->Init.NSS >> 16U) & SPI_CR2_SSOE));
 80076f8:	687b      	ldr	r3, [r7, #4]
 80076fa:	699b      	ldr	r3, [r3, #24]
 80076fc:	0c1a      	lsrs	r2, r3, #16
 80076fe:	687b      	ldr	r3, [r7, #4]
 8007700:	681b      	ldr	r3, [r3, #0]
 8007702:	f002 0204 	and.w	r2, r2, #4
 8007706:	605a      	str	r2, [r3, #4]
  }
#endif /* USE_SPI_CRC */

#if defined(SPI_I2SCFGR_I2SMOD)
  /* Activate the SPI mode (Make sure that I2SMOD bit in I2SCFGR register is reset) */
  CLEAR_BIT(hspi->Instance->I2SCFGR, SPI_I2SCFGR_I2SMOD);
 8007708:	687b      	ldr	r3, [r7, #4]
 800770a:	681b      	ldr	r3, [r3, #0]
 800770c:	69da      	ldr	r2, [r3, #28]
 800770e:	687b      	ldr	r3, [r7, #4]
 8007710:	681b      	ldr	r3, [r3, #0]
 8007712:	f422 6200 	bic.w	r2, r2, #2048	; 0x800
 8007716:	61da      	str	r2, [r3, #28]
#endif /* SPI_I2SCFGR_I2SMOD */

  hspi->ErrorCode = HAL_SPI_ERROR_NONE;
 8007718:	687b      	ldr	r3, [r7, #4]
 800771a:	2200      	movs	r2, #0
 800771c:	655a      	str	r2, [r3, #84]	; 0x54
  hspi->State     = HAL_SPI_STATE_READY;
 800771e:	687b      	ldr	r3, [r7, #4]
 8007720:	2201      	movs	r2, #1
 8007722:	f883 2051 	strb.w	r2, [r3, #81]	; 0x51

  return HAL_OK;
 8007726:	2300      	movs	r3, #0
}
 8007728:	4618      	mov	r0, r3
 800772a:	3708      	adds	r7, #8
 800772c:	46bd      	mov	sp, r7
 800772e:	bd80      	pop	{r7, pc}

08007730 <HAL_SPI_Transmit>:
  * @param  Size amount of data to be sent
  * @param  Timeout Timeout duration
  * @retval HAL status
  */
HAL_StatusTypeDef HAL_SPI_Transmit(SPI_HandleTypeDef *hspi, uint8_t *pData, uint16_t Size, uint32_t Timeout)
{
 8007730:	b580      	push	{r7, lr}
 8007732:	b088      	sub	sp, #32
 8007734:	af00      	add	r7, sp, #0
 8007736:	60f8      	str	r0, [r7, #12]
 8007738:	60b9      	str	r1, [r7, #8]
 800773a:	603b      	str	r3, [r7, #0]
 800773c:	4613      	mov	r3, r2
 800773e:	80fb      	strh	r3, [r7, #6]
  uint32_t tickstart;
  HAL_StatusTypeDef errorcode = HAL_OK;
 8007740:	2300      	movs	r3, #0
 8007742:	77fb      	strb	r3, [r7, #31]

  /* Check Direction parameter */
  assert_param(IS_SPI_DIRECTION_2LINES_OR_1LINE(hspi->Init.Direction));

  /* Process Locked */
  __HAL_LOCK(hspi);
 8007744:	68fb      	ldr	r3, [r7, #12]
 8007746:	f893 3050 	ldrb.w	r3, [r3, #80]	; 0x50
 800774a:	2b01      	cmp	r3, #1
 800774c:	d101      	bne.n	8007752 <HAL_SPI_Transmit+0x22>
 800774e:	2302      	movs	r3, #2
 8007750:	e126      	b.n	80079a0 <HAL_SPI_Transmit+0x270>
 8007752:	68fb      	ldr	r3, [r7, #12]
 8007754:	2201      	movs	r2, #1
 8007756:	f883 2050 	strb.w	r2, [r3, #80]	; 0x50

  /* Init tickstart for timeout management*/
  tickstart = HAL_GetTick();
 800775a:	f7fe ff93 	bl	8006684 <HAL_GetTick>
 800775e:	61b8      	str	r0, [r7, #24]
  initial_TxXferCount = Size;
 8007760:	88fb      	ldrh	r3, [r7, #6]
 8007762:	82fb      	strh	r3, [r7, #22]

  if (hspi->State != HAL_SPI_STATE_READY)
 8007764:	68fb      	ldr	r3, [r7, #12]
 8007766:	f893 3051 	ldrb.w	r3, [r3, #81]	; 0x51
 800776a:	b2db      	uxtb	r3, r3
 800776c:	2b01      	cmp	r3, #1
 800776e:	d002      	beq.n	8007776 <HAL_SPI_Transmit+0x46>
  {
    errorcode = HAL_BUSY;
 8007770:	2302      	movs	r3, #2
 8007772:	77fb      	strb	r3, [r7, #31]
    goto error;
 8007774:	e10b      	b.n	800798e <HAL_SPI_Transmit+0x25e>
  }

  if ((pData == NULL) || (Size == 0U))
 8007776:	68bb      	ldr	r3, [r7, #8]
 8007778:	2b00      	cmp	r3, #0
 800777a:	d002      	beq.n	8007782 <HAL_SPI_Transmit+0x52>
 800777c:	88fb      	ldrh	r3, [r7, #6]
 800777e:	2b00      	cmp	r3, #0
 8007780:	d102      	bne.n	8007788 <HAL_SPI_Transmit+0x58>
  {
    errorcode = HAL_ERROR;
 8007782:	2301      	movs	r3, #1
 8007784:	77fb      	strb	r3, [r7, #31]
    goto error;
 8007786:	e102      	b.n	800798e <HAL_SPI_Transmit+0x25e>
  }

  /* Set the transaction information */
  hspi->State       = HAL_SPI_STATE_BUSY_TX;
 8007788:	68fb      	ldr	r3, [r7, #12]
 800778a:	2203      	movs	r2, #3
 800778c:	f883 2051 	strb.w	r2, [r3, #81]	; 0x51
  hspi->ErrorCode   = HAL_SPI_ERROR_NONE;
 8007790:	68fb      	ldr	r3, [r7, #12]
 8007792:	2200      	movs	r2, #0
 8007794:	655a      	str	r2, [r3, #84]	; 0x54
  hspi->pTxBuffPtr  = (uint8_t *)pData;
 8007796:	68fb      	ldr	r3, [r7, #12]
 8007798:	68ba      	ldr	r2, [r7, #8]
 800779a:	631a      	str	r2, [r3, #48]	; 0x30
  hspi->TxXferSize  = Size;
 800779c:	68fb      	ldr	r3, [r7, #12]
 800779e:	88fa      	ldrh	r2, [r7, #6]
 80077a0:	869a      	strh	r2, [r3, #52]	; 0x34
  hspi->TxXferCount = Size;
 80077a2:	68fb      	ldr	r3, [r7, #12]
 80077a4:	88fa      	ldrh	r2, [r7, #6]
 80077a6:	86da      	strh	r2, [r3, #54]	; 0x36

  /*Init field not used in handle to zero */
  hspi->pRxBuffPtr  = (uint8_t *)NULL;
 80077a8:	68fb      	ldr	r3, [r7, #12]
 80077aa:	2200      	movs	r2, #0
 80077ac:	639a      	str	r2, [r3, #56]	; 0x38
  hspi->RxXferSize  = 0U;
 80077ae:	68fb      	ldr	r3, [r7, #12]
 80077b0:	2200      	movs	r2, #0
 80077b2:	879a      	strh	r2, [r3, #60]	; 0x3c
  hspi->RxXferCount = 0U;
 80077b4:	68fb      	ldr	r3, [r7, #12]
 80077b6:	2200      	movs	r2, #0
 80077b8:	87da      	strh	r2, [r3, #62]	; 0x3e
  hspi->TxISR       = NULL;
 80077ba:	68fb      	ldr	r3, [r7, #12]
 80077bc:	2200      	movs	r2, #0
 80077be:	645a      	str	r2, [r3, #68]	; 0x44
  hspi->RxISR       = NULL;
 80077c0:	68fb      	ldr	r3, [r7, #12]
 80077c2:	2200      	movs	r2, #0
 80077c4:	641a      	str	r2, [r3, #64]	; 0x40

  /* Configure communication direction : 1Line */
  if (hspi->Init.Direction == SPI_DIRECTION_1LINE)
 80077c6:	68fb      	ldr	r3, [r7, #12]
 80077c8:	689b      	ldr	r3, [r3, #8]
 80077ca:	f5b3 4f00 	cmp.w	r3, #32768	; 0x8000
 80077ce:	d10f      	bne.n	80077f0 <HAL_SPI_Transmit+0xc0>
  {
    /* Disable SPI Peripheral before set 1Line direction (BIDIOE bit) */
    __HAL_SPI_DISABLE(hspi);
 80077d0:	68fb      	ldr	r3, [r7, #12]
 80077d2:	681b      	ldr	r3, [r3, #0]
 80077d4:	681a      	ldr	r2, [r3, #0]
 80077d6:	68fb      	ldr	r3, [r7, #12]
 80077d8:	681b      	ldr	r3, [r3, #0]
 80077da:	f022 0240 	bic.w	r2, r2, #64	; 0x40
 80077de:	601a      	str	r2, [r3, #0]
    SPI_1LINE_TX(hspi);
 80077e0:	68fb      	ldr	r3, [r7, #12]
 80077e2:	681b      	ldr	r3, [r3, #0]
 80077e4:	681a      	ldr	r2, [r3, #0]
 80077e6:	68fb      	ldr	r3, [r7, #12]
 80077e8:	681b      	ldr	r3, [r3, #0]
 80077ea:	f442 4280 	orr.w	r2, r2, #16384	; 0x4000
 80077ee:	601a      	str	r2, [r3, #0]
    SPI_RESET_CRC(hspi);
  }
#endif /* USE_SPI_CRC */

  /* Check if the SPI is already enabled */
  if ((hspi->Instance->CR1 & SPI_CR1_SPE) != SPI_CR1_SPE)
 80077f0:	68fb      	ldr	r3, [r7, #12]
 80077f2:	681b      	ldr	r3, [r3, #0]
 80077f4:	681b      	ldr	r3, [r3, #0]
 80077f6:	f003 0340 	and.w	r3, r3, #64	; 0x40
 80077fa:	2b40      	cmp	r3, #64	; 0x40
 80077fc:	d007      	beq.n	800780e <HAL_SPI_Transmit+0xde>
  {
    /* Enable SPI peripheral */
    __HAL_SPI_ENABLE(hspi);
 80077fe:	68fb      	ldr	r3, [r7, #12]
 8007800:	681b      	ldr	r3, [r3, #0]
 8007802:	681a      	ldr	r2, [r3, #0]
 8007804:	68fb      	ldr	r3, [r7, #12]
 8007806:	681b      	ldr	r3, [r3, #0]
 8007808:	f042 0240 	orr.w	r2, r2, #64	; 0x40
 800780c:	601a      	str	r2, [r3, #0]
  }

  /* Transmit data in 16 Bit mode */
  if (hspi->Init.DataSize == SPI_DATASIZE_16BIT)
 800780e:	68fb      	ldr	r3, [r7, #12]
 8007810:	68db      	ldr	r3, [r3, #12]
 8007812:	f5b3 6f00 	cmp.w	r3, #2048	; 0x800
 8007816:	d14b      	bne.n	80078b0 <HAL_SPI_Transmit+0x180>
  {
    if ((hspi->Init.Mode == SPI_MODE_SLAVE) || (initial_TxXferCount == 0x01U))
 8007818:	68fb      	ldr	r3, [r7, #12]
 800781a:	685b      	ldr	r3, [r3, #4]
 800781c:	2b00      	cmp	r3, #0
 800781e:	d002      	beq.n	8007826 <HAL_SPI_Transmit+0xf6>
 8007820:	8afb      	ldrh	r3, [r7, #22]
 8007822:	2b01      	cmp	r3, #1
 8007824:	d13e      	bne.n	80078a4 <HAL_SPI_Transmit+0x174>
    {
      hspi->Instance->DR = *((uint16_t *)hspi->pTxBuffPtr);
 8007826:	68fb      	ldr	r3, [r7, #12]
 8007828:	6b1b      	ldr	r3, [r3, #48]	; 0x30
 800782a:	881a      	ldrh	r2, [r3, #0]
 800782c:	68fb      	ldr	r3, [r7, #12]
 800782e:	681b      	ldr	r3, [r3, #0]
 8007830:	60da      	str	r2, [r3, #12]
      hspi->pTxBuffPtr += sizeof(uint16_t);
 8007832:	68fb      	ldr	r3, [r7, #12]
 8007834:	6b1b      	ldr	r3, [r3, #48]	; 0x30
 8007836:	1c9a      	adds	r2, r3, #2
 8007838:	68fb      	ldr	r3, [r7, #12]
 800783a:	631a      	str	r2, [r3, #48]	; 0x30
      hspi->TxXferCount--;
 800783c:	68fb      	ldr	r3, [r7, #12]
 800783e:	8edb      	ldrh	r3, [r3, #54]	; 0x36
 8007840:	b29b      	uxth	r3, r3
 8007842:	3b01      	subs	r3, #1
 8007844:	b29a      	uxth	r2, r3
 8007846:	68fb      	ldr	r3, [r7, #12]
 8007848:	86da      	strh	r2, [r3, #54]	; 0x36
    }
    /* Transmit data in 16 Bit mode */
    while (hspi->TxXferCount > 0U)
 800784a:	e02b      	b.n	80078a4 <HAL_SPI_Transmit+0x174>
    {
      /* Wait until TXE flag is set to send data */
      if (__HAL_SPI_GET_FLAG(hspi, SPI_FLAG_TXE))
 800784c:	68fb      	ldr	r3, [r7, #12]
 800784e:	681b      	ldr	r3, [r3, #0]
 8007850:	689b      	ldr	r3, [r3, #8]
 8007852:	f003 0302 	and.w	r3, r3, #2
 8007856:	2b02      	cmp	r3, #2
 8007858:	d112      	bne.n	8007880 <HAL_SPI_Transmit+0x150>
      {
        hspi->Instance->DR = *((uint16_t *)hspi->pTxBuffPtr);
 800785a:	68fb      	ldr	r3, [r7, #12]
 800785c:	6b1b      	ldr	r3, [r3, #48]	; 0x30
 800785e:	881a      	ldrh	r2, [r3, #0]
 8007860:	68fb      	ldr	r3, [r7, #12]
 8007862:	681b      	ldr	r3, [r3, #0]
 8007864:	60da      	str	r2, [r3, #12]
        hspi->pTxBuffPtr += sizeof(uint16_t);
 8007866:	68fb      	ldr	r3, [r7, #12]
 8007868:	6b1b      	ldr	r3, [r3, #48]	; 0x30
 800786a:	1c9a      	adds	r2, r3, #2
 800786c:	68fb      	ldr	r3, [r7, #12]
 800786e:	631a      	str	r2, [r3, #48]	; 0x30
        hspi->TxXferCount--;
 8007870:	68fb      	ldr	r3, [r7, #12]
 8007872:	8edb      	ldrh	r3, [r3, #54]	; 0x36
 8007874:	b29b      	uxth	r3, r3
 8007876:	3b01      	subs	r3, #1
 8007878:	b29a      	uxth	r2, r3
 800787a:	68fb      	ldr	r3, [r7, #12]
 800787c:	86da      	strh	r2, [r3, #54]	; 0x36
 800787e:	e011      	b.n	80078a4 <HAL_SPI_Transmit+0x174>
      }
      else
      {
        /* Timeout management */
        if ((((HAL_GetTick() - tickstart) >=  Timeout) && (Timeout != HAL_MAX_DELAY)) || (Timeout == 0U))
 8007880:	f7fe ff00 	bl	8006684 <HAL_GetTick>
 8007884:	4602      	mov	r2, r0
 8007886:	69bb      	ldr	r3, [r7, #24]
 8007888:	1ad3      	subs	r3, r2, r3
 800788a:	683a      	ldr	r2, [r7, #0]
 800788c:	429a      	cmp	r2, r3
 800788e:	d803      	bhi.n	8007898 <HAL_SPI_Transmit+0x168>
 8007890:	683b      	ldr	r3, [r7, #0]
 8007892:	f1b3 3fff 	cmp.w	r3, #4294967295
 8007896:	d102      	bne.n	800789e <HAL_SPI_Transmit+0x16e>
 8007898:	683b      	ldr	r3, [r7, #0]
 800789a:	2b00      	cmp	r3, #0
 800789c:	d102      	bne.n	80078a4 <HAL_SPI_Transmit+0x174>
        {
          errorcode = HAL_TIMEOUT;
 800789e:	2303      	movs	r3, #3
 80078a0:	77fb      	strb	r3, [r7, #31]
          goto error;
 80078a2:	e074      	b.n	800798e <HAL_SPI_Transmit+0x25e>
    while (hspi->TxXferCount > 0U)
 80078a4:	68fb      	ldr	r3, [r7, #12]
 80078a6:	8edb      	ldrh	r3, [r3, #54]	; 0x36
 80078a8:	b29b      	uxth	r3, r3
 80078aa:	2b00      	cmp	r3, #0
 80078ac:	d1ce      	bne.n	800784c <HAL_SPI_Transmit+0x11c>
 80078ae:	e04c      	b.n	800794a <HAL_SPI_Transmit+0x21a>
    }
  }
  /* Transmit data in 8 Bit mode */
  else
  {
    if ((hspi->Init.Mode == SPI_MODE_SLAVE) || (initial_TxXferCount == 0x01U))
 80078b0:	68fb      	ldr	r3, [r7, #12]
 80078b2:	685b      	ldr	r3, [r3, #4]
 80078b4:	2b00      	cmp	r3, #0
 80078b6:	d002      	beq.n	80078be <HAL_SPI_Transmit+0x18e>
 80078b8:	8afb      	ldrh	r3, [r7, #22]
 80078ba:	2b01      	cmp	r3, #1
 80078bc:	d140      	bne.n	8007940 <HAL_SPI_Transmit+0x210>
    {
      *((__IO uint8_t *)&hspi->Instance->DR) = (*hspi->pTxBuffPtr);
 80078be:	68fb      	ldr	r3, [r7, #12]
 80078c0:	6b1a      	ldr	r2, [r3, #48]	; 0x30
 80078c2:	68fb      	ldr	r3, [r7, #12]
 80078c4:	681b      	ldr	r3, [r3, #0]
 80078c6:	330c      	adds	r3, #12
 80078c8:	7812      	ldrb	r2, [r2, #0]
 80078ca:	701a      	strb	r2, [r3, #0]
      hspi->pTxBuffPtr += sizeof(uint8_t);
 80078cc:	68fb      	ldr	r3, [r7, #12]
 80078ce:	6b1b      	ldr	r3, [r3, #48]	; 0x30
 80078d0:	1c5a      	adds	r2, r3, #1
 80078d2:	68fb      	ldr	r3, [r7, #12]
 80078d4:	631a      	str	r2, [r3, #48]	; 0x30
      hspi->TxXferCount--;
 80078d6:	68fb      	ldr	r3, [r7, #12]
 80078d8:	8edb      	ldrh	r3, [r3, #54]	; 0x36
 80078da:	b29b      	uxth	r3, r3
 80078dc:	3b01      	subs	r3, #1
 80078de:	b29a      	uxth	r2, r3
 80078e0:	68fb      	ldr	r3, [r7, #12]
 80078e2:	86da      	strh	r2, [r3, #54]	; 0x36
    }
    while (hspi->TxXferCount > 0U)
 80078e4:	e02c      	b.n	8007940 <HAL_SPI_Transmit+0x210>
    {
      /* Wait until TXE flag is set to send data */
      if (__HAL_SPI_GET_FLAG(hspi, SPI_FLAG_TXE))
 80078e6:	68fb      	ldr	r3, [r7, #12]
 80078e8:	681b      	ldr	r3, [r3, #0]
 80078ea:	689b      	ldr	r3, [r3, #8]
 80078ec:	f003 0302 	and.w	r3, r3, #2
 80078f0:	2b02      	cmp	r3, #2
 80078f2:	d113      	bne.n	800791c <HAL_SPI_Transmit+0x1ec>
      {
        *((__IO uint8_t *)&hspi->Instance->DR) = (*hspi->pTxBuffPtr);
 80078f4:	68fb      	ldr	r3, [r7, #12]
 80078f6:	6b1a      	ldr	r2, [r3, #48]	; 0x30
 80078f8:	68fb      	ldr	r3, [r7, #12]
 80078fa:	681b      	ldr	r3, [r3, #0]
 80078fc:	330c      	adds	r3, #12
 80078fe:	7812      	ldrb	r2, [r2, #0]
 8007900:	701a      	strb	r2, [r3, #0]
        hspi->pTxBuffPtr += sizeof(uint8_t);
 8007902:	68fb      	ldr	r3, [r7, #12]
 8007904:	6b1b      	ldr	r3, [r3, #48]	; 0x30
 8007906:	1c5a      	adds	r2, r3, #1
 8007908:	68fb      	ldr	r3, [r7, #12]
 800790a:	631a      	str	r2, [r3, #48]	; 0x30
        hspi->TxXferCount--;
 800790c:	68fb      	ldr	r3, [r7, #12]
 800790e:	8edb      	ldrh	r3, [r3, #54]	; 0x36
 8007910:	b29b      	uxth	r3, r3
 8007912:	3b01      	subs	r3, #1
 8007914:	b29a      	uxth	r2, r3
 8007916:	68fb      	ldr	r3, [r7, #12]
 8007918:	86da      	strh	r2, [r3, #54]	; 0x36
 800791a:	e011      	b.n	8007940 <HAL_SPI_Transmit+0x210>
      }
      else
      {
        /* Timeout management */
        if ((((HAL_GetTick() - tickstart) >=  Timeout) && (Timeout != HAL_MAX_DELAY)) || (Timeout == 0U))
 800791c:	f7fe feb2 	bl	8006684 <HAL_GetTick>
 8007920:	4602      	mov	r2, r0
 8007922:	69bb      	ldr	r3, [r7, #24]
 8007924:	1ad3      	subs	r3, r2, r3
 8007926:	683a      	ldr	r2, [r7, #0]
 8007928:	429a      	cmp	r2, r3
 800792a:	d803      	bhi.n	8007934 <HAL_SPI_Transmit+0x204>
 800792c:	683b      	ldr	r3, [r7, #0]
 800792e:	f1b3 3fff 	cmp.w	r3, #4294967295
 8007932:	d102      	bne.n	800793a <HAL_SPI_Transmit+0x20a>
 8007934:	683b      	ldr	r3, [r7, #0]
 8007936:	2b00      	cmp	r3, #0
 8007938:	d102      	bne.n	8007940 <HAL_SPI_Transmit+0x210>
        {
          errorcode = HAL_TIMEOUT;
 800793a:	2303      	movs	r3, #3
 800793c:	77fb      	strb	r3, [r7, #31]
          goto error;
 800793e:	e026      	b.n	800798e <HAL_SPI_Transmit+0x25e>
    while (hspi->TxXferCount > 0U)
 8007940:	68fb      	ldr	r3, [r7, #12]
 8007942:	8edb      	ldrh	r3, [r3, #54]	; 0x36
 8007944:	b29b      	uxth	r3, r3
 8007946:	2b00      	cmp	r3, #0
 8007948:	d1cd      	bne.n	80078e6 <HAL_SPI_Transmit+0x1b6>
    SET_BIT(hspi->Instance->CR1, SPI_CR1_CRCNEXT);
  }
#endif /* USE_SPI_CRC */

  /* Check the end of the transaction */
  if (SPI_EndRxTxTransaction(hspi, Timeout, tickstart) != HAL_OK)
 800794a:	69ba      	ldr	r2, [r7, #24]
 800794c:	6839      	ldr	r1, [r7, #0]
 800794e:	68f8      	ldr	r0, [r7, #12]
 8007950:	f000 fbb8 	bl	80080c4 <SPI_EndRxTxTransaction>
 8007954:	4603      	mov	r3, r0
 8007956:	2b00      	cmp	r3, #0
 8007958:	d002      	beq.n	8007960 <HAL_SPI_Transmit+0x230>
  {
    hspi->ErrorCode = HAL_SPI_ERROR_FLAG;
 800795a:	68fb      	ldr	r3, [r7, #12]
 800795c:	2220      	movs	r2, #32
 800795e:	655a      	str	r2, [r3, #84]	; 0x54
  }

  /* Clear overrun flag in 2 Lines communication mode because received is not read */
  if (hspi->Init.Direction == SPI_DIRECTION_2LINES)
 8007960:	68fb      	ldr	r3, [r7, #12]
 8007962:	689b      	ldr	r3, [r3, #8]
 8007964:	2b00      	cmp	r3, #0
 8007966:	d10a      	bne.n	800797e <HAL_SPI_Transmit+0x24e>
  {
    __HAL_SPI_CLEAR_OVRFLAG(hspi);
 8007968:	2300      	movs	r3, #0
 800796a:	613b      	str	r3, [r7, #16]
 800796c:	68fb      	ldr	r3, [r7, #12]
 800796e:	681b      	ldr	r3, [r3, #0]
 8007970:	68db      	ldr	r3, [r3, #12]
 8007972:	613b      	str	r3, [r7, #16]
 8007974:	68fb      	ldr	r3, [r7, #12]
 8007976:	681b      	ldr	r3, [r3, #0]
 8007978:	689b      	ldr	r3, [r3, #8]
 800797a:	613b      	str	r3, [r7, #16]
 800797c:	693b      	ldr	r3, [r7, #16]
  }

  if (hspi->ErrorCode != HAL_SPI_ERROR_NONE)
 800797e:	68fb      	ldr	r3, [r7, #12]
 8007980:	6d5b      	ldr	r3, [r3, #84]	; 0x54
 8007982:	2b00      	cmp	r3, #0
 8007984:	d002      	beq.n	800798c <HAL_SPI_Transmit+0x25c>
  {
    errorcode = HAL_ERROR;
 8007986:	2301      	movs	r3, #1
 8007988:	77fb      	strb	r3, [r7, #31]
 800798a:	e000      	b.n	800798e <HAL_SPI_Transmit+0x25e>
  }

error:
 800798c:	bf00      	nop
  hspi->State = HAL_SPI_STATE_READY;
 800798e:	68fb      	ldr	r3, [r7, #12]
 8007990:	2201      	movs	r2, #1
 8007992:	f883 2051 	strb.w	r2, [r3, #81]	; 0x51
  /* Process Unlocked */
  __HAL_UNLOCK(hspi);
 8007996:	68fb      	ldr	r3, [r7, #12]
 8007998:	2200      	movs	r2, #0
 800799a:	f883 2050 	strb.w	r2, [r3, #80]	; 0x50
  return errorcode;
 800799e:	7ffb      	ldrb	r3, [r7, #31]
}
 80079a0:	4618      	mov	r0, r3
 80079a2:	3720      	adds	r7, #32
 80079a4:	46bd      	mov	sp, r7
 80079a6:	bd80      	pop	{r7, pc}

080079a8 <HAL_SPI_Receive>:
  * @param  Size amount of data to be received
  * @param  Timeout Timeout duration
  * @retval HAL status
  */
HAL_StatusTypeDef HAL_SPI_Receive(SPI_HandleTypeDef *hspi, uint8_t *pData, uint16_t Size, uint32_t Timeout)
{
 80079a8:	b580      	push	{r7, lr}
 80079aa:	b088      	sub	sp, #32
 80079ac:	af02      	add	r7, sp, #8
 80079ae:	60f8      	str	r0, [r7, #12]
 80079b0:	60b9      	str	r1, [r7, #8]
 80079b2:	603b      	str	r3, [r7, #0]
 80079b4:	4613      	mov	r3, r2
 80079b6:	80fb      	strh	r3, [r7, #6]
#if (USE_SPI_CRC != 0U)
  __IO uint32_t tmpreg = 0U;
#endif /* USE_SPI_CRC */
  uint32_t tickstart;
  HAL_StatusTypeDef errorcode = HAL_OK;
 80079b8:	2300      	movs	r3, #0
 80079ba:	75fb      	strb	r3, [r7, #23]

  if ((hspi->Init.Mode == SPI_MODE_MASTER) && (hspi->Init.Direction == SPI_DIRECTION_2LINES))
 80079bc:	68fb      	ldr	r3, [r7, #12]
 80079be:	685b      	ldr	r3, [r3, #4]
 80079c0:	f5b3 7f82 	cmp.w	r3, #260	; 0x104
 80079c4:	d112      	bne.n	80079ec <HAL_SPI_Receive+0x44>
 80079c6:	68fb      	ldr	r3, [r7, #12]
 80079c8:	689b      	ldr	r3, [r3, #8]
 80079ca:	2b00      	cmp	r3, #0
 80079cc:	d10e      	bne.n	80079ec <HAL_SPI_Receive+0x44>
  {
    hspi->State = HAL_SPI_STATE_BUSY_RX;
 80079ce:	68fb      	ldr	r3, [r7, #12]
 80079d0:	2204      	movs	r2, #4
 80079d2:	f883 2051 	strb.w	r2, [r3, #81]	; 0x51
    /* Call transmit-receive function to send Dummy data on Tx line and generate clock on CLK line */
    return HAL_SPI_TransmitReceive(hspi, pData, pData, Size, Timeout);
 80079d6:	88fa      	ldrh	r2, [r7, #6]
 80079d8:	683b      	ldr	r3, [r7, #0]
 80079da:	9300      	str	r3, [sp, #0]
 80079dc:	4613      	mov	r3, r2
 80079de:	68ba      	ldr	r2, [r7, #8]
 80079e0:	68b9      	ldr	r1, [r7, #8]
 80079e2:	68f8      	ldr	r0, [r7, #12]
 80079e4:	f000 f8f1 	bl	8007bca <HAL_SPI_TransmitReceive>
 80079e8:	4603      	mov	r3, r0
 80079ea:	e0ea      	b.n	8007bc2 <HAL_SPI_Receive+0x21a>
  }

  /* Process Locked */
  __HAL_LOCK(hspi);
 80079ec:	68fb      	ldr	r3, [r7, #12]
 80079ee:	f893 3050 	ldrb.w	r3, [r3, #80]	; 0x50
 80079f2:	2b01      	cmp	r3, #1
 80079f4:	d101      	bne.n	80079fa <HAL_SPI_Receive+0x52>
 80079f6:	2302      	movs	r3, #2
 80079f8:	e0e3      	b.n	8007bc2 <HAL_SPI_Receive+0x21a>
 80079fa:	68fb      	ldr	r3, [r7, #12]
 80079fc:	2201      	movs	r2, #1
 80079fe:	f883 2050 	strb.w	r2, [r3, #80]	; 0x50

  /* Init tickstart for timeout management*/
  tickstart = HAL_GetTick();
 8007a02:	f7fe fe3f 	bl	8006684 <HAL_GetTick>
 8007a06:	6138      	str	r0, [r7, #16]

  if (hspi->State != HAL_SPI_STATE_READY)
 8007a08:	68fb      	ldr	r3, [r7, #12]
 8007a0a:	f893 3051 	ldrb.w	r3, [r3, #81]	; 0x51
 8007a0e:	b2db      	uxtb	r3, r3
 8007a10:	2b01      	cmp	r3, #1
 8007a12:	d002      	beq.n	8007a1a <HAL_SPI_Receive+0x72>
  {
    errorcode = HAL_BUSY;
 8007a14:	2302      	movs	r3, #2
 8007a16:	75fb      	strb	r3, [r7, #23]
    goto error;
 8007a18:	e0ca      	b.n	8007bb0 <HAL_SPI_Receive+0x208>
  }

  if ((pData == NULL) || (Size == 0U))
 8007a1a:	68bb      	ldr	r3, [r7, #8]
 8007a1c:	2b00      	cmp	r3, #0
 8007a1e:	d002      	beq.n	8007a26 <HAL_SPI_Receive+0x7e>
 8007a20:	88fb      	ldrh	r3, [r7, #6]
 8007a22:	2b00      	cmp	r3, #0
 8007a24:	d102      	bne.n	8007a2c <HAL_SPI_Receive+0x84>
  {
    errorcode = HAL_ERROR;
 8007a26:	2301      	movs	r3, #1
 8007a28:	75fb      	strb	r3, [r7, #23]
    goto error;
 8007a2a:	e0c1      	b.n	8007bb0 <HAL_SPI_Receive+0x208>
  }

  /* Set the transaction information */
  hspi->State       = HAL_SPI_STATE_BUSY_RX;
 8007a2c:	68fb      	ldr	r3, [r7, #12]
 8007a2e:	2204      	movs	r2, #4
 8007a30:	f883 2051 	strb.w	r2, [r3, #81]	; 0x51
  hspi->ErrorCode   = HAL_SPI_ERROR_NONE;
 8007a34:	68fb      	ldr	r3, [r7, #12]
 8007a36:	2200      	movs	r2, #0
 8007a38:	655a      	str	r2, [r3, #84]	; 0x54
  hspi->pRxBuffPtr  = (uint8_t *)pData;
 8007a3a:	68fb      	ldr	r3, [r7, #12]
 8007a3c:	68ba      	ldr	r2, [r7, #8]
 8007a3e:	639a      	str	r2, [r3, #56]	; 0x38
  hspi->RxXferSize  = Size;
 8007a40:	68fb      	ldr	r3, [r7, #12]
 8007a42:	88fa      	ldrh	r2, [r7, #6]
 8007a44:	879a      	strh	r2, [r3, #60]	; 0x3c
  hspi->RxXferCount = Size;
 8007a46:	68fb      	ldr	r3, [r7, #12]
 8007a48:	88fa      	ldrh	r2, [r7, #6]
 8007a4a:	87da      	strh	r2, [r3, #62]	; 0x3e

  /*Init field not used in handle to zero */
  hspi->pTxBuffPtr  = (uint8_t *)NULL;
 8007a4c:	68fb      	ldr	r3, [r7, #12]
 8007a4e:	2200      	movs	r2, #0
 8007a50:	631a      	str	r2, [r3, #48]	; 0x30
  hspi->TxXferSize  = 0U;
 8007a52:	68fb      	ldr	r3, [r7, #12]
 8007a54:	2200      	movs	r2, #0
 8007a56:	869a      	strh	r2, [r3, #52]	; 0x34
  hspi->TxXferCount = 0U;
 8007a58:	68fb      	ldr	r3, [r7, #12]
 8007a5a:	2200      	movs	r2, #0
 8007a5c:	86da      	strh	r2, [r3, #54]	; 0x36
  hspi->RxISR       = NULL;
 8007a5e:	68fb      	ldr	r3, [r7, #12]
 8007a60:	2200      	movs	r2, #0
 8007a62:	641a      	str	r2, [r3, #64]	; 0x40
  hspi->TxISR       = NULL;
 8007a64:	68fb      	ldr	r3, [r7, #12]
 8007a66:	2200      	movs	r2, #0
 8007a68:	645a      	str	r2, [r3, #68]	; 0x44
    hspi->RxXferCount--;
  }
#endif /* USE_SPI_CRC */

  /* Configure communication direction: 1Line */
  if (hspi->Init.Direction == SPI_DIRECTION_1LINE)
 8007a6a:	68fb      	ldr	r3, [r7, #12]
 8007a6c:	689b      	ldr	r3, [r3, #8]
 8007a6e:	f5b3 4f00 	cmp.w	r3, #32768	; 0x8000
 8007a72:	d10f      	bne.n	8007a94 <HAL_SPI_Receive+0xec>
  {
    /* Disable SPI Peripheral before set 1Line direction (BIDIOE bit) */
    __HAL_SPI_DISABLE(hspi);
 8007a74:	68fb      	ldr	r3, [r7, #12]
 8007a76:	681b      	ldr	r3, [r3, #0]
 8007a78:	681a      	ldr	r2, [r3, #0]
 8007a7a:	68fb      	ldr	r3, [r7, #12]
 8007a7c:	681b      	ldr	r3, [r3, #0]
 8007a7e:	f022 0240 	bic.w	r2, r2, #64	; 0x40
 8007a82:	601a      	str	r2, [r3, #0]
    SPI_1LINE_RX(hspi);
 8007a84:	68fb      	ldr	r3, [r7, #12]
 8007a86:	681b      	ldr	r3, [r3, #0]
 8007a88:	681a      	ldr	r2, [r3, #0]
 8007a8a:	68fb      	ldr	r3, [r7, #12]
 8007a8c:	681b      	ldr	r3, [r3, #0]
 8007a8e:	f422 4280 	bic.w	r2, r2, #16384	; 0x4000
 8007a92:	601a      	str	r2, [r3, #0]
  }

  /* Check if the SPI is already enabled */
  if ((hspi->Instance->CR1 & SPI_CR1_SPE) != SPI_CR1_SPE)
 8007a94:	68fb      	ldr	r3, [r7, #12]
 8007a96:	681b      	ldr	r3, [r3, #0]
 8007a98:	681b      	ldr	r3, [r3, #0]
 8007a9a:	f003 0340 	and.w	r3, r3, #64	; 0x40
 8007a9e:	2b40      	cmp	r3, #64	; 0x40
 8007aa0:	d007      	beq.n	8007ab2 <HAL_SPI_Receive+0x10a>
  {
    /* Enable SPI peripheral */
    __HAL_SPI_ENABLE(hspi);
 8007aa2:	68fb      	ldr	r3, [r7, #12]
 8007aa4:	681b      	ldr	r3, [r3, #0]
 8007aa6:	681a      	ldr	r2, [r3, #0]
 8007aa8:	68fb      	ldr	r3, [r7, #12]
 8007aaa:	681b      	ldr	r3, [r3, #0]
 8007aac:	f042 0240 	orr.w	r2, r2, #64	; 0x40
 8007ab0:	601a      	str	r2, [r3, #0]
  }

  /* Receive data in 8 Bit mode */
  if (hspi->Init.DataSize == SPI_DATASIZE_8BIT)
 8007ab2:	68fb      	ldr	r3, [r7, #12]
 8007ab4:	68db      	ldr	r3, [r3, #12]
 8007ab6:	2b00      	cmp	r3, #0
 8007ab8:	d162      	bne.n	8007b80 <HAL_SPI_Receive+0x1d8>
  {
    /* Transfer loop */
    while (hspi->RxXferCount > 0U)
 8007aba:	e02e      	b.n	8007b1a <HAL_SPI_Receive+0x172>
    {
      /* Check the RXNE flag */
      if (__HAL_SPI_GET_FLAG(hspi, SPI_FLAG_RXNE))
 8007abc:	68fb      	ldr	r3, [r7, #12]
 8007abe:	681b      	ldr	r3, [r3, #0]
 8007ac0:	689b      	ldr	r3, [r3, #8]
 8007ac2:	f003 0301 	and.w	r3, r3, #1
 8007ac6:	2b01      	cmp	r3, #1
 8007ac8:	d115      	bne.n	8007af6 <HAL_SPI_Receive+0x14e>
      {
        /* read the received data */
        (* (uint8_t *)hspi->pRxBuffPtr) = *(__IO uint8_t *)&hspi->Instance->DR;
 8007aca:	68fb      	ldr	r3, [r7, #12]
 8007acc:	681b      	ldr	r3, [r3, #0]
 8007ace:	f103 020c 	add.w	r2, r3, #12
 8007ad2:	68fb      	ldr	r3, [r7, #12]
 8007ad4:	6b9b      	ldr	r3, [r3, #56]	; 0x38
 8007ad6:	7812      	ldrb	r2, [r2, #0]
 8007ad8:	b2d2      	uxtb	r2, r2
 8007ada:	701a      	strb	r2, [r3, #0]
        hspi->pRxBuffPtr += sizeof(uint8_t);
 8007adc:	68fb      	ldr	r3, [r7, #12]
 8007ade:	6b9b      	ldr	r3, [r3, #56]	; 0x38
 8007ae0:	1c5a      	adds	r2, r3, #1
 8007ae2:	68fb      	ldr	r3, [r7, #12]
 8007ae4:	639a      	str	r2, [r3, #56]	; 0x38
        hspi->RxXferCount--;
 8007ae6:	68fb      	ldr	r3, [r7, #12]
 8007ae8:	8fdb      	ldrh	r3, [r3, #62]	; 0x3e
 8007aea:	b29b      	uxth	r3, r3
 8007aec:	3b01      	subs	r3, #1
 8007aee:	b29a      	uxth	r2, r3
 8007af0:	68fb      	ldr	r3, [r7, #12]
 8007af2:	87da      	strh	r2, [r3, #62]	; 0x3e
 8007af4:	e011      	b.n	8007b1a <HAL_SPI_Receive+0x172>
      }
      else
      {
        /* Timeout management */
        if ((((HAL_GetTick() - tickstart) >=  Timeout) && (Timeout != HAL_MAX_DELAY)) || (Timeout == 0U))
 8007af6:	f7fe fdc5 	bl	8006684 <HAL_GetTick>
 8007afa:	4602      	mov	r2, r0
 8007afc:	693b      	ldr	r3, [r7, #16]
 8007afe:	1ad3      	subs	r3, r2, r3
 8007b00:	683a      	ldr	r2, [r7, #0]
 8007b02:	429a      	cmp	r2, r3
 8007b04:	d803      	bhi.n	8007b0e <HAL_SPI_Receive+0x166>
 8007b06:	683b      	ldr	r3, [r7, #0]
 8007b08:	f1b3 3fff 	cmp.w	r3, #4294967295
 8007b0c:	d102      	bne.n	8007b14 <HAL_SPI_Receive+0x16c>
 8007b0e:	683b      	ldr	r3, [r7, #0]
 8007b10:	2b00      	cmp	r3, #0
 8007b12:	d102      	bne.n	8007b1a <HAL_SPI_Receive+0x172>
        {
          errorcode = HAL_TIMEOUT;
 8007b14:	2303      	movs	r3, #3
 8007b16:	75fb      	strb	r3, [r7, #23]
          goto error;
 8007b18:	e04a      	b.n	8007bb0 <HAL_SPI_Receive+0x208>
    while (hspi->RxXferCount > 0U)
 8007b1a:	68fb      	ldr	r3, [r7, #12]
 8007b1c:	8fdb      	ldrh	r3, [r3, #62]	; 0x3e
 8007b1e:	b29b      	uxth	r3, r3
 8007b20:	2b00      	cmp	r3, #0
 8007b22:	d1cb      	bne.n	8007abc <HAL_SPI_Receive+0x114>
 8007b24:	e031      	b.n	8007b8a <HAL_SPI_Receive+0x1e2>
  {
    /* Transfer loop */
    while (hspi->RxXferCount > 0U)
    {
      /* Check the RXNE flag */
      if (__HAL_SPI_GET_FLAG(hspi, SPI_FLAG_RXNE))
 8007b26:	68fb      	ldr	r3, [r7, #12]
 8007b28:	681b      	ldr	r3, [r3, #0]
 8007b2a:	689b      	ldr	r3, [r3, #8]
 8007b2c:	f003 0301 	and.w	r3, r3, #1
 8007b30:	2b01      	cmp	r3, #1
 8007b32:	d113      	bne.n	8007b5c <HAL_SPI_Receive+0x1b4>
      {
        *((uint16_t *)hspi->pRxBuffPtr) = (uint16_t)hspi->Instance->DR;
 8007b34:	68fb      	ldr	r3, [r7, #12]
 8007b36:	681b      	ldr	r3, [r3, #0]
 8007b38:	68da      	ldr	r2, [r3, #12]
 8007b3a:	68fb      	ldr	r3, [r7, #12]
 8007b3c:	6b9b      	ldr	r3, [r3, #56]	; 0x38
 8007b3e:	b292      	uxth	r2, r2
 8007b40:	801a      	strh	r2, [r3, #0]
        hspi->pRxBuffPtr += sizeof(uint16_t);
 8007b42:	68fb      	ldr	r3, [r7, #12]
 8007b44:	6b9b      	ldr	r3, [r3, #56]	; 0x38
 8007b46:	1c9a      	adds	r2, r3, #2
 8007b48:	68fb      	ldr	r3, [r7, #12]
 8007b4a:	639a      	str	r2, [r3, #56]	; 0x38
        hspi->RxXferCount--;
 8007b4c:	68fb      	ldr	r3, [r7, #12]
 8007b4e:	8fdb      	ldrh	r3, [r3, #62]	; 0x3e
 8007b50:	b29b      	uxth	r3, r3
 8007b52:	3b01      	subs	r3, #1
 8007b54:	b29a      	uxth	r2, r3
 8007b56:	68fb      	ldr	r3, [r7, #12]
 8007b58:	87da      	strh	r2, [r3, #62]	; 0x3e
 8007b5a:	e011      	b.n	8007b80 <HAL_SPI_Receive+0x1d8>
      }
      else
      {
        /* Timeout management */
        if ((((HAL_GetTick() - tickstart) >=  Timeout) && (Timeout != HAL_MAX_DELAY)) || (Timeout == 0U))
 8007b5c:	f7fe fd92 	bl	8006684 <HAL_GetTick>
 8007b60:	4602      	mov	r2, r0
 8007b62:	693b      	ldr	r3, [r7, #16]
 8007b64:	1ad3      	subs	r3, r2, r3
 8007b66:	683a      	ldr	r2, [r7, #0]
 8007b68:	429a      	cmp	r2, r3
 8007b6a:	d803      	bhi.n	8007b74 <HAL_SPI_Receive+0x1cc>
 8007b6c:	683b      	ldr	r3, [r7, #0]
 8007b6e:	f1b3 3fff 	cmp.w	r3, #4294967295
 8007b72:	d102      	bne.n	8007b7a <HAL_SPI_Receive+0x1d2>
 8007b74:	683b      	ldr	r3, [r7, #0]
 8007b76:	2b00      	cmp	r3, #0
 8007b78:	d102      	bne.n	8007b80 <HAL_SPI_Receive+0x1d8>
        {
          errorcode = HAL_TIMEOUT;
 8007b7a:	2303      	movs	r3, #3
 8007b7c:	75fb      	strb	r3, [r7, #23]
          goto error;
 8007b7e:	e017      	b.n	8007bb0 <HAL_SPI_Receive+0x208>
    while (hspi->RxXferCount > 0U)
 8007b80:	68fb      	ldr	r3, [r7, #12]
 8007b82:	8fdb      	ldrh	r3, [r3, #62]	; 0x3e
 8007b84:	b29b      	uxth	r3, r3
 8007b86:	2b00      	cmp	r3, #0
 8007b88:	d1cd      	bne.n	8007b26 <HAL_SPI_Receive+0x17e>
    UNUSED(tmpreg);
  }
#endif /* USE_SPI_CRC */

  /* Check the end of the transaction */
  if (SPI_EndRxTransaction(hspi, Timeout, tickstart) != HAL_OK)
 8007b8a:	693a      	ldr	r2, [r7, #16]
 8007b8c:	6839      	ldr	r1, [r7, #0]
 8007b8e:	68f8      	ldr	r0, [r7, #12]
 8007b90:	f000 fa46 	bl	8008020 <SPI_EndRxTransaction>
 8007b94:	4603      	mov	r3, r0
 8007b96:	2b00      	cmp	r3, #0
 8007b98:	d002      	beq.n	8007ba0 <HAL_SPI_Receive+0x1f8>
  {
    hspi->ErrorCode = HAL_SPI_ERROR_FLAG;
 8007b9a:	68fb      	ldr	r3, [r7, #12]
 8007b9c:	2220      	movs	r2, #32
 8007b9e:	655a      	str	r2, [r3, #84]	; 0x54
      __HAL_SPI_CLEAR_CRCERRFLAG(hspi);
    }
  }
#endif /* USE_SPI_CRC */

  if (hspi->ErrorCode != HAL_SPI_ERROR_NONE)
 8007ba0:	68fb      	ldr	r3, [r7, #12]
 8007ba2:	6d5b      	ldr	r3, [r3, #84]	; 0x54
 8007ba4:	2b00      	cmp	r3, #0
 8007ba6:	d002      	beq.n	8007bae <HAL_SPI_Receive+0x206>
  {
    errorcode = HAL_ERROR;
 8007ba8:	2301      	movs	r3, #1
 8007baa:	75fb      	strb	r3, [r7, #23]
 8007bac:	e000      	b.n	8007bb0 <HAL_SPI_Receive+0x208>
  }

error :
 8007bae:	bf00      	nop
  hspi->State = HAL_SPI_STATE_READY;
 8007bb0:	68fb      	ldr	r3, [r7, #12]
 8007bb2:	2201      	movs	r2, #1
 8007bb4:	f883 2051 	strb.w	r2, [r3, #81]	; 0x51
  __HAL_UNLOCK(hspi);
 8007bb8:	68fb      	ldr	r3, [r7, #12]
 8007bba:	2200      	movs	r2, #0
 8007bbc:	f883 2050 	strb.w	r2, [r3, #80]	; 0x50
  return errorcode;
 8007bc0:	7dfb      	ldrb	r3, [r7, #23]
}
 8007bc2:	4618      	mov	r0, r3
 8007bc4:	3718      	adds	r7, #24
 8007bc6:	46bd      	mov	sp, r7
 8007bc8:	bd80      	pop	{r7, pc}

08007bca <HAL_SPI_TransmitReceive>:
  * @param  Timeout Timeout duration
  * @retval HAL status
  */
HAL_StatusTypeDef HAL_SPI_TransmitReceive(SPI_HandleTypeDef *hspi, uint8_t *pTxData, uint8_t *pRxData, uint16_t Size,
                                          uint32_t Timeout)
{
 8007bca:	b580      	push	{r7, lr}
 8007bcc:	b08c      	sub	sp, #48	; 0x30
 8007bce:	af00      	add	r7, sp, #0
 8007bd0:	60f8      	str	r0, [r7, #12]
 8007bd2:	60b9      	str	r1, [r7, #8]
 8007bd4:	607a      	str	r2, [r7, #4]
 8007bd6:	807b      	strh	r3, [r7, #2]
#if (USE_SPI_CRC != 0U)
  __IO uint32_t tmpreg = 0U;
#endif /* USE_SPI_CRC */

  /* Variable used to alternate Rx and Tx during transfer */
  uint32_t             txallowed = 1U;
 8007bd8:	2301      	movs	r3, #1
 8007bda:	62fb      	str	r3, [r7, #44]	; 0x2c
  HAL_StatusTypeDef    errorcode = HAL_OK;
 8007bdc:	2300      	movs	r3, #0
 8007bde:	f887 302b 	strb.w	r3, [r7, #43]	; 0x2b

  /* Check Direction parameter */
  assert_param(IS_SPI_DIRECTION_2LINES(hspi->Init.Direction));

  /* Process Locked */
  __HAL_LOCK(hspi);
 8007be2:	68fb      	ldr	r3, [r7, #12]
 8007be4:	f893 3050 	ldrb.w	r3, [r3, #80]	; 0x50
 8007be8:	2b01      	cmp	r3, #1
 8007bea:	d101      	bne.n	8007bf0 <HAL_SPI_TransmitReceive+0x26>
 8007bec:	2302      	movs	r3, #2
 8007bee:	e18a      	b.n	8007f06 <HAL_SPI_TransmitReceive+0x33c>
 8007bf0:	68fb      	ldr	r3, [r7, #12]
 8007bf2:	2201      	movs	r2, #1
 8007bf4:	f883 2050 	strb.w	r2, [r3, #80]	; 0x50

  /* Init tickstart for timeout management*/
  tickstart = HAL_GetTick();
 8007bf8:	f7fe fd44 	bl	8006684 <HAL_GetTick>
 8007bfc:	6278      	str	r0, [r7, #36]	; 0x24

  /* Init temporary variables */
  tmp_state           = hspi->State;
 8007bfe:	68fb      	ldr	r3, [r7, #12]
 8007c00:	f893 3051 	ldrb.w	r3, [r3, #81]	; 0x51
 8007c04:	f887 3023 	strb.w	r3, [r7, #35]	; 0x23
  tmp_mode            = hspi->Init.Mode;
 8007c08:	68fb      	ldr	r3, [r7, #12]
 8007c0a:	685b      	ldr	r3, [r3, #4]
 8007c0c:	61fb      	str	r3, [r7, #28]
  initial_TxXferCount = Size;
 8007c0e:	887b      	ldrh	r3, [r7, #2]
 8007c10:	837b      	strh	r3, [r7, #26]

  if (!((tmp_state == HAL_SPI_STATE_READY) || \
 8007c12:	f897 3023 	ldrb.w	r3, [r7, #35]	; 0x23
 8007c16:	2b01      	cmp	r3, #1
 8007c18:	d00f      	beq.n	8007c3a <HAL_SPI_TransmitReceive+0x70>
 8007c1a:	69fb      	ldr	r3, [r7, #28]
 8007c1c:	f5b3 7f82 	cmp.w	r3, #260	; 0x104
 8007c20:	d107      	bne.n	8007c32 <HAL_SPI_TransmitReceive+0x68>
        ((tmp_mode == SPI_MODE_MASTER) && (hspi->Init.Direction == SPI_DIRECTION_2LINES) && (tmp_state == HAL_SPI_STATE_BUSY_RX))))
 8007c22:	68fb      	ldr	r3, [r7, #12]
 8007c24:	689b      	ldr	r3, [r3, #8]
 8007c26:	2b00      	cmp	r3, #0
 8007c28:	d103      	bne.n	8007c32 <HAL_SPI_TransmitReceive+0x68>
 8007c2a:	f897 3023 	ldrb.w	r3, [r7, #35]	; 0x23
 8007c2e:	2b04      	cmp	r3, #4
 8007c30:	d003      	beq.n	8007c3a <HAL_SPI_TransmitReceive+0x70>
  {
    errorcode = HAL_BUSY;
 8007c32:	2302      	movs	r3, #2
 8007c34:	f887 302b 	strb.w	r3, [r7, #43]	; 0x2b
    goto error;
 8007c38:	e15b      	b.n	8007ef2 <HAL_SPI_TransmitReceive+0x328>
  }

  if ((pTxData == NULL) || (pRxData == NULL) || (Size == 0U))
 8007c3a:	68bb      	ldr	r3, [r7, #8]
 8007c3c:	2b00      	cmp	r3, #0
 8007c3e:	d005      	beq.n	8007c4c <HAL_SPI_TransmitReceive+0x82>
 8007c40:	687b      	ldr	r3, [r7, #4]
 8007c42:	2b00      	cmp	r3, #0
 8007c44:	d002      	beq.n	8007c4c <HAL_SPI_TransmitReceive+0x82>
 8007c46:	887b      	ldrh	r3, [r7, #2]
 8007c48:	2b00      	cmp	r3, #0
 8007c4a:	d103      	bne.n	8007c54 <HAL_SPI_TransmitReceive+0x8a>
  {
    errorcode = HAL_ERROR;
 8007c4c:	2301      	movs	r3, #1
 8007c4e:	f887 302b 	strb.w	r3, [r7, #43]	; 0x2b
    goto error;
 8007c52:	e14e      	b.n	8007ef2 <HAL_SPI_TransmitReceive+0x328>
  }

  /* Don't overwrite in case of HAL_SPI_STATE_BUSY_RX */
  if (hspi->State != HAL_SPI_STATE_BUSY_RX)
 8007c54:	68fb      	ldr	r3, [r7, #12]
 8007c56:	f893 3051 	ldrb.w	r3, [r3, #81]	; 0x51
 8007c5a:	b2db      	uxtb	r3, r3
 8007c5c:	2b04      	cmp	r3, #4
 8007c5e:	d003      	beq.n	8007c68 <HAL_SPI_TransmitReceive+0x9e>
  {
    hspi->State = HAL_SPI_STATE_BUSY_TX_RX;
 8007c60:	68fb      	ldr	r3, [r7, #12]
 8007c62:	2205      	movs	r2, #5
 8007c64:	f883 2051 	strb.w	r2, [r3, #81]	; 0x51
  }

  /* Set the transaction information */
  hspi->ErrorCode   = HAL_SPI_ERROR_NONE;
 8007c68:	68fb      	ldr	r3, [r7, #12]
 8007c6a:	2200      	movs	r2, #0
 8007c6c:	655a      	str	r2, [r3, #84]	; 0x54
  hspi->pRxBuffPtr  = (uint8_t *)pRxData;
 8007c6e:	68fb      	ldr	r3, [r7, #12]
 8007c70:	687a      	ldr	r2, [r7, #4]
 8007c72:	639a      	str	r2, [r3, #56]	; 0x38
  hspi->RxXferCount = Size;
 8007c74:	68fb      	ldr	r3, [r7, #12]
 8007c76:	887a      	ldrh	r2, [r7, #2]
 8007c78:	87da      	strh	r2, [r3, #62]	; 0x3e
  hspi->RxXferSize  = Size;
 8007c7a:	68fb      	ldr	r3, [r7, #12]
 8007c7c:	887a      	ldrh	r2, [r7, #2]
 8007c7e:	879a      	strh	r2, [r3, #60]	; 0x3c
  hspi->pTxBuffPtr  = (uint8_t *)pTxData;
 8007c80:	68fb      	ldr	r3, [r7, #12]
 8007c82:	68ba      	ldr	r2, [r7, #8]
 8007c84:	631a      	str	r2, [r3, #48]	; 0x30
  hspi->TxXferCount = Size;
 8007c86:	68fb      	ldr	r3, [r7, #12]
 8007c88:	887a      	ldrh	r2, [r7, #2]
 8007c8a:	86da      	strh	r2, [r3, #54]	; 0x36
  hspi->TxXferSize  = Size;
 8007c8c:	68fb      	ldr	r3, [r7, #12]
 8007c8e:	887a      	ldrh	r2, [r7, #2]
 8007c90:	869a      	strh	r2, [r3, #52]	; 0x34

  /*Init field not used in handle to zero */
  hspi->RxISR       = NULL;
 8007c92:	68fb      	ldr	r3, [r7, #12]
 8007c94:	2200      	movs	r2, #0
 8007c96:	641a      	str	r2, [r3, #64]	; 0x40
  hspi->TxISR       = NULL;
 8007c98:	68fb      	ldr	r3, [r7, #12]
 8007c9a:	2200      	movs	r2, #0
 8007c9c:	645a      	str	r2, [r3, #68]	; 0x44
    SPI_RESET_CRC(hspi);
  }
#endif /* USE_SPI_CRC */

  /* Check if the SPI is already enabled */
  if ((hspi->Instance->CR1 & SPI_CR1_SPE) != SPI_CR1_SPE)
 8007c9e:	68fb      	ldr	r3, [r7, #12]
 8007ca0:	681b      	ldr	r3, [r3, #0]
 8007ca2:	681b      	ldr	r3, [r3, #0]
 8007ca4:	f003 0340 	and.w	r3, r3, #64	; 0x40
 8007ca8:	2b40      	cmp	r3, #64	; 0x40
 8007caa:	d007      	beq.n	8007cbc <HAL_SPI_TransmitReceive+0xf2>
  {
    /* Enable SPI peripheral */
    __HAL_SPI_ENABLE(hspi);
 8007cac:	68fb      	ldr	r3, [r7, #12]
 8007cae:	681b      	ldr	r3, [r3, #0]
 8007cb0:	681a      	ldr	r2, [r3, #0]
 8007cb2:	68fb      	ldr	r3, [r7, #12]
 8007cb4:	681b      	ldr	r3, [r3, #0]
 8007cb6:	f042 0240 	orr.w	r2, r2, #64	; 0x40
 8007cba:	601a      	str	r2, [r3, #0]
  }

  /* Transmit and Receive data in 16 Bit mode */
  if (hspi->Init.DataSize == SPI_DATASIZE_16BIT)
 8007cbc:	68fb      	ldr	r3, [r7, #12]
 8007cbe:	68db      	ldr	r3, [r3, #12]
 8007cc0:	f5b3 6f00 	cmp.w	r3, #2048	; 0x800
 8007cc4:	d178      	bne.n	8007db8 <HAL_SPI_TransmitReceive+0x1ee>
  {
    if ((hspi->Init.Mode == SPI_MODE_SLAVE) || (initial_TxXferCount == 0x01U))
 8007cc6:	68fb      	ldr	r3, [r7, #12]
 8007cc8:	685b      	ldr	r3, [r3, #4]
 8007cca:	2b00      	cmp	r3, #0
 8007ccc:	d002      	beq.n	8007cd4 <HAL_SPI_TransmitReceive+0x10a>
 8007cce:	8b7b      	ldrh	r3, [r7, #26]
 8007cd0:	2b01      	cmp	r3, #1
 8007cd2:	d166      	bne.n	8007da2 <HAL_SPI_TransmitReceive+0x1d8>
    {
      hspi->Instance->DR = *((uint16_t *)hspi->pTxBuffPtr);
 8007cd4:	68fb      	ldr	r3, [r7, #12]
 8007cd6:	6b1b      	ldr	r3, [r3, #48]	; 0x30
 8007cd8:	881a      	ldrh	r2, [r3, #0]
 8007cda:	68fb      	ldr	r3, [r7, #12]
 8007cdc:	681b      	ldr	r3, [r3, #0]
 8007cde:	60da      	str	r2, [r3, #12]
      hspi->pTxBuffPtr += sizeof(uint16_t);
 8007ce0:	68fb      	ldr	r3, [r7, #12]
 8007ce2:	6b1b      	ldr	r3, [r3, #48]	; 0x30
 8007ce4:	1c9a      	adds	r2, r3, #2
 8007ce6:	68fb      	ldr	r3, [r7, #12]
 8007ce8:	631a      	str	r2, [r3, #48]	; 0x30
      hspi->TxXferCount--;
 8007cea:	68fb      	ldr	r3, [r7, #12]
 8007cec:	8edb      	ldrh	r3, [r3, #54]	; 0x36
 8007cee:	b29b      	uxth	r3, r3
 8007cf0:	3b01      	subs	r3, #1
 8007cf2:	b29a      	uxth	r2, r3
 8007cf4:	68fb      	ldr	r3, [r7, #12]
 8007cf6:	86da      	strh	r2, [r3, #54]	; 0x36
    }
    while ((hspi->TxXferCount > 0U) || (hspi->RxXferCount > 0U))
 8007cf8:	e053      	b.n	8007da2 <HAL_SPI_TransmitReceive+0x1d8>
    {
      /* Check TXE flag */
      if ((__HAL_SPI_GET_FLAG(hspi, SPI_FLAG_TXE)) && (hspi->TxXferCount > 0U) && (txallowed == 1U))
 8007cfa:	68fb      	ldr	r3, [r7, #12]
 8007cfc:	681b      	ldr	r3, [r3, #0]
 8007cfe:	689b      	ldr	r3, [r3, #8]
 8007d00:	f003 0302 	and.w	r3, r3, #2
 8007d04:	2b02      	cmp	r3, #2
 8007d06:	d11b      	bne.n	8007d40 <HAL_SPI_TransmitReceive+0x176>
 8007d08:	68fb      	ldr	r3, [r7, #12]
 8007d0a:	8edb      	ldrh	r3, [r3, #54]	; 0x36
 8007d0c:	b29b      	uxth	r3, r3
 8007d0e:	2b00      	cmp	r3, #0
 8007d10:	d016      	beq.n	8007d40 <HAL_SPI_TransmitReceive+0x176>
 8007d12:	6afb      	ldr	r3, [r7, #44]	; 0x2c
 8007d14:	2b01      	cmp	r3, #1
 8007d16:	d113      	bne.n	8007d40 <HAL_SPI_TransmitReceive+0x176>
      {
        hspi->Instance->DR = *((uint16_t *)hspi->pTxBuffPtr);
 8007d18:	68fb      	ldr	r3, [r7, #12]
 8007d1a:	6b1b      	ldr	r3, [r3, #48]	; 0x30
 8007d1c:	881a      	ldrh	r2, [r3, #0]
 8007d1e:	68fb      	ldr	r3, [r7, #12]
 8007d20:	681b      	ldr	r3, [r3, #0]
 8007d22:	60da      	str	r2, [r3, #12]
        hspi->pTxBuffPtr += sizeof(uint16_t);
 8007d24:	68fb      	ldr	r3, [r7, #12]
 8007d26:	6b1b      	ldr	r3, [r3, #48]	; 0x30
 8007d28:	1c9a      	adds	r2, r3, #2
 8007d2a:	68fb      	ldr	r3, [r7, #12]
 8007d2c:	631a      	str	r2, [r3, #48]	; 0x30
        hspi->TxXferCount--;
 8007d2e:	68fb      	ldr	r3, [r7, #12]
 8007d30:	8edb      	ldrh	r3, [r3, #54]	; 0x36
 8007d32:	b29b      	uxth	r3, r3
 8007d34:	3b01      	subs	r3, #1
 8007d36:	b29a      	uxth	r2, r3
 8007d38:	68fb      	ldr	r3, [r7, #12]
 8007d3a:	86da      	strh	r2, [r3, #54]	; 0x36
        /* Next Data is a reception (Rx). Tx not allowed */
        txallowed = 0U;
 8007d3c:	2300      	movs	r3, #0
 8007d3e:	62fb      	str	r3, [r7, #44]	; 0x2c
        }
#endif /* USE_SPI_CRC */
      }

      /* Check RXNE flag */
      if ((__HAL_SPI_GET_FLAG(hspi, SPI_FLAG_RXNE)) && (hspi->RxXferCount > 0U))
 8007d40:	68fb      	ldr	r3, [r7, #12]
 8007d42:	681b      	ldr	r3, [r3, #0]
 8007d44:	689b      	ldr	r3, [r3, #8]
 8007d46:	f003 0301 	and.w	r3, r3, #1
 8007d4a:	2b01      	cmp	r3, #1
 8007d4c:	d119      	bne.n	8007d82 <HAL_SPI_TransmitReceive+0x1b8>
 8007d4e:	68fb      	ldr	r3, [r7, #12]
 8007d50:	8fdb      	ldrh	r3, [r3, #62]	; 0x3e
 8007d52:	b29b      	uxth	r3, r3
 8007d54:	2b00      	cmp	r3, #0
 8007d56:	d014      	beq.n	8007d82 <HAL_SPI_TransmitReceive+0x1b8>
      {
        *((uint16_t *)hspi->pRxBuffPtr) = (uint16_t)hspi->Instance->DR;
 8007d58:	68fb      	ldr	r3, [r7, #12]
 8007d5a:	681b      	ldr	r3, [r3, #0]
 8007d5c:	68da      	ldr	r2, [r3, #12]
 8007d5e:	68fb      	ldr	r3, [r7, #12]
 8007d60:	6b9b      	ldr	r3, [r3, #56]	; 0x38
 8007d62:	b292      	uxth	r2, r2
 8007d64:	801a      	strh	r2, [r3, #0]
        hspi->pRxBuffPtr += sizeof(uint16_t);
 8007d66:	68fb      	ldr	r3, [r7, #12]
 8007d68:	6b9b      	ldr	r3, [r3, #56]	; 0x38
 8007d6a:	1c9a      	adds	r2, r3, #2
 8007d6c:	68fb      	ldr	r3, [r7, #12]
 8007d6e:	639a      	str	r2, [r3, #56]	; 0x38
        hspi->RxXferCount--;
 8007d70:	68fb      	ldr	r3, [r7, #12]
 8007d72:	8fdb      	ldrh	r3, [r3, #62]	; 0x3e
 8007d74:	b29b      	uxth	r3, r3
 8007d76:	3b01      	subs	r3, #1
 8007d78:	b29a      	uxth	r2, r3
 8007d7a:	68fb      	ldr	r3, [r7, #12]
 8007d7c:	87da      	strh	r2, [r3, #62]	; 0x3e
        /* Next Data is a Transmission (Tx). Tx is allowed */
        txallowed = 1U;
 8007d7e:	2301      	movs	r3, #1
 8007d80:	62fb      	str	r3, [r7, #44]	; 0x2c
      }
      if (((HAL_GetTick() - tickstart) >=  Timeout) && (Timeout != HAL_MAX_DELAY))
 8007d82:	f7fe fc7f 	bl	8006684 <HAL_GetTick>
 8007d86:	4602      	mov	r2, r0
 8007d88:	6a7b      	ldr	r3, [r7, #36]	; 0x24
 8007d8a:	1ad3      	subs	r3, r2, r3
 8007d8c:	6bba      	ldr	r2, [r7, #56]	; 0x38
 8007d8e:	429a      	cmp	r2, r3
 8007d90:	d807      	bhi.n	8007da2 <HAL_SPI_TransmitReceive+0x1d8>
 8007d92:	6bbb      	ldr	r3, [r7, #56]	; 0x38
 8007d94:	f1b3 3fff 	cmp.w	r3, #4294967295
 8007d98:	d003      	beq.n	8007da2 <HAL_SPI_TransmitReceive+0x1d8>
      {
        errorcode = HAL_TIMEOUT;
 8007d9a:	2303      	movs	r3, #3
 8007d9c:	f887 302b 	strb.w	r3, [r7, #43]	; 0x2b
        goto error;
 8007da0:	e0a7      	b.n	8007ef2 <HAL_SPI_TransmitReceive+0x328>
    while ((hspi->TxXferCount > 0U) || (hspi->RxXferCount > 0U))
 8007da2:	68fb      	ldr	r3, [r7, #12]
 8007da4:	8edb      	ldrh	r3, [r3, #54]	; 0x36
 8007da6:	b29b      	uxth	r3, r3
 8007da8:	2b00      	cmp	r3, #0
 8007daa:	d1a6      	bne.n	8007cfa <HAL_SPI_TransmitReceive+0x130>
 8007dac:	68fb      	ldr	r3, [r7, #12]
 8007dae:	8fdb      	ldrh	r3, [r3, #62]	; 0x3e
 8007db0:	b29b      	uxth	r3, r3
 8007db2:	2b00      	cmp	r3, #0
 8007db4:	d1a1      	bne.n	8007cfa <HAL_SPI_TransmitReceive+0x130>
 8007db6:	e07c      	b.n	8007eb2 <HAL_SPI_TransmitReceive+0x2e8>
    }
  }
  /* Transmit and Receive data in 8 Bit mode */
  else
  {
    if ((hspi->Init.Mode == SPI_MODE_SLAVE) || (initial_TxXferCount == 0x01U))
 8007db8:	68fb      	ldr	r3, [r7, #12]
 8007dba:	685b      	ldr	r3, [r3, #4]
 8007dbc:	2b00      	cmp	r3, #0
 8007dbe:	d002      	beq.n	8007dc6 <HAL_SPI_TransmitReceive+0x1fc>
 8007dc0:	8b7b      	ldrh	r3, [r7, #26]
 8007dc2:	2b01      	cmp	r3, #1
 8007dc4:	d16b      	bne.n	8007e9e <HAL_SPI_TransmitReceive+0x2d4>
    {
      *((__IO uint8_t *)&hspi->Instance->DR) = (*hspi->pTxBuffPtr);
 8007dc6:	68fb      	ldr	r3, [r7, #12]
 8007dc8:	6b1a      	ldr	r2, [r3, #48]	; 0x30
 8007dca:	68fb      	ldr	r3, [r7, #12]
 8007dcc:	681b      	ldr	r3, [r3, #0]
 8007dce:	330c      	adds	r3, #12
 8007dd0:	7812      	ldrb	r2, [r2, #0]
 8007dd2:	701a      	strb	r2, [r3, #0]
      hspi->pTxBuffPtr += sizeof(uint8_t);
 8007dd4:	68fb      	ldr	r3, [r7, #12]
 8007dd6:	6b1b      	ldr	r3, [r3, #48]	; 0x30
 8007dd8:	1c5a      	adds	r2, r3, #1
 8007dda:	68fb      	ldr	r3, [r7, #12]
 8007ddc:	631a      	str	r2, [r3, #48]	; 0x30
      hspi->TxXferCount--;
 8007dde:	68fb      	ldr	r3, [r7, #12]
 8007de0:	8edb      	ldrh	r3, [r3, #54]	; 0x36
 8007de2:	b29b      	uxth	r3, r3
 8007de4:	3b01      	subs	r3, #1
 8007de6:	b29a      	uxth	r2, r3
 8007de8:	68fb      	ldr	r3, [r7, #12]
 8007dea:	86da      	strh	r2, [r3, #54]	; 0x36
    }
    while ((hspi->TxXferCount > 0U) || (hspi->RxXferCount > 0U))
 8007dec:	e057      	b.n	8007e9e <HAL_SPI_TransmitReceive+0x2d4>
    {
      /* Check TXE flag */
      if ((__HAL_SPI_GET_FLAG(hspi, SPI_FLAG_TXE)) && (hspi->TxXferCount > 0U) && (txallowed == 1U))
 8007dee:	68fb      	ldr	r3, [r7, #12]
 8007df0:	681b      	ldr	r3, [r3, #0]
 8007df2:	689b      	ldr	r3, [r3, #8]
 8007df4:	f003 0302 	and.w	r3, r3, #2
 8007df8:	2b02      	cmp	r3, #2
 8007dfa:	d11c      	bne.n	8007e36 <HAL_SPI_TransmitReceive+0x26c>
 8007dfc:	68fb      	ldr	r3, [r7, #12]
 8007dfe:	8edb      	ldrh	r3, [r3, #54]	; 0x36
 8007e00:	b29b      	uxth	r3, r3
 8007e02:	2b00      	cmp	r3, #0
 8007e04:	d017      	beq.n	8007e36 <HAL_SPI_TransmitReceive+0x26c>
 8007e06:	6afb      	ldr	r3, [r7, #44]	; 0x2c
 8007e08:	2b01      	cmp	r3, #1
 8007e0a:	d114      	bne.n	8007e36 <HAL_SPI_TransmitReceive+0x26c>
      {
        *(__IO uint8_t *)&hspi->Instance->DR = (*hspi->pTxBuffPtr);
 8007e0c:	68fb      	ldr	r3, [r7, #12]
 8007e0e:	6b1a      	ldr	r2, [r3, #48]	; 0x30
 8007e10:	68fb      	ldr	r3, [r7, #12]
 8007e12:	681b      	ldr	r3, [r3, #0]
 8007e14:	330c      	adds	r3, #12
 8007e16:	7812      	ldrb	r2, [r2, #0]
 8007e18:	701a      	strb	r2, [r3, #0]
        hspi->pTxBuffPtr++;
 8007e1a:	68fb      	ldr	r3, [r7, #12]
 8007e1c:	6b1b      	ldr	r3, [r3, #48]	; 0x30
 8007e1e:	1c5a      	adds	r2, r3, #1
 8007e20:	68fb      	ldr	r3, [r7, #12]
 8007e22:	631a      	str	r2, [r3, #48]	; 0x30
        hspi->TxXferCount--;
 8007e24:	68fb      	ldr	r3, [r7, #12]
 8007e26:	8edb      	ldrh	r3, [r3, #54]	; 0x36
 8007e28:	b29b      	uxth	r3, r3
 8007e2a:	3b01      	subs	r3, #1
 8007e2c:	b29a      	uxth	r2, r3
 8007e2e:	68fb      	ldr	r3, [r7, #12]
 8007e30:	86da      	strh	r2, [r3, #54]	; 0x36
        /* Next Data is a reception (Rx). Tx not allowed */
        txallowed = 0U;
 8007e32:	2300      	movs	r3, #0
 8007e34:	62fb      	str	r3, [r7, #44]	; 0x2c
        }
#endif /* USE_SPI_CRC */
      }

      /* Wait until RXNE flag is reset */
      if ((__HAL_SPI_GET_FLAG(hspi, SPI_FLAG_RXNE)) && (hspi->RxXferCount > 0U))
 8007e36:	68fb      	ldr	r3, [r7, #12]
 8007e38:	681b      	ldr	r3, [r3, #0]
 8007e3a:	689b      	ldr	r3, [r3, #8]
 8007e3c:	f003 0301 	and.w	r3, r3, #1
 8007e40:	2b01      	cmp	r3, #1
 8007e42:	d119      	bne.n	8007e78 <HAL_SPI_TransmitReceive+0x2ae>
 8007e44:	68fb      	ldr	r3, [r7, #12]
 8007e46:	8fdb      	ldrh	r3, [r3, #62]	; 0x3e
 8007e48:	b29b      	uxth	r3, r3
 8007e4a:	2b00      	cmp	r3, #0
 8007e4c:	d014      	beq.n	8007e78 <HAL_SPI_TransmitReceive+0x2ae>
      {
        (*(uint8_t *)hspi->pRxBuffPtr) = hspi->Instance->DR;
 8007e4e:	68fb      	ldr	r3, [r7, #12]
 8007e50:	681b      	ldr	r3, [r3, #0]
 8007e52:	68da      	ldr	r2, [r3, #12]
 8007e54:	68fb      	ldr	r3, [r7, #12]
 8007e56:	6b9b      	ldr	r3, [r3, #56]	; 0x38
 8007e58:	b2d2      	uxtb	r2, r2
 8007e5a:	701a      	strb	r2, [r3, #0]
        hspi->pRxBuffPtr++;
 8007e5c:	68fb      	ldr	r3, [r7, #12]
 8007e5e:	6b9b      	ldr	r3, [r3, #56]	; 0x38
 8007e60:	1c5a      	adds	r2, r3, #1
 8007e62:	68fb      	ldr	r3, [r7, #12]
 8007e64:	639a      	str	r2, [r3, #56]	; 0x38
        hspi->RxXferCount--;
 8007e66:	68fb      	ldr	r3, [r7, #12]
 8007e68:	8fdb      	ldrh	r3, [r3, #62]	; 0x3e
 8007e6a:	b29b      	uxth	r3, r3
 8007e6c:	3b01      	subs	r3, #1
 8007e6e:	b29a      	uxth	r2, r3
 8007e70:	68fb      	ldr	r3, [r7, #12]
 8007e72:	87da      	strh	r2, [r3, #62]	; 0x3e
        /* Next Data is a Transmission (Tx). Tx is allowed */
        txallowed = 1U;
 8007e74:	2301      	movs	r3, #1
 8007e76:	62fb      	str	r3, [r7, #44]	; 0x2c
      }
      if ((((HAL_GetTick() - tickstart) >=  Timeout) && ((Timeout != HAL_MAX_DELAY))) || (Timeout == 0U))
 8007e78:	f7fe fc04 	bl	8006684 <HAL_GetTick>
 8007e7c:	4602      	mov	r2, r0
 8007e7e:	6a7b      	ldr	r3, [r7, #36]	; 0x24
 8007e80:	1ad3      	subs	r3, r2, r3
 8007e82:	6bba      	ldr	r2, [r7, #56]	; 0x38
 8007e84:	429a      	cmp	r2, r3
 8007e86:	d803      	bhi.n	8007e90 <HAL_SPI_TransmitReceive+0x2c6>
 8007e88:	6bbb      	ldr	r3, [r7, #56]	; 0x38
 8007e8a:	f1b3 3fff 	cmp.w	r3, #4294967295
 8007e8e:	d102      	bne.n	8007e96 <HAL_SPI_TransmitReceive+0x2cc>
 8007e90:	6bbb      	ldr	r3, [r7, #56]	; 0x38
 8007e92:	2b00      	cmp	r3, #0
 8007e94:	d103      	bne.n	8007e9e <HAL_SPI_TransmitReceive+0x2d4>
      {
        errorcode = HAL_TIMEOUT;
 8007e96:	2303      	movs	r3, #3
 8007e98:	f887 302b 	strb.w	r3, [r7, #43]	; 0x2b
        goto error;
 8007e9c:	e029      	b.n	8007ef2 <HAL_SPI_TransmitReceive+0x328>
    while ((hspi->TxXferCount > 0U) || (hspi->RxXferCount > 0U))
 8007e9e:	68fb      	ldr	r3, [r7, #12]
 8007ea0:	8edb      	ldrh	r3, [r3, #54]	; 0x36
 8007ea2:	b29b      	uxth	r3, r3
 8007ea4:	2b00      	cmp	r3, #0
 8007ea6:	d1a2      	bne.n	8007dee <HAL_SPI_TransmitReceive+0x224>
 8007ea8:	68fb      	ldr	r3, [r7, #12]
 8007eaa:	8fdb      	ldrh	r3, [r3, #62]	; 0x3e
 8007eac:	b29b      	uxth	r3, r3
 8007eae:	2b00      	cmp	r3, #0
 8007eb0:	d19d      	bne.n	8007dee <HAL_SPI_TransmitReceive+0x224>
    }
  }
#endif /* USE_SPI_CRC */

  /* Check the end of the transaction */
  if (SPI_EndRxTxTransaction(hspi, Timeout, tickstart) != HAL_OK)
 8007eb2:	6a7a      	ldr	r2, [r7, #36]	; 0x24
 8007eb4:	6bb9      	ldr	r1, [r7, #56]	; 0x38
 8007eb6:	68f8      	ldr	r0, [r7, #12]
 8007eb8:	f000 f904 	bl	80080c4 <SPI_EndRxTxTransaction>
 8007ebc:	4603      	mov	r3, r0
 8007ebe:	2b00      	cmp	r3, #0
 8007ec0:	d006      	beq.n	8007ed0 <HAL_SPI_TransmitReceive+0x306>
  {
    errorcode = HAL_ERROR;
 8007ec2:	2301      	movs	r3, #1
 8007ec4:	f887 302b 	strb.w	r3, [r7, #43]	; 0x2b
    hspi->ErrorCode = HAL_SPI_ERROR_FLAG;
 8007ec8:	68fb      	ldr	r3, [r7, #12]
 8007eca:	2220      	movs	r2, #32
 8007ecc:	655a      	str	r2, [r3, #84]	; 0x54
    goto error;
 8007ece:	e010      	b.n	8007ef2 <HAL_SPI_TransmitReceive+0x328>
  }

  /* Clear overrun flag in 2 Lines communication mode because received is not read */
  if (hspi->Init.Direction == SPI_DIRECTION_2LINES)
 8007ed0:	68fb      	ldr	r3, [r7, #12]
 8007ed2:	689b      	ldr	r3, [r3, #8]
 8007ed4:	2b00      	cmp	r3, #0
 8007ed6:	d10b      	bne.n	8007ef0 <HAL_SPI_TransmitReceive+0x326>
  {
    __HAL_SPI_CLEAR_OVRFLAG(hspi);
 8007ed8:	2300      	movs	r3, #0
 8007eda:	617b      	str	r3, [r7, #20]
 8007edc:	68fb      	ldr	r3, [r7, #12]
 8007ede:	681b      	ldr	r3, [r3, #0]
 8007ee0:	68db      	ldr	r3, [r3, #12]
 8007ee2:	617b      	str	r3, [r7, #20]
 8007ee4:	68fb      	ldr	r3, [r7, #12]
 8007ee6:	681b      	ldr	r3, [r3, #0]
 8007ee8:	689b      	ldr	r3, [r3, #8]
 8007eea:	617b      	str	r3, [r7, #20]
 8007eec:	697b      	ldr	r3, [r7, #20]
 8007eee:	e000      	b.n	8007ef2 <HAL_SPI_TransmitReceive+0x328>
  }

error :
 8007ef0:	bf00      	nop
  hspi->State = HAL_SPI_STATE_READY;
 8007ef2:	68fb      	ldr	r3, [r7, #12]
 8007ef4:	2201      	movs	r2, #1
 8007ef6:	f883 2051 	strb.w	r2, [r3, #81]	; 0x51
  __HAL_UNLOCK(hspi);
 8007efa:	68fb      	ldr	r3, [r7, #12]
 8007efc:	2200      	movs	r2, #0
 8007efe:	f883 2050 	strb.w	r2, [r3, #80]	; 0x50
  return errorcode;
 8007f02:	f897 302b 	ldrb.w	r3, [r7, #43]	; 0x2b
}
 8007f06:	4618      	mov	r0, r3
 8007f08:	3730      	adds	r7, #48	; 0x30
 8007f0a:	46bd      	mov	sp, r7
 8007f0c:	bd80      	pop	{r7, pc}
	...

08007f10 <SPI_WaitFlagStateUntilTimeout>:
  * @param  Tickstart tick start value
  * @retval HAL status
  */
static HAL_StatusTypeDef SPI_WaitFlagStateUntilTimeout(SPI_HandleTypeDef *hspi, uint32_t Flag, FlagStatus State,
                                                       uint32_t Timeout, uint32_t Tickstart)
{
 8007f10:	b580      	push	{r7, lr}
 8007f12:	b088      	sub	sp, #32
 8007f14:	af00      	add	r7, sp, #0
 8007f16:	60f8      	str	r0, [r7, #12]
 8007f18:	60b9      	str	r1, [r7, #8]
 8007f1a:	603b      	str	r3, [r7, #0]
 8007f1c:	4613      	mov	r3, r2
 8007f1e:	71fb      	strb	r3, [r7, #7]
  __IO uint32_t count;
  uint32_t tmp_timeout;
  uint32_t tmp_tickstart;

  /* Adjust Timeout value  in case of end of transfer */
  tmp_timeout   = Timeout - (HAL_GetTick() - Tickstart);
 8007f20:	f7fe fbb0 	bl	8006684 <HAL_GetTick>
 8007f24:	4602      	mov	r2, r0
 8007f26:	6abb      	ldr	r3, [r7, #40]	; 0x28
 8007f28:	1a9b      	subs	r3, r3, r2
 8007f2a:	683a      	ldr	r2, [r7, #0]
 8007f2c:	4413      	add	r3, r2
 8007f2e:	61fb      	str	r3, [r7, #28]
  tmp_tickstart = HAL_GetTick();
 8007f30:	f7fe fba8 	bl	8006684 <HAL_GetTick>
 8007f34:	61b8      	str	r0, [r7, #24]

  /* Calculate Timeout based on a software loop to avoid blocking issue if Systick is disabled */
  count = tmp_timeout * ((SystemCoreClock * 32U) >> 20U);
 8007f36:	4b39      	ldr	r3, [pc, #228]	; (800801c <SPI_WaitFlagStateUntilTimeout+0x10c>)
 8007f38:	681b      	ldr	r3, [r3, #0]
 8007f3a:	015b      	lsls	r3, r3, #5
 8007f3c:	0d1b      	lsrs	r3, r3, #20
 8007f3e:	69fa      	ldr	r2, [r7, #28]
 8007f40:	fb02 f303 	mul.w	r3, r2, r3
 8007f44:	617b      	str	r3, [r7, #20]

  while ((__HAL_SPI_GET_FLAG(hspi, Flag) ? SET : RESET) != State)
 8007f46:	e054      	b.n	8007ff2 <SPI_WaitFlagStateUntilTimeout+0xe2>
  {
    if (Timeout != HAL_MAX_DELAY)
 8007f48:	683b      	ldr	r3, [r7, #0]
 8007f4a:	f1b3 3fff 	cmp.w	r3, #4294967295
 8007f4e:	d050      	beq.n	8007ff2 <SPI_WaitFlagStateUntilTimeout+0xe2>
    {
      if (((HAL_GetTick() - tmp_tickstart) >= tmp_timeout) || (tmp_timeout == 0U))
 8007f50:	f7fe fb98 	bl	8006684 <HAL_GetTick>
 8007f54:	4602      	mov	r2, r0
 8007f56:	69bb      	ldr	r3, [r7, #24]
 8007f58:	1ad3      	subs	r3, r2, r3
 8007f5a:	69fa      	ldr	r2, [r7, #28]
 8007f5c:	429a      	cmp	r2, r3
 8007f5e:	d902      	bls.n	8007f66 <SPI_WaitFlagStateUntilTimeout+0x56>
 8007f60:	69fb      	ldr	r3, [r7, #28]
 8007f62:	2b00      	cmp	r3, #0
 8007f64:	d13d      	bne.n	8007fe2 <SPI_WaitFlagStateUntilTimeout+0xd2>
        /* Disable the SPI and reset the CRC: the CRC value should be cleared
           on both master and slave sides in order to resynchronize the master
           and slave for their respective CRC calculation */

        /* Disable TXE, RXNE and ERR interrupts for the interrupt process */
        __HAL_SPI_DISABLE_IT(hspi, (SPI_IT_TXE | SPI_IT_RXNE | SPI_IT_ERR));
 8007f66:	68fb      	ldr	r3, [r7, #12]
 8007f68:	681b      	ldr	r3, [r3, #0]
 8007f6a:	685a      	ldr	r2, [r3, #4]
 8007f6c:	68fb      	ldr	r3, [r7, #12]
 8007f6e:	681b      	ldr	r3, [r3, #0]
 8007f70:	f022 02e0 	bic.w	r2, r2, #224	; 0xe0
 8007f74:	605a      	str	r2, [r3, #4]

        if ((hspi->Init.Mode == SPI_MODE_MASTER) && ((hspi->Init.Direction == SPI_DIRECTION_1LINE)
 8007f76:	68fb      	ldr	r3, [r7, #12]
 8007f78:	685b      	ldr	r3, [r3, #4]
 8007f7a:	f5b3 7f82 	cmp.w	r3, #260	; 0x104
 8007f7e:	d111      	bne.n	8007fa4 <SPI_WaitFlagStateUntilTimeout+0x94>
 8007f80:	68fb      	ldr	r3, [r7, #12]
 8007f82:	689b      	ldr	r3, [r3, #8]
 8007f84:	f5b3 4f00 	cmp.w	r3, #32768	; 0x8000
 8007f88:	d004      	beq.n	8007f94 <SPI_WaitFlagStateUntilTimeout+0x84>
                                                     || (hspi->Init.Direction == SPI_DIRECTION_2LINES_RXONLY)))
 8007f8a:	68fb      	ldr	r3, [r7, #12]
 8007f8c:	689b      	ldr	r3, [r3, #8]
 8007f8e:	f5b3 6f80 	cmp.w	r3, #1024	; 0x400
 8007f92:	d107      	bne.n	8007fa4 <SPI_WaitFlagStateUntilTimeout+0x94>
        {
          /* Disable SPI peripheral */
          __HAL_SPI_DISABLE(hspi);
 8007f94:	68fb      	ldr	r3, [r7, #12]
 8007f96:	681b      	ldr	r3, [r3, #0]
 8007f98:	681a      	ldr	r2, [r3, #0]
 8007f9a:	68fb      	ldr	r3, [r7, #12]
 8007f9c:	681b      	ldr	r3, [r3, #0]
 8007f9e:	f022 0240 	bic.w	r2, r2, #64	; 0x40
 8007fa2:	601a      	str	r2, [r3, #0]
        }

        /* Reset CRC Calculation */
        if (hspi->Init.CRCCalculation == SPI_CRCCALCULATION_ENABLE)
 8007fa4:	68fb      	ldr	r3, [r7, #12]
 8007fa6:	6a9b      	ldr	r3, [r3, #40]	; 0x28
 8007fa8:	f5b3 5f00 	cmp.w	r3, #8192	; 0x2000
 8007fac:	d10f      	bne.n	8007fce <SPI_WaitFlagStateUntilTimeout+0xbe>
        {
          SPI_RESET_CRC(hspi);
 8007fae:	68fb      	ldr	r3, [r7, #12]
 8007fb0:	681b      	ldr	r3, [r3, #0]
 8007fb2:	681a      	ldr	r2, [r3, #0]
 8007fb4:	68fb      	ldr	r3, [r7, #12]
 8007fb6:	681b      	ldr	r3, [r3, #0]
 8007fb8:	f422 5200 	bic.w	r2, r2, #8192	; 0x2000
 8007fbc:	601a      	str	r2, [r3, #0]
 8007fbe:	68fb      	ldr	r3, [r7, #12]
 8007fc0:	681b      	ldr	r3, [r3, #0]
 8007fc2:	681a      	ldr	r2, [r3, #0]
 8007fc4:	68fb      	ldr	r3, [r7, #12]
 8007fc6:	681b      	ldr	r3, [r3, #0]
 8007fc8:	f442 5200 	orr.w	r2, r2, #8192	; 0x2000
 8007fcc:	601a      	str	r2, [r3, #0]
        }

        hspi->State = HAL_SPI_STATE_READY;
 8007fce:	68fb      	ldr	r3, [r7, #12]
 8007fd0:	2201      	movs	r2, #1
 8007fd2:	f883 2051 	strb.w	r2, [r3, #81]	; 0x51

        /* Process Unlocked */
        __HAL_UNLOCK(hspi);
 8007fd6:	68fb      	ldr	r3, [r7, #12]
 8007fd8:	2200      	movs	r2, #0
 8007fda:	f883 2050 	strb.w	r2, [r3, #80]	; 0x50

        return HAL_TIMEOUT;
 8007fde:	2303      	movs	r3, #3
 8007fe0:	e017      	b.n	8008012 <SPI_WaitFlagStateUntilTimeout+0x102>
      }
      /* If Systick is disabled or not incremented, deactivate timeout to go in disable loop procedure */
      if(count == 0U)
 8007fe2:	697b      	ldr	r3, [r7, #20]
 8007fe4:	2b00      	cmp	r3, #0
 8007fe6:	d101      	bne.n	8007fec <SPI_WaitFlagStateUntilTimeout+0xdc>
      {
        tmp_timeout = 0U;
 8007fe8:	2300      	movs	r3, #0
 8007fea:	61fb      	str	r3, [r7, #28]
      }
      count--;
 8007fec:	697b      	ldr	r3, [r7, #20]
 8007fee:	3b01      	subs	r3, #1
 8007ff0:	617b      	str	r3, [r7, #20]
  while ((__HAL_SPI_GET_FLAG(hspi, Flag) ? SET : RESET) != State)
 8007ff2:	68fb      	ldr	r3, [r7, #12]
 8007ff4:	681b      	ldr	r3, [r3, #0]
 8007ff6:	689a      	ldr	r2, [r3, #8]
 8007ff8:	68bb      	ldr	r3, [r7, #8]
 8007ffa:	4013      	ands	r3, r2
 8007ffc:	68ba      	ldr	r2, [r7, #8]
 8007ffe:	429a      	cmp	r2, r3
 8008000:	bf0c      	ite	eq
 8008002:	2301      	moveq	r3, #1
 8008004:	2300      	movne	r3, #0
 8008006:	b2db      	uxtb	r3, r3
 8008008:	461a      	mov	r2, r3
 800800a:	79fb      	ldrb	r3, [r7, #7]
 800800c:	429a      	cmp	r2, r3
 800800e:	d19b      	bne.n	8007f48 <SPI_WaitFlagStateUntilTimeout+0x38>
    }
  }

  return HAL_OK;
 8008010:	2300      	movs	r3, #0
}
 8008012:	4618      	mov	r0, r3
 8008014:	3720      	adds	r7, #32
 8008016:	46bd      	mov	sp, r7
 8008018:	bd80      	pop	{r7, pc}
 800801a:	bf00      	nop
 800801c:	2000003c 	.word	0x2000003c

08008020 <SPI_EndRxTransaction>:
  * @param  Timeout Timeout duration
  * @param  Tickstart tick start value
  * @retval HAL status
  */
static HAL_StatusTypeDef SPI_EndRxTransaction(SPI_HandleTypeDef *hspi,  uint32_t Timeout, uint32_t Tickstart)
{
 8008020:	b580      	push	{r7, lr}
 8008022:	b086      	sub	sp, #24
 8008024:	af02      	add	r7, sp, #8
 8008026:	60f8      	str	r0, [r7, #12]
 8008028:	60b9      	str	r1, [r7, #8]
 800802a:	607a      	str	r2, [r7, #4]
  if ((hspi->Init.Mode == SPI_MODE_MASTER) && ((hspi->Init.Direction == SPI_DIRECTION_1LINE)
 800802c:	68fb      	ldr	r3, [r7, #12]
 800802e:	685b      	ldr	r3, [r3, #4]
 8008030:	f5b3 7f82 	cmp.w	r3, #260	; 0x104
 8008034:	d111      	bne.n	800805a <SPI_EndRxTransaction+0x3a>
 8008036:	68fb      	ldr	r3, [r7, #12]
 8008038:	689b      	ldr	r3, [r3, #8]
 800803a:	f5b3 4f00 	cmp.w	r3, #32768	; 0x8000
 800803e:	d004      	beq.n	800804a <SPI_EndRxTransaction+0x2a>
                                               || (hspi->Init.Direction == SPI_DIRECTION_2LINES_RXONLY)))
 8008040:	68fb      	ldr	r3, [r7, #12]
 8008042:	689b      	ldr	r3, [r3, #8]
 8008044:	f5b3 6f80 	cmp.w	r3, #1024	; 0x400
 8008048:	d107      	bne.n	800805a <SPI_EndRxTransaction+0x3a>
  {
    /* Disable SPI peripheral */
    __HAL_SPI_DISABLE(hspi);
 800804a:	68fb      	ldr	r3, [r7, #12]
 800804c:	681b      	ldr	r3, [r3, #0]
 800804e:	681a      	ldr	r2, [r3, #0]
 8008050:	68fb      	ldr	r3, [r7, #12]
 8008052:	681b      	ldr	r3, [r3, #0]
 8008054:	f022 0240 	bic.w	r2, r2, #64	; 0x40
 8008058:	601a      	str	r2, [r3, #0]
  }

  if ((hspi->Init.Mode == SPI_MODE_MASTER) && (hspi->Init.Direction == SPI_DIRECTION_2LINES_RXONLY))
 800805a:	68fb      	ldr	r3, [r7, #12]
 800805c:	685b      	ldr	r3, [r3, #4]
 800805e:	f5b3 7f82 	cmp.w	r3, #260	; 0x104
 8008062:	d117      	bne.n	8008094 <SPI_EndRxTransaction+0x74>
 8008064:	68fb      	ldr	r3, [r7, #12]
 8008066:	689b      	ldr	r3, [r3, #8]
 8008068:	f5b3 6f80 	cmp.w	r3, #1024	; 0x400
 800806c:	d112      	bne.n	8008094 <SPI_EndRxTransaction+0x74>
  {
    /* Wait the RXNE reset */
    if (SPI_WaitFlagStateUntilTimeout(hspi, SPI_FLAG_RXNE, RESET, Timeout, Tickstart) != HAL_OK)
 800806e:	687b      	ldr	r3, [r7, #4]
 8008070:	9300      	str	r3, [sp, #0]
 8008072:	68bb      	ldr	r3, [r7, #8]
 8008074:	2200      	movs	r2, #0
 8008076:	2101      	movs	r1, #1
 8008078:	68f8      	ldr	r0, [r7, #12]
 800807a:	f7ff ff49 	bl	8007f10 <SPI_WaitFlagStateUntilTimeout>
 800807e:	4603      	mov	r3, r0
 8008080:	2b00      	cmp	r3, #0
 8008082:	d01a      	beq.n	80080ba <SPI_EndRxTransaction+0x9a>
    {
      SET_BIT(hspi->ErrorCode, HAL_SPI_ERROR_FLAG);
 8008084:	68fb      	ldr	r3, [r7, #12]
 8008086:	6d5b      	ldr	r3, [r3, #84]	; 0x54
 8008088:	f043 0220 	orr.w	r2, r3, #32
 800808c:	68fb      	ldr	r3, [r7, #12]
 800808e:	655a      	str	r2, [r3, #84]	; 0x54
      return HAL_TIMEOUT;
 8008090:	2303      	movs	r3, #3
 8008092:	e013      	b.n	80080bc <SPI_EndRxTransaction+0x9c>
    }
  }
  else
  {
    /* Control the BSY flag */
    if (SPI_WaitFlagStateUntilTimeout(hspi, SPI_FLAG_BSY, RESET, Timeout, Tickstart) != HAL_OK)
 8008094:	687b      	ldr	r3, [r7, #4]
 8008096:	9300      	str	r3, [sp, #0]
 8008098:	68bb      	ldr	r3, [r7, #8]
 800809a:	2200      	movs	r2, #0
 800809c:	2180      	movs	r1, #128	; 0x80
 800809e:	68f8      	ldr	r0, [r7, #12]
 80080a0:	f7ff ff36 	bl	8007f10 <SPI_WaitFlagStateUntilTimeout>
 80080a4:	4603      	mov	r3, r0
 80080a6:	2b00      	cmp	r3, #0
 80080a8:	d007      	beq.n	80080ba <SPI_EndRxTransaction+0x9a>
    {
      SET_BIT(hspi->ErrorCode, HAL_SPI_ERROR_FLAG);
 80080aa:	68fb      	ldr	r3, [r7, #12]
 80080ac:	6d5b      	ldr	r3, [r3, #84]	; 0x54
 80080ae:	f043 0220 	orr.w	r2, r3, #32
 80080b2:	68fb      	ldr	r3, [r7, #12]
 80080b4:	655a      	str	r2, [r3, #84]	; 0x54
      return HAL_TIMEOUT;
 80080b6:	2303      	movs	r3, #3
 80080b8:	e000      	b.n	80080bc <SPI_EndRxTransaction+0x9c>
    }
  }
  return HAL_OK;
 80080ba:	2300      	movs	r3, #0
}
 80080bc:	4618      	mov	r0, r3
 80080be:	3710      	adds	r7, #16
 80080c0:	46bd      	mov	sp, r7
 80080c2:	bd80      	pop	{r7, pc}

080080c4 <SPI_EndRxTxTransaction>:
  * @param  Timeout Timeout duration
  * @param  Tickstart tick start value
  * @retval HAL status
  */
static HAL_StatusTypeDef SPI_EndRxTxTransaction(SPI_HandleTypeDef *hspi, uint32_t Timeout, uint32_t Tickstart)
{
 80080c4:	b580      	push	{r7, lr}
 80080c6:	b086      	sub	sp, #24
 80080c8:	af02      	add	r7, sp, #8
 80080ca:	60f8      	str	r0, [r7, #12]
 80080cc:	60b9      	str	r1, [r7, #8]
 80080ce:	607a      	str	r2, [r7, #4]
  /* Control the BSY flag */
  if (SPI_WaitFlagStateUntilTimeout(hspi, SPI_FLAG_BSY, RESET, Timeout, Tickstart) != HAL_OK)
 80080d0:	687b      	ldr	r3, [r7, #4]
 80080d2:	9300      	str	r3, [sp, #0]
 80080d4:	68bb      	ldr	r3, [r7, #8]
 80080d6:	2200      	movs	r2, #0
 80080d8:	2180      	movs	r1, #128	; 0x80
 80080da:	68f8      	ldr	r0, [r7, #12]
 80080dc:	f7ff ff18 	bl	8007f10 <SPI_WaitFlagStateUntilTimeout>
 80080e0:	4603      	mov	r3, r0
 80080e2:	2b00      	cmp	r3, #0
 80080e4:	d007      	beq.n	80080f6 <SPI_EndRxTxTransaction+0x32>
  {
    SET_BIT(hspi->ErrorCode, HAL_SPI_ERROR_FLAG);
 80080e6:	68fb      	ldr	r3, [r7, #12]
 80080e8:	6d5b      	ldr	r3, [r3, #84]	; 0x54
 80080ea:	f043 0220 	orr.w	r2, r3, #32
 80080ee:	68fb      	ldr	r3, [r7, #12]
 80080f0:	655a      	str	r2, [r3, #84]	; 0x54
    return HAL_TIMEOUT;
 80080f2:	2303      	movs	r3, #3
 80080f4:	e000      	b.n	80080f8 <SPI_EndRxTxTransaction+0x34>
  }
  return HAL_OK;
 80080f6:	2300      	movs	r3, #0
}
 80080f8:	4618      	mov	r0, r3
 80080fa:	3710      	adds	r7, #16
 80080fc:	46bd      	mov	sp, r7
 80080fe:	bd80      	pop	{r7, pc}

08008100 <HAL_UART_Init>:
  * @param  huart  Pointer to a UART_HandleTypeDef structure that contains
  *                the configuration information for the specified UART module.
  * @retval HAL status
  */
HAL_StatusTypeDef HAL_UART_Init(UART_HandleTypeDef *huart)
{
 8008100:	b580      	push	{r7, lr}
 8008102:	b082      	sub	sp, #8
 8008104:	af00      	add	r7, sp, #0
 8008106:	6078      	str	r0, [r7, #4]
  /* Check the UART handle allocation */
  if (huart == NULL)
 8008108:	687b      	ldr	r3, [r7, #4]
 800810a:	2b00      	cmp	r3, #0
 800810c:	d101      	bne.n	8008112 <HAL_UART_Init+0x12>
  {
    return HAL_ERROR;
 800810e:	2301      	movs	r3, #1
 8008110:	e03f      	b.n	8008192 <HAL_UART_Init+0x92>
  assert_param(IS_UART_WORD_LENGTH(huart->Init.WordLength));
#if defined(USART_CR1_OVER8)
  assert_param(IS_UART_OVERSAMPLING(huart->Init.OverSampling));
#endif /* USART_CR1_OVER8 */

  if (huart->gState == HAL_UART_STATE_RESET)
 8008112:	687b      	ldr	r3, [r7, #4]
 8008114:	f893 303d 	ldrb.w	r3, [r3, #61]	; 0x3d
 8008118:	b2db      	uxtb	r3, r3
 800811a:	2b00      	cmp	r3, #0
 800811c:	d106      	bne.n	800812c <HAL_UART_Init+0x2c>
  {
    /* Allocate lock resource and initialize it */
    huart->Lock = HAL_UNLOCKED;
 800811e:	687b      	ldr	r3, [r7, #4]
 8008120:	2200      	movs	r2, #0
 8008122:	f883 203c 	strb.w	r2, [r3, #60]	; 0x3c

    /* Init the low level hardware */
    huart->MspInitCallback(huart);
#else
    /* Init the low level hardware : GPIO, CLOCK */
    HAL_UART_MspInit(huart);
 8008126:	6878      	ldr	r0, [r7, #4]
 8008128:	f7fb fdde 	bl	8003ce8 <HAL_UART_MspInit>
#endif /* (USE_HAL_UART_REGISTER_CALLBACKS) */
  }

  huart->gState = HAL_UART_STATE_BUSY;
 800812c:	687b      	ldr	r3, [r7, #4]
 800812e:	2224      	movs	r2, #36	; 0x24
 8008130:	f883 203d 	strb.w	r2, [r3, #61]	; 0x3d

  /* Disable the peripheral */
  __HAL_UART_DISABLE(huart);
 8008134:	687b      	ldr	r3, [r7, #4]
 8008136:	681b      	ldr	r3, [r3, #0]
 8008138:	68da      	ldr	r2, [r3, #12]
 800813a:	687b      	ldr	r3, [r7, #4]
 800813c:	681b      	ldr	r3, [r3, #0]
 800813e:	f422 5200 	bic.w	r2, r2, #8192	; 0x2000
 8008142:	60da      	str	r2, [r3, #12]

  /* Set the UART Communication parameters */
  UART_SetConfig(huart);
 8008144:	6878      	ldr	r0, [r7, #4]
 8008146:	f000 fb9d 	bl	8008884 <UART_SetConfig>

  /* In asynchronous mode, the following bits must be kept cleared:
     - LINEN and CLKEN bits in the USART_CR2 register,
     - SCEN, HDSEL and IREN  bits in the USART_CR3 register.*/
  CLEAR_BIT(huart->Instance->CR2, (USART_CR2_LINEN | USART_CR2_CLKEN));
 800814a:	687b      	ldr	r3, [r7, #4]
 800814c:	681b      	ldr	r3, [r3, #0]
 800814e:	691a      	ldr	r2, [r3, #16]
 8008150:	687b      	ldr	r3, [r7, #4]
 8008152:	681b      	ldr	r3, [r3, #0]
 8008154:	f422 4290 	bic.w	r2, r2, #18432	; 0x4800
 8008158:	611a      	str	r2, [r3, #16]
  CLEAR_BIT(huart->Instance->CR3, (USART_CR3_SCEN | USART_CR3_HDSEL | USART_CR3_IREN));
 800815a:	687b      	ldr	r3, [r7, #4]
 800815c:	681b      	ldr	r3, [r3, #0]
 800815e:	695a      	ldr	r2, [r3, #20]
 8008160:	687b      	ldr	r3, [r7, #4]
 8008162:	681b      	ldr	r3, [r3, #0]
 8008164:	f022 022a 	bic.w	r2, r2, #42	; 0x2a
 8008168:	615a      	str	r2, [r3, #20]

  /* Enable the peripheral */
  __HAL_UART_ENABLE(huart);
 800816a:	687b      	ldr	r3, [r7, #4]
 800816c:	681b      	ldr	r3, [r3, #0]
 800816e:	68da      	ldr	r2, [r3, #12]
 8008170:	687b      	ldr	r3, [r7, #4]
 8008172:	681b      	ldr	r3, [r3, #0]
 8008174:	f442 5200 	orr.w	r2, r2, #8192	; 0x2000
 8008178:	60da      	str	r2, [r3, #12]

  /* Initialize the UART state */
  huart->ErrorCode = HAL_UART_ERROR_NONE;
 800817a:	687b      	ldr	r3, [r7, #4]
 800817c:	2200      	movs	r2, #0
 800817e:	641a      	str	r2, [r3, #64]	; 0x40
  huart->gState = HAL_UART_STATE_READY;
 8008180:	687b      	ldr	r3, [r7, #4]
 8008182:	2220      	movs	r2, #32
 8008184:	f883 203d 	strb.w	r2, [r3, #61]	; 0x3d
  huart->RxState = HAL_UART_STATE_READY;
 8008188:	687b      	ldr	r3, [r7, #4]
 800818a:	2220      	movs	r2, #32
 800818c:	f883 203e 	strb.w	r2, [r3, #62]	; 0x3e

  return HAL_OK;
 8008190:	2300      	movs	r3, #0
}
 8008192:	4618      	mov	r0, r3
 8008194:	3708      	adds	r7, #8
 8008196:	46bd      	mov	sp, r7
 8008198:	bd80      	pop	{r7, pc}

0800819a <HAL_HalfDuplex_Init>:
  * @param  huart  Pointer to a UART_HandleTypeDef structure that contains
  *                the configuration information for the specified UART module.
  * @retval HAL status
  */
HAL_StatusTypeDef HAL_HalfDuplex_Init(UART_HandleTypeDef *huart)
{
 800819a:	b580      	push	{r7, lr}
 800819c:	b082      	sub	sp, #8
 800819e:	af00      	add	r7, sp, #0
 80081a0:	6078      	str	r0, [r7, #4]
  /* Check the UART handle allocation */
  if (huart == NULL)
 80081a2:	687b      	ldr	r3, [r7, #4]
 80081a4:	2b00      	cmp	r3, #0
 80081a6:	d101      	bne.n	80081ac <HAL_HalfDuplex_Init+0x12>
  {
    return HAL_ERROR;
 80081a8:	2301      	movs	r3, #1
 80081aa:	e047      	b.n	800823c <HAL_HalfDuplex_Init+0xa2>
  assert_param(IS_UART_WORD_LENGTH(huart->Init.WordLength));
#if defined(USART_CR1_OVER8)
  assert_param(IS_UART_OVERSAMPLING(huart->Init.OverSampling));
#endif /* USART_CR1_OVER8 */

  if (huart->gState == HAL_UART_STATE_RESET)
 80081ac:	687b      	ldr	r3, [r7, #4]
 80081ae:	f893 303d 	ldrb.w	r3, [r3, #61]	; 0x3d
 80081b2:	b2db      	uxtb	r3, r3
 80081b4:	2b00      	cmp	r3, #0
 80081b6:	d106      	bne.n	80081c6 <HAL_HalfDuplex_Init+0x2c>
  {
    /* Allocate lock resource and initialize it */
    huart->Lock = HAL_UNLOCKED;
 80081b8:	687b      	ldr	r3, [r7, #4]
 80081ba:	2200      	movs	r2, #0
 80081bc:	f883 203c 	strb.w	r2, [r3, #60]	; 0x3c

    /* Init the low level hardware */
    huart->MspInitCallback(huart);
#else
    /* Init the low level hardware : GPIO, CLOCK */
    HAL_UART_MspInit(huart);
 80081c0:	6878      	ldr	r0, [r7, #4]
 80081c2:	f7fb fd91 	bl	8003ce8 <HAL_UART_MspInit>
#endif /* (USE_HAL_UART_REGISTER_CALLBACKS) */
  }

  huart->gState = HAL_UART_STATE_BUSY;
 80081c6:	687b      	ldr	r3, [r7, #4]
 80081c8:	2224      	movs	r2, #36	; 0x24
 80081ca:	f883 203d 	strb.w	r2, [r3, #61]	; 0x3d

  /* Disable the peripheral */
  __HAL_UART_DISABLE(huart);
 80081ce:	687b      	ldr	r3, [r7, #4]
 80081d0:	681b      	ldr	r3, [r3, #0]
 80081d2:	68da      	ldr	r2, [r3, #12]
 80081d4:	687b      	ldr	r3, [r7, #4]
 80081d6:	681b      	ldr	r3, [r3, #0]
 80081d8:	f422 5200 	bic.w	r2, r2, #8192	; 0x2000
 80081dc:	60da      	str	r2, [r3, #12]

  /* Set the UART Communication parameters */
  UART_SetConfig(huart);
 80081de:	6878      	ldr	r0, [r7, #4]
 80081e0:	f000 fb50 	bl	8008884 <UART_SetConfig>

  /* In half-duplex mode, the following bits must be kept cleared:
     - LINEN and CLKEN bits in the USART_CR2 register,
     - SCEN and IREN bits in the USART_CR3 register.*/
  CLEAR_BIT(huart->Instance->CR2, (USART_CR2_LINEN | USART_CR2_CLKEN));
 80081e4:	687b      	ldr	r3, [r7, #4]
 80081e6:	681b      	ldr	r3, [r3, #0]
 80081e8:	691a      	ldr	r2, [r3, #16]
 80081ea:	687b      	ldr	r3, [r7, #4]
 80081ec:	681b      	ldr	r3, [r3, #0]
 80081ee:	f422 4290 	bic.w	r2, r2, #18432	; 0x4800
 80081f2:	611a      	str	r2, [r3, #16]
  CLEAR_BIT(huart->Instance->CR3, (USART_CR3_IREN | USART_CR3_SCEN));
 80081f4:	687b      	ldr	r3, [r7, #4]
 80081f6:	681b      	ldr	r3, [r3, #0]
 80081f8:	695a      	ldr	r2, [r3, #20]
 80081fa:	687b      	ldr	r3, [r7, #4]
 80081fc:	681b      	ldr	r3, [r3, #0]
 80081fe:	f022 0222 	bic.w	r2, r2, #34	; 0x22
 8008202:	615a      	str	r2, [r3, #20]

  /* Enable the Half-Duplex mode by setting the HDSEL bit in the CR3 register */
  SET_BIT(huart->Instance->CR3, USART_CR3_HDSEL);
 8008204:	687b      	ldr	r3, [r7, #4]
 8008206:	681b      	ldr	r3, [r3, #0]
 8008208:	695a      	ldr	r2, [r3, #20]
 800820a:	687b      	ldr	r3, [r7, #4]
 800820c:	681b      	ldr	r3, [r3, #0]
 800820e:	f042 0208 	orr.w	r2, r2, #8
 8008212:	615a      	str	r2, [r3, #20]

  /* Enable the peripheral */
  __HAL_UART_ENABLE(huart);
 8008214:	687b      	ldr	r3, [r7, #4]
 8008216:	681b      	ldr	r3, [r3, #0]
 8008218:	68da      	ldr	r2, [r3, #12]
 800821a:	687b      	ldr	r3, [r7, #4]
 800821c:	681b      	ldr	r3, [r3, #0]
 800821e:	f442 5200 	orr.w	r2, r2, #8192	; 0x2000
 8008222:	60da      	str	r2, [r3, #12]

  /* Initialize the UART state*/
  huart->ErrorCode = HAL_UART_ERROR_NONE;
 8008224:	687b      	ldr	r3, [r7, #4]
 8008226:	2200      	movs	r2, #0
 8008228:	641a      	str	r2, [r3, #64]	; 0x40
  huart->gState = HAL_UART_STATE_READY;
 800822a:	687b      	ldr	r3, [r7, #4]
 800822c:	2220      	movs	r2, #32
 800822e:	f883 203d 	strb.w	r2, [r3, #61]	; 0x3d
  huart->RxState = HAL_UART_STATE_READY;
 8008232:	687b      	ldr	r3, [r7, #4]
 8008234:	2220      	movs	r2, #32
 8008236:	f883 203e 	strb.w	r2, [r3, #62]	; 0x3e

  return HAL_OK;
 800823a:	2300      	movs	r3, #0
}
 800823c:	4618      	mov	r0, r3
 800823e:	3708      	adds	r7, #8
 8008240:	46bd      	mov	sp, r7
 8008242:	bd80      	pop	{r7, pc}

08008244 <HAL_UART_IRQHandler>:
  * @param  huart  Pointer to a UART_HandleTypeDef structure that contains
  *                the configuration information for the specified UART module.
  * @retval None
  */
void HAL_UART_IRQHandler(UART_HandleTypeDef *huart)
{
 8008244:	b580      	push	{r7, lr}
 8008246:	b08a      	sub	sp, #40	; 0x28
 8008248:	af00      	add	r7, sp, #0
 800824a:	6078      	str	r0, [r7, #4]
  uint32_t isrflags   = READ_REG(huart->Instance->SR);
 800824c:	687b      	ldr	r3, [r7, #4]
 800824e:	681b      	ldr	r3, [r3, #0]
 8008250:	681b      	ldr	r3, [r3, #0]
 8008252:	627b      	str	r3, [r7, #36]	; 0x24
  uint32_t cr1its     = READ_REG(huart->Instance->CR1);
 8008254:	687b      	ldr	r3, [r7, #4]
 8008256:	681b      	ldr	r3, [r3, #0]
 8008258:	68db      	ldr	r3, [r3, #12]
 800825a:	623b      	str	r3, [r7, #32]
  uint32_t cr3its     = READ_REG(huart->Instance->CR3);
 800825c:	687b      	ldr	r3, [r7, #4]
 800825e:	681b      	ldr	r3, [r3, #0]
 8008260:	695b      	ldr	r3, [r3, #20]
 8008262:	61fb      	str	r3, [r7, #28]
  uint32_t errorflags = 0x00U;
 8008264:	2300      	movs	r3, #0
 8008266:	61bb      	str	r3, [r7, #24]
  uint32_t dmarequest = 0x00U;
 8008268:	2300      	movs	r3, #0
 800826a:	617b      	str	r3, [r7, #20]

  /* If no error occurs */
  errorflags = (isrflags & (uint32_t)(USART_SR_PE | USART_SR_FE | USART_SR_ORE | USART_SR_NE));
 800826c:	6a7b      	ldr	r3, [r7, #36]	; 0x24
 800826e:	f003 030f 	and.w	r3, r3, #15
 8008272:	61bb      	str	r3, [r7, #24]
  if (errorflags == RESET)
 8008274:	69bb      	ldr	r3, [r7, #24]
 8008276:	2b00      	cmp	r3, #0
 8008278:	d10d      	bne.n	8008296 <HAL_UART_IRQHandler+0x52>
  {
    /* UART in mode Receiver -------------------------------------------------*/
    if (((isrflags & USART_SR_RXNE) != RESET) && ((cr1its & USART_CR1_RXNEIE) != RESET))
 800827a:	6a7b      	ldr	r3, [r7, #36]	; 0x24
 800827c:	f003 0320 	and.w	r3, r3, #32
 8008280:	2b00      	cmp	r3, #0
 8008282:	d008      	beq.n	8008296 <HAL_UART_IRQHandler+0x52>
 8008284:	6a3b      	ldr	r3, [r7, #32]
 8008286:	f003 0320 	and.w	r3, r3, #32
 800828a:	2b00      	cmp	r3, #0
 800828c:	d003      	beq.n	8008296 <HAL_UART_IRQHandler+0x52>
    {
      UART_Receive_IT(huart);
 800828e:	6878      	ldr	r0, [r7, #4]
 8008290:	f000 fa4f 	bl	8008732 <UART_Receive_IT>
      return;
 8008294:	e17b      	b.n	800858e <HAL_UART_IRQHandler+0x34a>
    }
  }

  /* If some errors occur */
  if ((errorflags != RESET) && (((cr3its & USART_CR3_EIE) != RESET) || ((cr1its & (USART_CR1_RXNEIE | USART_CR1_PEIE)) != RESET)))
 8008296:	69bb      	ldr	r3, [r7, #24]
 8008298:	2b00      	cmp	r3, #0
 800829a:	f000 80b1 	beq.w	8008400 <HAL_UART_IRQHandler+0x1bc>
 800829e:	69fb      	ldr	r3, [r7, #28]
 80082a0:	f003 0301 	and.w	r3, r3, #1
 80082a4:	2b00      	cmp	r3, #0
 80082a6:	d105      	bne.n	80082b4 <HAL_UART_IRQHandler+0x70>
 80082a8:	6a3b      	ldr	r3, [r7, #32]
 80082aa:	f403 7390 	and.w	r3, r3, #288	; 0x120
 80082ae:	2b00      	cmp	r3, #0
 80082b0:	f000 80a6 	beq.w	8008400 <HAL_UART_IRQHandler+0x1bc>
  {
    /* UART parity error interrupt occurred ----------------------------------*/
    if (((isrflags & USART_SR_PE) != RESET) && ((cr1its & USART_CR1_PEIE) != RESET))
 80082b4:	6a7b      	ldr	r3, [r7, #36]	; 0x24
 80082b6:	f003 0301 	and.w	r3, r3, #1
 80082ba:	2b00      	cmp	r3, #0
 80082bc:	d00a      	beq.n	80082d4 <HAL_UART_IRQHandler+0x90>
 80082be:	6a3b      	ldr	r3, [r7, #32]
 80082c0:	f403 7380 	and.w	r3, r3, #256	; 0x100
 80082c4:	2b00      	cmp	r3, #0
 80082c6:	d005      	beq.n	80082d4 <HAL_UART_IRQHandler+0x90>
    {
      huart->ErrorCode |= HAL_UART_ERROR_PE;
 80082c8:	687b      	ldr	r3, [r7, #4]
 80082ca:	6c1b      	ldr	r3, [r3, #64]	; 0x40
 80082cc:	f043 0201 	orr.w	r2, r3, #1
 80082d0:	687b      	ldr	r3, [r7, #4]
 80082d2:	641a      	str	r2, [r3, #64]	; 0x40
    }

    /* UART noise error interrupt occurred -----------------------------------*/
    if (((isrflags & USART_SR_NE) != RESET) && ((cr3its & USART_CR3_EIE) != RESET))
 80082d4:	6a7b      	ldr	r3, [r7, #36]	; 0x24
 80082d6:	f003 0304 	and.w	r3, r3, #4
 80082da:	2b00      	cmp	r3, #0
 80082dc:	d00a      	beq.n	80082f4 <HAL_UART_IRQHandler+0xb0>
 80082de:	69fb      	ldr	r3, [r7, #28]
 80082e0:	f003 0301 	and.w	r3, r3, #1
 80082e4:	2b00      	cmp	r3, #0
 80082e6:	d005      	beq.n	80082f4 <HAL_UART_IRQHandler+0xb0>
    {
      huart->ErrorCode |= HAL_UART_ERROR_NE;
 80082e8:	687b      	ldr	r3, [r7, #4]
 80082ea:	6c1b      	ldr	r3, [r3, #64]	; 0x40
 80082ec:	f043 0202 	orr.w	r2, r3, #2
 80082f0:	687b      	ldr	r3, [r7, #4]
 80082f2:	641a      	str	r2, [r3, #64]	; 0x40
    }

    /* UART frame error interrupt occurred -----------------------------------*/
    if (((isrflags & USART_SR_FE) != RESET) && ((cr3its & USART_CR3_EIE) != RESET))
 80082f4:	6a7b      	ldr	r3, [r7, #36]	; 0x24
 80082f6:	f003 0302 	and.w	r3, r3, #2
 80082fa:	2b00      	cmp	r3, #0
 80082fc:	d00a      	beq.n	8008314 <HAL_UART_IRQHandler+0xd0>
 80082fe:	69fb      	ldr	r3, [r7, #28]
 8008300:	f003 0301 	and.w	r3, r3, #1
 8008304:	2b00      	cmp	r3, #0
 8008306:	d005      	beq.n	8008314 <HAL_UART_IRQHandler+0xd0>
    {
      huart->ErrorCode |= HAL_UART_ERROR_FE;
 8008308:	687b      	ldr	r3, [r7, #4]
 800830a:	6c1b      	ldr	r3, [r3, #64]	; 0x40
 800830c:	f043 0204 	orr.w	r2, r3, #4
 8008310:	687b      	ldr	r3, [r7, #4]
 8008312:	641a      	str	r2, [r3, #64]	; 0x40
    }

    /* UART Over-Run interrupt occurred --------------------------------------*/
    if (((isrflags & USART_SR_ORE) != RESET) && (((cr1its & USART_CR1_RXNEIE) != RESET) || ((cr3its & USART_CR3_EIE) != RESET)))
 8008314:	6a7b      	ldr	r3, [r7, #36]	; 0x24
 8008316:	f003 0308 	and.w	r3, r3, #8
 800831a:	2b00      	cmp	r3, #0
 800831c:	d00f      	beq.n	800833e <HAL_UART_IRQHandler+0xfa>
 800831e:	6a3b      	ldr	r3, [r7, #32]
 8008320:	f003 0320 	and.w	r3, r3, #32
 8008324:	2b00      	cmp	r3, #0
 8008326:	d104      	bne.n	8008332 <HAL_UART_IRQHandler+0xee>
 8008328:	69fb      	ldr	r3, [r7, #28]
 800832a:	f003 0301 	and.w	r3, r3, #1
 800832e:	2b00      	cmp	r3, #0
 8008330:	d005      	beq.n	800833e <HAL_UART_IRQHandler+0xfa>
    {
      huart->ErrorCode |= HAL_UART_ERROR_ORE;
 8008332:	687b      	ldr	r3, [r7, #4]
 8008334:	6c1b      	ldr	r3, [r3, #64]	; 0x40
 8008336:	f043 0208 	orr.w	r2, r3, #8
 800833a:	687b      	ldr	r3, [r7, #4]
 800833c:	641a      	str	r2, [r3, #64]	; 0x40
    }

    /* Call UART Error Call back function if need be --------------------------*/
    if (huart->ErrorCode != HAL_UART_ERROR_NONE)
 800833e:	687b      	ldr	r3, [r7, #4]
 8008340:	6c1b      	ldr	r3, [r3, #64]	; 0x40
 8008342:	2b00      	cmp	r3, #0
 8008344:	f000 811e 	beq.w	8008584 <HAL_UART_IRQHandler+0x340>
    {
      /* UART in mode Receiver -----------------------------------------------*/
      if (((isrflags & USART_SR_RXNE) != RESET) && ((cr1its & USART_CR1_RXNEIE) != RESET))
 8008348:	6a7b      	ldr	r3, [r7, #36]	; 0x24
 800834a:	f003 0320 	and.w	r3, r3, #32
 800834e:	2b00      	cmp	r3, #0
 8008350:	d007      	beq.n	8008362 <HAL_UART_IRQHandler+0x11e>
 8008352:	6a3b      	ldr	r3, [r7, #32]
 8008354:	f003 0320 	and.w	r3, r3, #32
 8008358:	2b00      	cmp	r3, #0
 800835a:	d002      	beq.n	8008362 <HAL_UART_IRQHandler+0x11e>
      {
        UART_Receive_IT(huart);
 800835c:	6878      	ldr	r0, [r7, #4]
 800835e:	f000 f9e8 	bl	8008732 <UART_Receive_IT>
      }

      /* If Overrun error occurs, or if any error occurs in DMA mode reception,
         consider error as blocking */
      dmarequest = HAL_IS_BIT_SET(huart->Instance->CR3, USART_CR3_DMAR);
 8008362:	687b      	ldr	r3, [r7, #4]
 8008364:	681b      	ldr	r3, [r3, #0]
 8008366:	695b      	ldr	r3, [r3, #20]
 8008368:	f003 0340 	and.w	r3, r3, #64	; 0x40
 800836c:	2b00      	cmp	r3, #0
 800836e:	bf14      	ite	ne
 8008370:	2301      	movne	r3, #1
 8008372:	2300      	moveq	r3, #0
 8008374:	b2db      	uxtb	r3, r3
 8008376:	617b      	str	r3, [r7, #20]
      if (((huart->ErrorCode & HAL_UART_ERROR_ORE) != RESET) || dmarequest)
 8008378:	687b      	ldr	r3, [r7, #4]
 800837a:	6c1b      	ldr	r3, [r3, #64]	; 0x40
 800837c:	f003 0308 	and.w	r3, r3, #8
 8008380:	2b00      	cmp	r3, #0
 8008382:	d102      	bne.n	800838a <HAL_UART_IRQHandler+0x146>
 8008384:	697b      	ldr	r3, [r7, #20]
 8008386:	2b00      	cmp	r3, #0
 8008388:	d031      	beq.n	80083ee <HAL_UART_IRQHandler+0x1aa>
      {
        /* Blocking error : transfer is aborted
           Set the UART state ready to be able to start again the process,
           Disable Rx Interrupts, and disable Rx DMA request, if ongoing */
        UART_EndRxTransfer(huart);
 800838a:	6878      	ldr	r0, [r7, #4]
 800838c:	f000 f92a 	bl	80085e4 <UART_EndRxTransfer>

        /* Disable the UART DMA Rx request if enabled */
        if (HAL_IS_BIT_SET(huart->Instance->CR3, USART_CR3_DMAR))
 8008390:	687b      	ldr	r3, [r7, #4]
 8008392:	681b      	ldr	r3, [r3, #0]
 8008394:	695b      	ldr	r3, [r3, #20]
 8008396:	f003 0340 	and.w	r3, r3, #64	; 0x40
 800839a:	2b00      	cmp	r3, #0
 800839c:	d023      	beq.n	80083e6 <HAL_UART_IRQHandler+0x1a2>
        {
          CLEAR_BIT(huart->Instance->CR3, USART_CR3_DMAR);
 800839e:	687b      	ldr	r3, [r7, #4]
 80083a0:	681b      	ldr	r3, [r3, #0]
 80083a2:	695a      	ldr	r2, [r3, #20]
 80083a4:	687b      	ldr	r3, [r7, #4]
 80083a6:	681b      	ldr	r3, [r3, #0]
 80083a8:	f022 0240 	bic.w	r2, r2, #64	; 0x40
 80083ac:	615a      	str	r2, [r3, #20]

          /* Abort the UART DMA Rx channel */
          if (huart->hdmarx != NULL)
 80083ae:	687b      	ldr	r3, [r7, #4]
 80083b0:	6b9b      	ldr	r3, [r3, #56]	; 0x38
 80083b2:	2b00      	cmp	r3, #0
 80083b4:	d013      	beq.n	80083de <HAL_UART_IRQHandler+0x19a>
          {
            /* Set the UART DMA Abort callback :
               will lead to call HAL_UART_ErrorCallback() at end of DMA abort procedure */
            huart->hdmarx->XferAbortCallback = UART_DMAAbortOnError;
 80083b6:	687b      	ldr	r3, [r7, #4]
 80083b8:	6b9b      	ldr	r3, [r3, #56]	; 0x38
 80083ba:	4a76      	ldr	r2, [pc, #472]	; (8008594 <HAL_UART_IRQHandler+0x350>)
 80083bc:	635a      	str	r2, [r3, #52]	; 0x34
            if (HAL_DMA_Abort_IT(huart->hdmarx) != HAL_OK)
 80083be:	687b      	ldr	r3, [r7, #4]
 80083c0:	6b9b      	ldr	r3, [r3, #56]	; 0x38
 80083c2:	4618      	mov	r0, r3
 80083c4:	f7fe fad4 	bl	8006970 <HAL_DMA_Abort_IT>
 80083c8:	4603      	mov	r3, r0
 80083ca:	2b00      	cmp	r3, #0
 80083cc:	d016      	beq.n	80083fc <HAL_UART_IRQHandler+0x1b8>
            {
              /* Call Directly XferAbortCallback function in case of error */
              huart->hdmarx->XferAbortCallback(huart->hdmarx);
 80083ce:	687b      	ldr	r3, [r7, #4]
 80083d0:	6b9b      	ldr	r3, [r3, #56]	; 0x38
 80083d2:	6b5b      	ldr	r3, [r3, #52]	; 0x34
 80083d4:	687a      	ldr	r2, [r7, #4]
 80083d6:	6b92      	ldr	r2, [r2, #56]	; 0x38
 80083d8:	4610      	mov	r0, r2
 80083da:	4798      	blx	r3
        if (HAL_IS_BIT_SET(huart->Instance->CR3, USART_CR3_DMAR))
 80083dc:	e00e      	b.n	80083fc <HAL_UART_IRQHandler+0x1b8>
#if (USE_HAL_UART_REGISTER_CALLBACKS == 1)
            /*Call registered error callback*/
            huart->ErrorCallback(huart);
#else
            /*Call legacy weak error callback*/
            HAL_UART_ErrorCallback(huart);
 80083de:	6878      	ldr	r0, [r7, #4]
 80083e0:	f000 f8ec 	bl	80085bc <HAL_UART_ErrorCallback>
        if (HAL_IS_BIT_SET(huart->Instance->CR3, USART_CR3_DMAR))
 80083e4:	e00a      	b.n	80083fc <HAL_UART_IRQHandler+0x1b8>
#if (USE_HAL_UART_REGISTER_CALLBACKS == 1)
          /*Call registered error callback*/
          huart->ErrorCallback(huart);
#else
          /*Call legacy weak error callback*/
          HAL_UART_ErrorCallback(huart);
 80083e6:	6878      	ldr	r0, [r7, #4]
 80083e8:	f000 f8e8 	bl	80085bc <HAL_UART_ErrorCallback>
        if (HAL_IS_BIT_SET(huart->Instance->CR3, USART_CR3_DMAR))
 80083ec:	e006      	b.n	80083fc <HAL_UART_IRQHandler+0x1b8>
#if (USE_HAL_UART_REGISTER_CALLBACKS == 1)
        /*Call registered error callback*/
        huart->ErrorCallback(huart);
#else
        /*Call legacy weak error callback*/
        HAL_UART_ErrorCallback(huart);
 80083ee:	6878      	ldr	r0, [r7, #4]
 80083f0:	f000 f8e4 	bl	80085bc <HAL_UART_ErrorCallback>
#endif /* USE_HAL_UART_REGISTER_CALLBACKS */

        huart->ErrorCode = HAL_UART_ERROR_NONE;
 80083f4:	687b      	ldr	r3, [r7, #4]
 80083f6:	2200      	movs	r2, #0
 80083f8:	641a      	str	r2, [r3, #64]	; 0x40
      }
    }
    return;
 80083fa:	e0c3      	b.n	8008584 <HAL_UART_IRQHandler+0x340>
        if (HAL_IS_BIT_SET(huart->Instance->CR3, USART_CR3_DMAR))
 80083fc:	bf00      	nop
    return;
 80083fe:	e0c1      	b.n	8008584 <HAL_UART_IRQHandler+0x340>
  } /* End if some error occurs */

  /* Check current reception Mode :
     If Reception till IDLE event has been selected : */
  if (  (huart->ReceptionType == HAL_UART_RECEPTION_TOIDLE)
 8008400:	687b      	ldr	r3, [r7, #4]
 8008402:	6b1b      	ldr	r3, [r3, #48]	; 0x30
 8008404:	2b01      	cmp	r3, #1
 8008406:	f040 80a1 	bne.w	800854c <HAL_UART_IRQHandler+0x308>
      &&((isrflags & USART_SR_IDLE) != 0U)
 800840a:	6a7b      	ldr	r3, [r7, #36]	; 0x24
 800840c:	f003 0310 	and.w	r3, r3, #16
 8008410:	2b00      	cmp	r3, #0
 8008412:	f000 809b 	beq.w	800854c <HAL_UART_IRQHandler+0x308>
      &&((cr1its & USART_SR_IDLE) != 0U))
 8008416:	6a3b      	ldr	r3, [r7, #32]
 8008418:	f003 0310 	and.w	r3, r3, #16
 800841c:	2b00      	cmp	r3, #0
 800841e:	f000 8095 	beq.w	800854c <HAL_UART_IRQHandler+0x308>
  {
    __HAL_UART_CLEAR_IDLEFLAG(huart);
 8008422:	2300      	movs	r3, #0
 8008424:	60fb      	str	r3, [r7, #12]
 8008426:	687b      	ldr	r3, [r7, #4]
 8008428:	681b      	ldr	r3, [r3, #0]
 800842a:	681b      	ldr	r3, [r3, #0]
 800842c:	60fb      	str	r3, [r7, #12]
 800842e:	687b      	ldr	r3, [r7, #4]
 8008430:	681b      	ldr	r3, [r3, #0]
 8008432:	685b      	ldr	r3, [r3, #4]
 8008434:	60fb      	str	r3, [r7, #12]
 8008436:	68fb      	ldr	r3, [r7, #12]

    /* Check if DMA mode is enabled in UART */
    if (HAL_IS_BIT_SET(huart->Instance->CR3, USART_CR3_DMAR))
 8008438:	687b      	ldr	r3, [r7, #4]
 800843a:	681b      	ldr	r3, [r3, #0]
 800843c:	695b      	ldr	r3, [r3, #20]
 800843e:	f003 0340 	and.w	r3, r3, #64	; 0x40
 8008442:	2b00      	cmp	r3, #0
 8008444:	d04e      	beq.n	80084e4 <HAL_UART_IRQHandler+0x2a0>
    {
      /* DMA mode enabled */
      /* Check received length : If all expected data are received, do nothing,
         (DMA cplt callback will be called).
         Otherwise, if at least one data has already been received, IDLE event is to be notified to user */
      uint16_t nb_remaining_rx_data = (uint16_t) __HAL_DMA_GET_COUNTER(huart->hdmarx);
 8008446:	687b      	ldr	r3, [r7, #4]
 8008448:	6b9b      	ldr	r3, [r3, #56]	; 0x38
 800844a:	681b      	ldr	r3, [r3, #0]
 800844c:	685b      	ldr	r3, [r3, #4]
 800844e:	823b      	strh	r3, [r7, #16]
      if (  (nb_remaining_rx_data > 0U)
 8008450:	8a3b      	ldrh	r3, [r7, #16]
 8008452:	2b00      	cmp	r3, #0
 8008454:	f000 8098 	beq.w	8008588 <HAL_UART_IRQHandler+0x344>
          &&(nb_remaining_rx_data < huart->RxXferSize))
 8008458:	687b      	ldr	r3, [r7, #4]
 800845a:	8d9b      	ldrh	r3, [r3, #44]	; 0x2c
 800845c:	8a3a      	ldrh	r2, [r7, #16]
 800845e:	429a      	cmp	r2, r3
 8008460:	f080 8092 	bcs.w	8008588 <HAL_UART_IRQHandler+0x344>
      {
        /* Reception is not complete */
        huart->RxXferCount = nb_remaining_rx_data;
 8008464:	687b      	ldr	r3, [r7, #4]
 8008466:	8a3a      	ldrh	r2, [r7, #16]
 8008468:	85da      	strh	r2, [r3, #46]	; 0x2e

        /* In Normal mode, end DMA xfer and HAL UART Rx process*/
        if (huart->hdmarx->Init.Mode != DMA_CIRCULAR)
 800846a:	687b      	ldr	r3, [r7, #4]
 800846c:	6b9b      	ldr	r3, [r3, #56]	; 0x38
 800846e:	699b      	ldr	r3, [r3, #24]
 8008470:	2b20      	cmp	r3, #32
 8008472:	d02b      	beq.n	80084cc <HAL_UART_IRQHandler+0x288>
        {
          /* Disable PE and ERR (Frame error, noise error, overrun error) interrupts */
          CLEAR_BIT(huart->Instance->CR1, USART_CR1_PEIE);
 8008474:	687b      	ldr	r3, [r7, #4]
 8008476:	681b      	ldr	r3, [r3, #0]
 8008478:	68da      	ldr	r2, [r3, #12]
 800847a:	687b      	ldr	r3, [r7, #4]
 800847c:	681b      	ldr	r3, [r3, #0]
 800847e:	f422 7280 	bic.w	r2, r2, #256	; 0x100
 8008482:	60da      	str	r2, [r3, #12]
          CLEAR_BIT(huart->Instance->CR3, USART_CR3_EIE);
 8008484:	687b      	ldr	r3, [r7, #4]
 8008486:	681b      	ldr	r3, [r3, #0]
 8008488:	695a      	ldr	r2, [r3, #20]
 800848a:	687b      	ldr	r3, [r7, #4]
 800848c:	681b      	ldr	r3, [r3, #0]
 800848e:	f022 0201 	bic.w	r2, r2, #1
 8008492:	615a      	str	r2, [r3, #20]

          /* Disable the DMA transfer for the receiver request by resetting the DMAR bit
             in the UART CR3 register */
          CLEAR_BIT(huart->Instance->CR3, USART_CR3_DMAR);
 8008494:	687b      	ldr	r3, [r7, #4]
 8008496:	681b      	ldr	r3, [r3, #0]
 8008498:	695a      	ldr	r2, [r3, #20]
 800849a:	687b      	ldr	r3, [r7, #4]
 800849c:	681b      	ldr	r3, [r3, #0]
 800849e:	f022 0240 	bic.w	r2, r2, #64	; 0x40
 80084a2:	615a      	str	r2, [r3, #20]

          /* At end of Rx process, restore huart->RxState to Ready */
          huart->RxState = HAL_UART_STATE_READY;
 80084a4:	687b      	ldr	r3, [r7, #4]
 80084a6:	2220      	movs	r2, #32
 80084a8:	f883 203e 	strb.w	r2, [r3, #62]	; 0x3e
          huart->ReceptionType = HAL_UART_RECEPTION_STANDARD;
 80084ac:	687b      	ldr	r3, [r7, #4]
 80084ae:	2200      	movs	r2, #0
 80084b0:	631a      	str	r2, [r3, #48]	; 0x30

          CLEAR_BIT(huart->Instance->CR1, USART_CR1_IDLEIE);
 80084b2:	687b      	ldr	r3, [r7, #4]
 80084b4:	681b      	ldr	r3, [r3, #0]
 80084b6:	68da      	ldr	r2, [r3, #12]
 80084b8:	687b      	ldr	r3, [r7, #4]
 80084ba:	681b      	ldr	r3, [r3, #0]
 80084bc:	f022 0210 	bic.w	r2, r2, #16
 80084c0:	60da      	str	r2, [r3, #12]

          /* Last bytes received, so no need as the abort is immediate */
          (void)HAL_DMA_Abort(huart->hdmarx);
 80084c2:	687b      	ldr	r3, [r7, #4]
 80084c4:	6b9b      	ldr	r3, [r3, #56]	; 0x38
 80084c6:	4618      	mov	r0, r3
 80084c8:	f7fe fa17 	bl	80068fa <HAL_DMA_Abort>
#if (USE_HAL_UART_REGISTER_CALLBACKS == 1)
        /*Call registered Rx Event callback*/
        huart->RxEventCallback(huart, (huart->RxXferSize - huart->RxXferCount));
#else
        /*Call legacy weak Rx Event callback*/
        HAL_UARTEx_RxEventCallback(huart, (huart->RxXferSize - huart->RxXferCount));
 80084cc:	687b      	ldr	r3, [r7, #4]
 80084ce:	8d9a      	ldrh	r2, [r3, #44]	; 0x2c
 80084d0:	687b      	ldr	r3, [r7, #4]
 80084d2:	8ddb      	ldrh	r3, [r3, #46]	; 0x2e
 80084d4:	b29b      	uxth	r3, r3
 80084d6:	1ad3      	subs	r3, r2, r3
 80084d8:	b29b      	uxth	r3, r3
 80084da:	4619      	mov	r1, r3
 80084dc:	6878      	ldr	r0, [r7, #4]
 80084de:	f000 f876 	bl	80085ce <HAL_UARTEx_RxEventCallback>
#endif
      }
      return;
 80084e2:	e051      	b.n	8008588 <HAL_UART_IRQHandler+0x344>
    else
    {
      /* DMA mode not enabled */
      /* Check received length : If all expected data are received, do nothing.
         Otherwise, if at least one data has already been received, IDLE event is to be notified to user */
      uint16_t nb_rx_data = huart->RxXferSize - huart->RxXferCount;
 80084e4:	687b      	ldr	r3, [r7, #4]
 80084e6:	8d9a      	ldrh	r2, [r3, #44]	; 0x2c
 80084e8:	687b      	ldr	r3, [r7, #4]
 80084ea:	8ddb      	ldrh	r3, [r3, #46]	; 0x2e
 80084ec:	b29b      	uxth	r3, r3
 80084ee:	1ad3      	subs	r3, r2, r3
 80084f0:	827b      	strh	r3, [r7, #18]
      if (  (huart->RxXferCount > 0U)
 80084f2:	687b      	ldr	r3, [r7, #4]
 80084f4:	8ddb      	ldrh	r3, [r3, #46]	; 0x2e
 80084f6:	b29b      	uxth	r3, r3
 80084f8:	2b00      	cmp	r3, #0
 80084fa:	d047      	beq.n	800858c <HAL_UART_IRQHandler+0x348>
          &&(nb_rx_data > 0U) )
 80084fc:	8a7b      	ldrh	r3, [r7, #18]
 80084fe:	2b00      	cmp	r3, #0
 8008500:	d044      	beq.n	800858c <HAL_UART_IRQHandler+0x348>
      {
        /* Disable the UART Parity Error Interrupt and RXNE interrupts */
        CLEAR_BIT(huart->Instance->CR1, (USART_CR1_RXNEIE | USART_CR1_PEIE));
 8008502:	687b      	ldr	r3, [r7, #4]
 8008504:	681b      	ldr	r3, [r3, #0]
 8008506:	68da      	ldr	r2, [r3, #12]
 8008508:	687b      	ldr	r3, [r7, #4]
 800850a:	681b      	ldr	r3, [r3, #0]
 800850c:	f422 7290 	bic.w	r2, r2, #288	; 0x120
 8008510:	60da      	str	r2, [r3, #12]

        /* Disable the UART Error Interrupt: (Frame error, noise error, overrun error) */
        CLEAR_BIT(huart->Instance->CR3, USART_CR3_EIE);
 8008512:	687b      	ldr	r3, [r7, #4]
 8008514:	681b      	ldr	r3, [r3, #0]
 8008516:	695a      	ldr	r2, [r3, #20]
 8008518:	687b      	ldr	r3, [r7, #4]
 800851a:	681b      	ldr	r3, [r3, #0]
 800851c:	f022 0201 	bic.w	r2, r2, #1
 8008520:	615a      	str	r2, [r3, #20]

        /* Rx process is completed, restore huart->RxState to Ready */
        huart->RxState = HAL_UART_STATE_READY;
 8008522:	687b      	ldr	r3, [r7, #4]
 8008524:	2220      	movs	r2, #32
 8008526:	f883 203e 	strb.w	r2, [r3, #62]	; 0x3e
        huart->ReceptionType = HAL_UART_RECEPTION_STANDARD;
 800852a:	687b      	ldr	r3, [r7, #4]
 800852c:	2200      	movs	r2, #0
 800852e:	631a      	str	r2, [r3, #48]	; 0x30

        CLEAR_BIT(huart->Instance->CR1, USART_CR1_IDLEIE);
 8008530:	687b      	ldr	r3, [r7, #4]
 8008532:	681b      	ldr	r3, [r3, #0]
 8008534:	68da      	ldr	r2, [r3, #12]
 8008536:	687b      	ldr	r3, [r7, #4]
 8008538:	681b      	ldr	r3, [r3, #0]
 800853a:	f022 0210 	bic.w	r2, r2, #16
 800853e:	60da      	str	r2, [r3, #12]
#if (USE_HAL_UART_REGISTER_CALLBACKS == 1)
        /*Call registered Rx complete callback*/
        huart->RxEventCallback(huart, nb_rx_data);
#else
        /*Call legacy weak Rx Event callback*/
        HAL_UARTEx_RxEventCallback(huart, nb_rx_data);
 8008540:	8a7b      	ldrh	r3, [r7, #18]
 8008542:	4619      	mov	r1, r3
 8008544:	6878      	ldr	r0, [r7, #4]
 8008546:	f000 f842 	bl	80085ce <HAL_UARTEx_RxEventCallback>
#endif
      }
      return;
 800854a:	e01f      	b.n	800858c <HAL_UART_IRQHandler+0x348>
    }
  }

  /* UART in mode Transmitter ------------------------------------------------*/
  if (((isrflags & USART_SR_TXE) != RESET) && ((cr1its & USART_CR1_TXEIE) != RESET))
 800854c:	6a7b      	ldr	r3, [r7, #36]	; 0x24
 800854e:	f003 0380 	and.w	r3, r3, #128	; 0x80
 8008552:	2b00      	cmp	r3, #0
 8008554:	d008      	beq.n	8008568 <HAL_UART_IRQHandler+0x324>
 8008556:	6a3b      	ldr	r3, [r7, #32]
 8008558:	f003 0380 	and.w	r3, r3, #128	; 0x80
 800855c:	2b00      	cmp	r3, #0
 800855e:	d003      	beq.n	8008568 <HAL_UART_IRQHandler+0x324>
  {
    UART_Transmit_IT(huart);
 8008560:	6878      	ldr	r0, [r7, #4]
 8008562:	f000 f87f 	bl	8008664 <UART_Transmit_IT>
    return;
 8008566:	e012      	b.n	800858e <HAL_UART_IRQHandler+0x34a>
  }

  /* UART in mode Transmitter end --------------------------------------------*/
  if (((isrflags & USART_SR_TC) != RESET) && ((cr1its & USART_CR1_TCIE) != RESET))
 8008568:	6a7b      	ldr	r3, [r7, #36]	; 0x24
 800856a:	f003 0340 	and.w	r3, r3, #64	; 0x40
 800856e:	2b00      	cmp	r3, #0
 8008570:	d00d      	beq.n	800858e <HAL_UART_IRQHandler+0x34a>
 8008572:	6a3b      	ldr	r3, [r7, #32]
 8008574:	f003 0340 	and.w	r3, r3, #64	; 0x40
 8008578:	2b00      	cmp	r3, #0
 800857a:	d008      	beq.n	800858e <HAL_UART_IRQHandler+0x34a>
  {
    UART_EndTransmit_IT(huart);
 800857c:	6878      	ldr	r0, [r7, #4]
 800857e:	f000 f8c0 	bl	8008702 <UART_EndTransmit_IT>
    return;
 8008582:	e004      	b.n	800858e <HAL_UART_IRQHandler+0x34a>
    return;
 8008584:	bf00      	nop
 8008586:	e002      	b.n	800858e <HAL_UART_IRQHandler+0x34a>
      return;
 8008588:	bf00      	nop
 800858a:	e000      	b.n	800858e <HAL_UART_IRQHandler+0x34a>
      return;
 800858c:	bf00      	nop
  }
}
 800858e:	3728      	adds	r7, #40	; 0x28
 8008590:	46bd      	mov	sp, r7
 8008592:	bd80      	pop	{r7, pc}
 8008594:	0800863d 	.word	0x0800863d

08008598 <HAL_UART_TxCpltCallback>:
  * @param  huart  Pointer to a UART_HandleTypeDef structure that contains
  *                the configuration information for the specified UART module.
  * @retval None
  */
__weak void HAL_UART_TxCpltCallback(UART_HandleTypeDef *huart)
{
 8008598:	b480      	push	{r7}
 800859a:	b083      	sub	sp, #12
 800859c:	af00      	add	r7, sp, #0
 800859e:	6078      	str	r0, [r7, #4]
  /* Prevent unused argument(s) compilation warning */
  UNUSED(huart);
  /* NOTE: This function should not be modified, when the callback is needed,
           the HAL_UART_TxCpltCallback could be implemented in the user file
   */
}
 80085a0:	bf00      	nop
 80085a2:	370c      	adds	r7, #12
 80085a4:	46bd      	mov	sp, r7
 80085a6:	bc80      	pop	{r7}
 80085a8:	4770      	bx	lr

080085aa <HAL_UART_RxCpltCallback>:
  * @param  huart  Pointer to a UART_HandleTypeDef structure that contains
  *                the configuration information for the specified UART module.
  * @retval None
  */
__weak void HAL_UART_RxCpltCallback(UART_HandleTypeDef *huart)
{
 80085aa:	b480      	push	{r7}
 80085ac:	b083      	sub	sp, #12
 80085ae:	af00      	add	r7, sp, #0
 80085b0:	6078      	str	r0, [r7, #4]
  /* Prevent unused argument(s) compilation warning */
  UNUSED(huart);
  /* NOTE: This function should not be modified, when the callback is needed,
           the HAL_UART_RxCpltCallback could be implemented in the user file
   */
}
 80085b2:	bf00      	nop
 80085b4:	370c      	adds	r7, #12
 80085b6:	46bd      	mov	sp, r7
 80085b8:	bc80      	pop	{r7}
 80085ba:	4770      	bx	lr

080085bc <HAL_UART_ErrorCallback>:
  * @param  huart  Pointer to a UART_HandleTypeDef structure that contains
  *                the configuration information for the specified UART module.
  * @retval None
  */
__weak void HAL_UART_ErrorCallback(UART_HandleTypeDef *huart)
{
 80085bc:	b480      	push	{r7}
 80085be:	b083      	sub	sp, #12
 80085c0:	af00      	add	r7, sp, #0
 80085c2:	6078      	str	r0, [r7, #4]
  /* Prevent unused argument(s) compilation warning */
  UNUSED(huart);
  /* NOTE: This function should not be modified, when the callback is needed,
           the HAL_UART_ErrorCallback could be implemented in the user file
   */
}
 80085c4:	bf00      	nop
 80085c6:	370c      	adds	r7, #12
 80085c8:	46bd      	mov	sp, r7
 80085ca:	bc80      	pop	{r7}
 80085cc:	4770      	bx	lr

080085ce <HAL_UARTEx_RxEventCallback>:
  * @param  Size  Number of data available in application reception buffer (indicates a position in
  *               reception buffer until which, data are available)
  * @retval None
  */
__weak void HAL_UARTEx_RxEventCallback(UART_HandleTypeDef *huart, uint16_t Size)
{
 80085ce:	b480      	push	{r7}
 80085d0:	b083      	sub	sp, #12
 80085d2:	af00      	add	r7, sp, #0
 80085d4:	6078      	str	r0, [r7, #4]
 80085d6:	460b      	mov	r3, r1
 80085d8:	807b      	strh	r3, [r7, #2]
  UNUSED(Size);

  /* NOTE : This function should not be modified, when the callback is needed,
            the HAL_UARTEx_RxEventCallback can be implemented in the user file.
   */
}
 80085da:	bf00      	nop
 80085dc:	370c      	adds	r7, #12
 80085de:	46bd      	mov	sp, r7
 80085e0:	bc80      	pop	{r7}
 80085e2:	4770      	bx	lr

080085e4 <UART_EndRxTransfer>:
  * @brief  End ongoing Rx transfer on UART peripheral (following error detection or Reception completion).
  * @param  huart UART handle.
  * @retval None
  */
static void UART_EndRxTransfer(UART_HandleTypeDef *huart)
{
 80085e4:	b480      	push	{r7}
 80085e6:	b083      	sub	sp, #12
 80085e8:	af00      	add	r7, sp, #0
 80085ea:	6078      	str	r0, [r7, #4]
  /* Disable RXNE, PE and ERR (Frame error, noise error, overrun error) interrupts */
  CLEAR_BIT(huart->Instance->CR1, (USART_CR1_RXNEIE | USART_CR1_PEIE));
 80085ec:	687b      	ldr	r3, [r7, #4]
 80085ee:	681b      	ldr	r3, [r3, #0]
 80085f0:	68da      	ldr	r2, [r3, #12]
 80085f2:	687b      	ldr	r3, [r7, #4]
 80085f4:	681b      	ldr	r3, [r3, #0]
 80085f6:	f422 7290 	bic.w	r2, r2, #288	; 0x120
 80085fa:	60da      	str	r2, [r3, #12]
  CLEAR_BIT(huart->Instance->CR3, USART_CR3_EIE);
 80085fc:	687b      	ldr	r3, [r7, #4]
 80085fe:	681b      	ldr	r3, [r3, #0]
 8008600:	695a      	ldr	r2, [r3, #20]
 8008602:	687b      	ldr	r3, [r7, #4]
 8008604:	681b      	ldr	r3, [r3, #0]
 8008606:	f022 0201 	bic.w	r2, r2, #1
 800860a:	615a      	str	r2, [r3, #20]

  /* In case of reception waiting for IDLE event, disable also the IDLE IE interrupt source */
  if (huart->ReceptionType == HAL_UART_RECEPTION_TOIDLE)
 800860c:	687b      	ldr	r3, [r7, #4]
 800860e:	6b1b      	ldr	r3, [r3, #48]	; 0x30
 8008610:	2b01      	cmp	r3, #1
 8008612:	d107      	bne.n	8008624 <UART_EndRxTransfer+0x40>
  {
    CLEAR_BIT(huart->Instance->CR1, USART_CR1_IDLEIE);
 8008614:	687b      	ldr	r3, [r7, #4]
 8008616:	681b      	ldr	r3, [r3, #0]
 8008618:	68da      	ldr	r2, [r3, #12]
 800861a:	687b      	ldr	r3, [r7, #4]
 800861c:	681b      	ldr	r3, [r3, #0]
 800861e:	f022 0210 	bic.w	r2, r2, #16
 8008622:	60da      	str	r2, [r3, #12]
  }

  /* At end of Rx process, restore huart->RxState to Ready */
  huart->RxState = HAL_UART_STATE_READY;
 8008624:	687b      	ldr	r3, [r7, #4]
 8008626:	2220      	movs	r2, #32
 8008628:	f883 203e 	strb.w	r2, [r3, #62]	; 0x3e
  huart->ReceptionType = HAL_UART_RECEPTION_STANDARD;
 800862c:	687b      	ldr	r3, [r7, #4]
 800862e:	2200      	movs	r2, #0
 8008630:	631a      	str	r2, [r3, #48]	; 0x30
}
 8008632:	bf00      	nop
 8008634:	370c      	adds	r7, #12
 8008636:	46bd      	mov	sp, r7
 8008638:	bc80      	pop	{r7}
 800863a:	4770      	bx	lr

0800863c <UART_DMAAbortOnError>:
  * @param  hdma  Pointer to a DMA_HandleTypeDef structure that contains
  *               the configuration information for the specified DMA module.
  * @retval None
  */
static void UART_DMAAbortOnError(DMA_HandleTypeDef *hdma)
{
 800863c:	b580      	push	{r7, lr}
 800863e:	b084      	sub	sp, #16
 8008640:	af00      	add	r7, sp, #0
 8008642:	6078      	str	r0, [r7, #4]
  UART_HandleTypeDef *huart = (UART_HandleTypeDef *)((DMA_HandleTypeDef *)hdma)->Parent;
 8008644:	687b      	ldr	r3, [r7, #4]
 8008646:	6a5b      	ldr	r3, [r3, #36]	; 0x24
 8008648:	60fb      	str	r3, [r7, #12]
  huart->RxXferCount = 0x00U;
 800864a:	68fb      	ldr	r3, [r7, #12]
 800864c:	2200      	movs	r2, #0
 800864e:	85da      	strh	r2, [r3, #46]	; 0x2e
  huart->TxXferCount = 0x00U;
 8008650:	68fb      	ldr	r3, [r7, #12]
 8008652:	2200      	movs	r2, #0
 8008654:	84da      	strh	r2, [r3, #38]	; 0x26
#if (USE_HAL_UART_REGISTER_CALLBACKS == 1)
  /*Call registered error callback*/
  huart->ErrorCallback(huart);
#else
  /*Call legacy weak error callback*/
  HAL_UART_ErrorCallback(huart);
 8008656:	68f8      	ldr	r0, [r7, #12]
 8008658:	f7ff ffb0 	bl	80085bc <HAL_UART_ErrorCallback>
#endif /* USE_HAL_UART_REGISTER_CALLBACKS */
}
 800865c:	bf00      	nop
 800865e:	3710      	adds	r7, #16
 8008660:	46bd      	mov	sp, r7
 8008662:	bd80      	pop	{r7, pc}

08008664 <UART_Transmit_IT>:
  * @param  huart  Pointer to a UART_HandleTypeDef structure that contains
  *                the configuration information for the specified UART module.
  * @retval HAL status
  */
static HAL_StatusTypeDef UART_Transmit_IT(UART_HandleTypeDef *huart)
{
 8008664:	b480      	push	{r7}
 8008666:	b085      	sub	sp, #20
 8008668:	af00      	add	r7, sp, #0
 800866a:	6078      	str	r0, [r7, #4]
  uint16_t *tmp;

  /* Check that a Tx process is ongoing */
  if (huart->gState == HAL_UART_STATE_BUSY_TX)
 800866c:	687b      	ldr	r3, [r7, #4]
 800866e:	f893 303d 	ldrb.w	r3, [r3, #61]	; 0x3d
 8008672:	b2db      	uxtb	r3, r3
 8008674:	2b21      	cmp	r3, #33	; 0x21
 8008676:	d13e      	bne.n	80086f6 <UART_Transmit_IT+0x92>
  {
    if ((huart->Init.WordLength == UART_WORDLENGTH_9B) && (huart->Init.Parity == UART_PARITY_NONE))
 8008678:	687b      	ldr	r3, [r7, #4]
 800867a:	689b      	ldr	r3, [r3, #8]
 800867c:	f5b3 5f80 	cmp.w	r3, #4096	; 0x1000
 8008680:	d114      	bne.n	80086ac <UART_Transmit_IT+0x48>
 8008682:	687b      	ldr	r3, [r7, #4]
 8008684:	691b      	ldr	r3, [r3, #16]
 8008686:	2b00      	cmp	r3, #0
 8008688:	d110      	bne.n	80086ac <UART_Transmit_IT+0x48>
    {
      tmp = (uint16_t *) huart->pTxBuffPtr;
 800868a:	687b      	ldr	r3, [r7, #4]
 800868c:	6a1b      	ldr	r3, [r3, #32]
 800868e:	60fb      	str	r3, [r7, #12]
      huart->Instance->DR = (uint16_t)(*tmp & (uint16_t)0x01FF);
 8008690:	68fb      	ldr	r3, [r7, #12]
 8008692:	881b      	ldrh	r3, [r3, #0]
 8008694:	461a      	mov	r2, r3
 8008696:	687b      	ldr	r3, [r7, #4]
 8008698:	681b      	ldr	r3, [r3, #0]
 800869a:	f3c2 0208 	ubfx	r2, r2, #0, #9
 800869e:	605a      	str	r2, [r3, #4]
      huart->pTxBuffPtr += 2U;
 80086a0:	687b      	ldr	r3, [r7, #4]
 80086a2:	6a1b      	ldr	r3, [r3, #32]
 80086a4:	1c9a      	adds	r2, r3, #2
 80086a6:	687b      	ldr	r3, [r7, #4]
 80086a8:	621a      	str	r2, [r3, #32]
 80086aa:	e008      	b.n	80086be <UART_Transmit_IT+0x5a>
    }
    else
    {
      huart->Instance->DR = (uint8_t)(*huart->pTxBuffPtr++ & (uint8_t)0x00FF);
 80086ac:	687b      	ldr	r3, [r7, #4]
 80086ae:	6a1b      	ldr	r3, [r3, #32]
 80086b0:	1c59      	adds	r1, r3, #1
 80086b2:	687a      	ldr	r2, [r7, #4]
 80086b4:	6211      	str	r1, [r2, #32]
 80086b6:	781a      	ldrb	r2, [r3, #0]
 80086b8:	687b      	ldr	r3, [r7, #4]
 80086ba:	681b      	ldr	r3, [r3, #0]
 80086bc:	605a      	str	r2, [r3, #4]
    }

    if (--huart->TxXferCount == 0U)
 80086be:	687b      	ldr	r3, [r7, #4]
 80086c0:	8cdb      	ldrh	r3, [r3, #38]	; 0x26
 80086c2:	b29b      	uxth	r3, r3
 80086c4:	3b01      	subs	r3, #1
 80086c6:	b29b      	uxth	r3, r3
 80086c8:	687a      	ldr	r2, [r7, #4]
 80086ca:	4619      	mov	r1, r3
 80086cc:	84d1      	strh	r1, [r2, #38]	; 0x26
 80086ce:	2b00      	cmp	r3, #0
 80086d0:	d10f      	bne.n	80086f2 <UART_Transmit_IT+0x8e>
    {
      /* Disable the UART Transmit Complete Interrupt */
      __HAL_UART_DISABLE_IT(huart, UART_IT_TXE);
 80086d2:	687b      	ldr	r3, [r7, #4]
 80086d4:	681b      	ldr	r3, [r3, #0]
 80086d6:	68da      	ldr	r2, [r3, #12]
 80086d8:	687b      	ldr	r3, [r7, #4]
 80086da:	681b      	ldr	r3, [r3, #0]
 80086dc:	f022 0280 	bic.w	r2, r2, #128	; 0x80
 80086e0:	60da      	str	r2, [r3, #12]

      /* Enable the UART Transmit Complete Interrupt */
      __HAL_UART_ENABLE_IT(huart, UART_IT_TC);
 80086e2:	687b      	ldr	r3, [r7, #4]
 80086e4:	681b      	ldr	r3, [r3, #0]
 80086e6:	68da      	ldr	r2, [r3, #12]
 80086e8:	687b      	ldr	r3, [r7, #4]
 80086ea:	681b      	ldr	r3, [r3, #0]
 80086ec:	f042 0240 	orr.w	r2, r2, #64	; 0x40
 80086f0:	60da      	str	r2, [r3, #12]
    }
    return HAL_OK;
 80086f2:	2300      	movs	r3, #0
 80086f4:	e000      	b.n	80086f8 <UART_Transmit_IT+0x94>
  }
  else
  {
    return HAL_BUSY;
 80086f6:	2302      	movs	r3, #2
  }
}
 80086f8:	4618      	mov	r0, r3
 80086fa:	3714      	adds	r7, #20
 80086fc:	46bd      	mov	sp, r7
 80086fe:	bc80      	pop	{r7}
 8008700:	4770      	bx	lr

08008702 <UART_EndTransmit_IT>:
  * @param  huart  Pointer to a UART_HandleTypeDef structure that contains
  *                the configuration information for the specified UART module.
  * @retval HAL status
  */
static HAL_StatusTypeDef UART_EndTransmit_IT(UART_HandleTypeDef *huart)
{
 8008702:	b580      	push	{r7, lr}
 8008704:	b082      	sub	sp, #8
 8008706:	af00      	add	r7, sp, #0
 8008708:	6078      	str	r0, [r7, #4]
  /* Disable the UART Transmit Complete Interrupt */
  __HAL_UART_DISABLE_IT(huart, UART_IT_TC);
 800870a:	687b      	ldr	r3, [r7, #4]
 800870c:	681b      	ldr	r3, [r3, #0]
 800870e:	68da      	ldr	r2, [r3, #12]
 8008710:	687b      	ldr	r3, [r7, #4]
 8008712:	681b      	ldr	r3, [r3, #0]
 8008714:	f022 0240 	bic.w	r2, r2, #64	; 0x40
 8008718:	60da      	str	r2, [r3, #12]

  /* Tx process is ended, restore huart->gState to Ready */
  huart->gState = HAL_UART_STATE_READY;
 800871a:	687b      	ldr	r3, [r7, #4]
 800871c:	2220      	movs	r2, #32
 800871e:	f883 203d 	strb.w	r2, [r3, #61]	; 0x3d
#if (USE_HAL_UART_REGISTER_CALLBACKS == 1)
  /*Call registered Tx complete callback*/
  huart->TxCpltCallback(huart);
#else
  /*Call legacy weak Tx complete callback*/
  HAL_UART_TxCpltCallback(huart);
 8008722:	6878      	ldr	r0, [r7, #4]
 8008724:	f7ff ff38 	bl	8008598 <HAL_UART_TxCpltCallback>
#endif /* USE_HAL_UART_REGISTER_CALLBACKS */

  return HAL_OK;
 8008728:	2300      	movs	r3, #0
}
 800872a:	4618      	mov	r0, r3
 800872c:	3708      	adds	r7, #8
 800872e:	46bd      	mov	sp, r7
 8008730:	bd80      	pop	{r7, pc}

08008732 <UART_Receive_IT>:
  * @param  huart  Pointer to a UART_HandleTypeDef structure that contains
  *                the configuration information for the specified UART module.
  * @retval HAL status
  */
static HAL_StatusTypeDef UART_Receive_IT(UART_HandleTypeDef *huart)
{
 8008732:	b580      	push	{r7, lr}
 8008734:	b086      	sub	sp, #24
 8008736:	af00      	add	r7, sp, #0
 8008738:	6078      	str	r0, [r7, #4]
  uint8_t  *pdata8bits;
  uint16_t *pdata16bits;

  /* Check that a Rx process is ongoing */
  if (huart->RxState == HAL_UART_STATE_BUSY_RX)
 800873a:	687b      	ldr	r3, [r7, #4]
 800873c:	f893 303e 	ldrb.w	r3, [r3, #62]	; 0x3e
 8008740:	b2db      	uxtb	r3, r3
 8008742:	2b22      	cmp	r3, #34	; 0x22
 8008744:	f040 8099 	bne.w	800887a <UART_Receive_IT+0x148>
  {
    if ((huart->Init.WordLength == UART_WORDLENGTH_9B) && (huart->Init.Parity == UART_PARITY_NONE))
 8008748:	687b      	ldr	r3, [r7, #4]
 800874a:	689b      	ldr	r3, [r3, #8]
 800874c:	f5b3 5f80 	cmp.w	r3, #4096	; 0x1000
 8008750:	d117      	bne.n	8008782 <UART_Receive_IT+0x50>
 8008752:	687b      	ldr	r3, [r7, #4]
 8008754:	691b      	ldr	r3, [r3, #16]
 8008756:	2b00      	cmp	r3, #0
 8008758:	d113      	bne.n	8008782 <UART_Receive_IT+0x50>
    {
      pdata8bits  = NULL;
 800875a:	2300      	movs	r3, #0
 800875c:	617b      	str	r3, [r7, #20]
      pdata16bits = (uint16_t *) huart->pRxBuffPtr;
 800875e:	687b      	ldr	r3, [r7, #4]
 8008760:	6a9b      	ldr	r3, [r3, #40]	; 0x28
 8008762:	613b      	str	r3, [r7, #16]
      *pdata16bits = (uint16_t)(huart->Instance->DR & (uint16_t)0x01FF);
 8008764:	687b      	ldr	r3, [r7, #4]
 8008766:	681b      	ldr	r3, [r3, #0]
 8008768:	685b      	ldr	r3, [r3, #4]
 800876a:	b29b      	uxth	r3, r3
 800876c:	f3c3 0308 	ubfx	r3, r3, #0, #9
 8008770:	b29a      	uxth	r2, r3
 8008772:	693b      	ldr	r3, [r7, #16]
 8008774:	801a      	strh	r2, [r3, #0]
      huart->pRxBuffPtr += 2U;
 8008776:	687b      	ldr	r3, [r7, #4]
 8008778:	6a9b      	ldr	r3, [r3, #40]	; 0x28
 800877a:	1c9a      	adds	r2, r3, #2
 800877c:	687b      	ldr	r3, [r7, #4]
 800877e:	629a      	str	r2, [r3, #40]	; 0x28
 8008780:	e026      	b.n	80087d0 <UART_Receive_IT+0x9e>
    }
    else
    {
      pdata8bits = (uint8_t *) huart->pRxBuffPtr;
 8008782:	687b      	ldr	r3, [r7, #4]
 8008784:	6a9b      	ldr	r3, [r3, #40]	; 0x28
 8008786:	617b      	str	r3, [r7, #20]
      pdata16bits  = NULL;
 8008788:	2300      	movs	r3, #0
 800878a:	613b      	str	r3, [r7, #16]

      if ((huart->Init.WordLength == UART_WORDLENGTH_9B) || ((huart->Init.WordLength == UART_WORDLENGTH_8B) && (huart->Init.Parity == UART_PARITY_NONE)))
 800878c:	687b      	ldr	r3, [r7, #4]
 800878e:	689b      	ldr	r3, [r3, #8]
 8008790:	f5b3 5f80 	cmp.w	r3, #4096	; 0x1000
 8008794:	d007      	beq.n	80087a6 <UART_Receive_IT+0x74>
 8008796:	687b      	ldr	r3, [r7, #4]
 8008798:	689b      	ldr	r3, [r3, #8]
 800879a:	2b00      	cmp	r3, #0
 800879c:	d10a      	bne.n	80087b4 <UART_Receive_IT+0x82>
 800879e:	687b      	ldr	r3, [r7, #4]
 80087a0:	691b      	ldr	r3, [r3, #16]
 80087a2:	2b00      	cmp	r3, #0
 80087a4:	d106      	bne.n	80087b4 <UART_Receive_IT+0x82>
      {
        *pdata8bits = (uint8_t)(huart->Instance->DR & (uint8_t)0x00FF);
 80087a6:	687b      	ldr	r3, [r7, #4]
 80087a8:	681b      	ldr	r3, [r3, #0]
 80087aa:	685b      	ldr	r3, [r3, #4]
 80087ac:	b2da      	uxtb	r2, r3
 80087ae:	697b      	ldr	r3, [r7, #20]
 80087b0:	701a      	strb	r2, [r3, #0]
 80087b2:	e008      	b.n	80087c6 <UART_Receive_IT+0x94>
      }
      else
      {
        *pdata8bits = (uint8_t)(huart->Instance->DR & (uint8_t)0x007F);
 80087b4:	687b      	ldr	r3, [r7, #4]
 80087b6:	681b      	ldr	r3, [r3, #0]
 80087b8:	685b      	ldr	r3, [r3, #4]
 80087ba:	b2db      	uxtb	r3, r3
 80087bc:	f003 037f 	and.w	r3, r3, #127	; 0x7f
 80087c0:	b2da      	uxtb	r2, r3
 80087c2:	697b      	ldr	r3, [r7, #20]
 80087c4:	701a      	strb	r2, [r3, #0]
      }
      huart->pRxBuffPtr += 1U;
 80087c6:	687b      	ldr	r3, [r7, #4]
 80087c8:	6a9b      	ldr	r3, [r3, #40]	; 0x28
 80087ca:	1c5a      	adds	r2, r3, #1
 80087cc:	687b      	ldr	r3, [r7, #4]
 80087ce:	629a      	str	r2, [r3, #40]	; 0x28
    }

    if (--huart->RxXferCount == 0U)
 80087d0:	687b      	ldr	r3, [r7, #4]
 80087d2:	8ddb      	ldrh	r3, [r3, #46]	; 0x2e
 80087d4:	b29b      	uxth	r3, r3
 80087d6:	3b01      	subs	r3, #1
 80087d8:	b29b      	uxth	r3, r3
 80087da:	687a      	ldr	r2, [r7, #4]
 80087dc:	4619      	mov	r1, r3
 80087de:	85d1      	strh	r1, [r2, #46]	; 0x2e
 80087e0:	2b00      	cmp	r3, #0
 80087e2:	d148      	bne.n	8008876 <UART_Receive_IT+0x144>
    {
      /* Disable the UART Data Register not empty Interrupt */
      __HAL_UART_DISABLE_IT(huart, UART_IT_RXNE);
 80087e4:	687b      	ldr	r3, [r7, #4]
 80087e6:	681b      	ldr	r3, [r3, #0]
 80087e8:	68da      	ldr	r2, [r3, #12]
 80087ea:	687b      	ldr	r3, [r7, #4]
 80087ec:	681b      	ldr	r3, [r3, #0]
 80087ee:	f022 0220 	bic.w	r2, r2, #32
 80087f2:	60da      	str	r2, [r3, #12]

      /* Disable the UART Parity Error Interrupt */
      __HAL_UART_DISABLE_IT(huart, UART_IT_PE);
 80087f4:	687b      	ldr	r3, [r7, #4]
 80087f6:	681b      	ldr	r3, [r3, #0]
 80087f8:	68da      	ldr	r2, [r3, #12]
 80087fa:	687b      	ldr	r3, [r7, #4]
 80087fc:	681b      	ldr	r3, [r3, #0]
 80087fe:	f422 7280 	bic.w	r2, r2, #256	; 0x100
 8008802:	60da      	str	r2, [r3, #12]

      /* Disable the UART Error Interrupt: (Frame error, noise error, overrun error) */
      __HAL_UART_DISABLE_IT(huart, UART_IT_ERR);
 8008804:	687b      	ldr	r3, [r7, #4]
 8008806:	681b      	ldr	r3, [r3, #0]
 8008808:	695a      	ldr	r2, [r3, #20]
 800880a:	687b      	ldr	r3, [r7, #4]
 800880c:	681b      	ldr	r3, [r3, #0]
 800880e:	f022 0201 	bic.w	r2, r2, #1
 8008812:	615a      	str	r2, [r3, #20]

      /* Rx process is completed, restore huart->RxState to Ready */
      huart->RxState = HAL_UART_STATE_READY;
 8008814:	687b      	ldr	r3, [r7, #4]
 8008816:	2220      	movs	r2, #32
 8008818:	f883 203e 	strb.w	r2, [r3, #62]	; 0x3e

      /* Check current reception Mode :
         If Reception till IDLE event has been selected : */
      if (huart->ReceptionType == HAL_UART_RECEPTION_TOIDLE)
 800881c:	687b      	ldr	r3, [r7, #4]
 800881e:	6b1b      	ldr	r3, [r3, #48]	; 0x30
 8008820:	2b01      	cmp	r3, #1
 8008822:	d123      	bne.n	800886c <UART_Receive_IT+0x13a>
      {
        /* Set reception type to Standard */
        huart->ReceptionType = HAL_UART_RECEPTION_STANDARD;
 8008824:	687b      	ldr	r3, [r7, #4]
 8008826:	2200      	movs	r2, #0
 8008828:	631a      	str	r2, [r3, #48]	; 0x30

        /* Disable IDLE interrupt */
        CLEAR_BIT(huart->Instance->CR1, USART_CR1_IDLEIE);
 800882a:	687b      	ldr	r3, [r7, #4]
 800882c:	681b      	ldr	r3, [r3, #0]
 800882e:	68da      	ldr	r2, [r3, #12]
 8008830:	687b      	ldr	r3, [r7, #4]
 8008832:	681b      	ldr	r3, [r3, #0]
 8008834:	f022 0210 	bic.w	r2, r2, #16
 8008838:	60da      	str	r2, [r3, #12]

        /* Check if IDLE flag is set */
        if (__HAL_UART_GET_FLAG(huart, UART_FLAG_IDLE))
 800883a:	687b      	ldr	r3, [r7, #4]
 800883c:	681b      	ldr	r3, [r3, #0]
 800883e:	681b      	ldr	r3, [r3, #0]
 8008840:	f003 0310 	and.w	r3, r3, #16
 8008844:	2b10      	cmp	r3, #16
 8008846:	d10a      	bne.n	800885e <UART_Receive_IT+0x12c>
        {
          /* Clear IDLE flag in ISR */
          __HAL_UART_CLEAR_IDLEFLAG(huart);
 8008848:	2300      	movs	r3, #0
 800884a:	60fb      	str	r3, [r7, #12]
 800884c:	687b      	ldr	r3, [r7, #4]
 800884e:	681b      	ldr	r3, [r3, #0]
 8008850:	681b      	ldr	r3, [r3, #0]
 8008852:	60fb      	str	r3, [r7, #12]
 8008854:	687b      	ldr	r3, [r7, #4]
 8008856:	681b      	ldr	r3, [r3, #0]
 8008858:	685b      	ldr	r3, [r3, #4]
 800885a:	60fb      	str	r3, [r7, #12]
 800885c:	68fb      	ldr	r3, [r7, #12]
#if (USE_HAL_UART_REGISTER_CALLBACKS == 1)
        /*Call registered Rx Event callback*/
        huart->RxEventCallback(huart, huart->RxXferSize);
#else
        /*Call legacy weak Rx Event callback*/
        HAL_UARTEx_RxEventCallback(huart, huart->RxXferSize);
 800885e:	687b      	ldr	r3, [r7, #4]
 8008860:	8d9b      	ldrh	r3, [r3, #44]	; 0x2c
 8008862:	4619      	mov	r1, r3
 8008864:	6878      	ldr	r0, [r7, #4]
 8008866:	f7ff feb2 	bl	80085ce <HAL_UARTEx_RxEventCallback>
 800886a:	e002      	b.n	8008872 <UART_Receive_IT+0x140>
#if (USE_HAL_UART_REGISTER_CALLBACKS == 1)		  
       /*Call registered Rx complete callback*/
       huart->RxCpltCallback(huart);
#else
       /*Call legacy weak Rx complete callback*/
       HAL_UART_RxCpltCallback(huart);
 800886c:	6878      	ldr	r0, [r7, #4]
 800886e:	f7ff fe9c 	bl	80085aa <HAL_UART_RxCpltCallback>
#endif /* USE_HAL_UART_REGISTER_CALLBACKS */
      }

      return HAL_OK;
 8008872:	2300      	movs	r3, #0
 8008874:	e002      	b.n	800887c <UART_Receive_IT+0x14a>
    }
    return HAL_OK;
 8008876:	2300      	movs	r3, #0
 8008878:	e000      	b.n	800887c <UART_Receive_IT+0x14a>
  }
  else
  {
    return HAL_BUSY;
 800887a:	2302      	movs	r3, #2
  }
}
 800887c:	4618      	mov	r0, r3
 800887e:	3718      	adds	r7, #24
 8008880:	46bd      	mov	sp, r7
 8008882:	bd80      	pop	{r7, pc}

08008884 <UART_SetConfig>:
  * @param  huart  Pointer to a UART_HandleTypeDef structure that contains
  *                the configuration information for the specified UART module.
  * @retval None
  */
static void UART_SetConfig(UART_HandleTypeDef *huart)
{
 8008884:	b580      	push	{r7, lr}
 8008886:	b084      	sub	sp, #16
 8008888:	af00      	add	r7, sp, #0
 800888a:	6078      	str	r0, [r7, #4]
  assert_param(IS_UART_MODE(huart->Init.Mode));

  /*-------------------------- USART CR2 Configuration -----------------------*/
  /* Configure the UART Stop Bits: Set STOP[13:12] bits
     according to huart->Init.StopBits value */
  MODIFY_REG(huart->Instance->CR2, USART_CR2_STOP, huart->Init.StopBits);
 800888c:	687b      	ldr	r3, [r7, #4]
 800888e:	681b      	ldr	r3, [r3, #0]
 8008890:	691b      	ldr	r3, [r3, #16]
 8008892:	f423 5140 	bic.w	r1, r3, #12288	; 0x3000
 8008896:	687b      	ldr	r3, [r7, #4]
 8008898:	68da      	ldr	r2, [r3, #12]
 800889a:	687b      	ldr	r3, [r7, #4]
 800889c:	681b      	ldr	r3, [r3, #0]
 800889e:	430a      	orrs	r2, r1
 80088a0:	611a      	str	r2, [r3, #16]
  tmpreg = (uint32_t)huart->Init.WordLength | huart->Init.Parity | huart->Init.Mode | huart->Init.OverSampling;
  MODIFY_REG(huart->Instance->CR1,
             (uint32_t)(USART_CR1_M | USART_CR1_PCE | USART_CR1_PS | USART_CR1_TE | USART_CR1_RE | USART_CR1_OVER8),
             tmpreg);
#else
  tmpreg = (uint32_t)huart->Init.WordLength | huart->Init.Parity | huart->Init.Mode;
 80088a2:	687b      	ldr	r3, [r7, #4]
 80088a4:	689a      	ldr	r2, [r3, #8]
 80088a6:	687b      	ldr	r3, [r7, #4]
 80088a8:	691b      	ldr	r3, [r3, #16]
 80088aa:	431a      	orrs	r2, r3
 80088ac:	687b      	ldr	r3, [r7, #4]
 80088ae:	695b      	ldr	r3, [r3, #20]
 80088b0:	4313      	orrs	r3, r2
 80088b2:	60bb      	str	r3, [r7, #8]
  MODIFY_REG(huart->Instance->CR1,
 80088b4:	687b      	ldr	r3, [r7, #4]
 80088b6:	681b      	ldr	r3, [r3, #0]
 80088b8:	68db      	ldr	r3, [r3, #12]
 80088ba:	f423 53b0 	bic.w	r3, r3, #5632	; 0x1600
 80088be:	f023 030c 	bic.w	r3, r3, #12
 80088c2:	687a      	ldr	r2, [r7, #4]
 80088c4:	6812      	ldr	r2, [r2, #0]
 80088c6:	68b9      	ldr	r1, [r7, #8]
 80088c8:	430b      	orrs	r3, r1
 80088ca:	60d3      	str	r3, [r2, #12]
             tmpreg);
#endif /* USART_CR1_OVER8 */

  /*-------------------------- USART CR3 Configuration -----------------------*/
  /* Configure the UART HFC: Set CTSE and RTSE bits according to huart->Init.HwFlowCtl value */
  MODIFY_REG(huart->Instance->CR3, (USART_CR3_RTSE | USART_CR3_CTSE), huart->Init.HwFlowCtl);
 80088cc:	687b      	ldr	r3, [r7, #4]
 80088ce:	681b      	ldr	r3, [r3, #0]
 80088d0:	695b      	ldr	r3, [r3, #20]
 80088d2:	f423 7140 	bic.w	r1, r3, #768	; 0x300
 80088d6:	687b      	ldr	r3, [r7, #4]
 80088d8:	699a      	ldr	r2, [r3, #24]
 80088da:	687b      	ldr	r3, [r7, #4]
 80088dc:	681b      	ldr	r3, [r3, #0]
 80088de:	430a      	orrs	r2, r1
 80088e0:	615a      	str	r2, [r3, #20]


  if(huart->Instance == USART1)
 80088e2:	687b      	ldr	r3, [r7, #4]
 80088e4:	681b      	ldr	r3, [r3, #0]
 80088e6:	4a2c      	ldr	r2, [pc, #176]	; (8008998 <UART_SetConfig+0x114>)
 80088e8:	4293      	cmp	r3, r2
 80088ea:	d103      	bne.n	80088f4 <UART_SetConfig+0x70>
  {
    pclk = HAL_RCC_GetPCLK2Freq();
 80088ec:	f7fe fe6a 	bl	80075c4 <HAL_RCC_GetPCLK2Freq>
 80088f0:	60f8      	str	r0, [r7, #12]
 80088f2:	e002      	b.n	80088fa <UART_SetConfig+0x76>
  }
  else
  {
    pclk = HAL_RCC_GetPCLK1Freq();
 80088f4:	f7fe fe52 	bl	800759c <HAL_RCC_GetPCLK1Freq>
 80088f8:	60f8      	str	r0, [r7, #12]
  else
  {
    huart->Instance->BRR = UART_BRR_SAMPLING16(pclk, huart->Init.BaudRate);
  }
#else
  huart->Instance->BRR = UART_BRR_SAMPLING16(pclk, huart->Init.BaudRate);
 80088fa:	68fa      	ldr	r2, [r7, #12]
 80088fc:	4613      	mov	r3, r2
 80088fe:	009b      	lsls	r3, r3, #2
 8008900:	4413      	add	r3, r2
 8008902:	009a      	lsls	r2, r3, #2
 8008904:	441a      	add	r2, r3
 8008906:	687b      	ldr	r3, [r7, #4]
 8008908:	685b      	ldr	r3, [r3, #4]
 800890a:	009b      	lsls	r3, r3, #2
 800890c:	fbb2 f3f3 	udiv	r3, r2, r3
 8008910:	4a22      	ldr	r2, [pc, #136]	; (800899c <UART_SetConfig+0x118>)
 8008912:	fba2 2303 	umull	r2, r3, r2, r3
 8008916:	095b      	lsrs	r3, r3, #5
 8008918:	0119      	lsls	r1, r3, #4
 800891a:	68fa      	ldr	r2, [r7, #12]
 800891c:	4613      	mov	r3, r2
 800891e:	009b      	lsls	r3, r3, #2
 8008920:	4413      	add	r3, r2
 8008922:	009a      	lsls	r2, r3, #2
 8008924:	441a      	add	r2, r3
 8008926:	687b      	ldr	r3, [r7, #4]
 8008928:	685b      	ldr	r3, [r3, #4]
 800892a:	009b      	lsls	r3, r3, #2
 800892c:	fbb2 f2f3 	udiv	r2, r2, r3
 8008930:	4b1a      	ldr	r3, [pc, #104]	; (800899c <UART_SetConfig+0x118>)
 8008932:	fba3 0302 	umull	r0, r3, r3, r2
 8008936:	095b      	lsrs	r3, r3, #5
 8008938:	2064      	movs	r0, #100	; 0x64
 800893a:	fb00 f303 	mul.w	r3, r0, r3
 800893e:	1ad3      	subs	r3, r2, r3
 8008940:	011b      	lsls	r3, r3, #4
 8008942:	3332      	adds	r3, #50	; 0x32
 8008944:	4a15      	ldr	r2, [pc, #84]	; (800899c <UART_SetConfig+0x118>)
 8008946:	fba2 2303 	umull	r2, r3, r2, r3
 800894a:	095b      	lsrs	r3, r3, #5
 800894c:	f003 03f0 	and.w	r3, r3, #240	; 0xf0
 8008950:	4419      	add	r1, r3
 8008952:	68fa      	ldr	r2, [r7, #12]
 8008954:	4613      	mov	r3, r2
 8008956:	009b      	lsls	r3, r3, #2
 8008958:	4413      	add	r3, r2
 800895a:	009a      	lsls	r2, r3, #2
 800895c:	441a      	add	r2, r3
 800895e:	687b      	ldr	r3, [r7, #4]
 8008960:	685b      	ldr	r3, [r3, #4]
 8008962:	009b      	lsls	r3, r3, #2
 8008964:	fbb2 f2f3 	udiv	r2, r2, r3
 8008968:	4b0c      	ldr	r3, [pc, #48]	; (800899c <UART_SetConfig+0x118>)
 800896a:	fba3 0302 	umull	r0, r3, r3, r2
 800896e:	095b      	lsrs	r3, r3, #5
 8008970:	2064      	movs	r0, #100	; 0x64
 8008972:	fb00 f303 	mul.w	r3, r0, r3
 8008976:	1ad3      	subs	r3, r2, r3
 8008978:	011b      	lsls	r3, r3, #4
 800897a:	3332      	adds	r3, #50	; 0x32
 800897c:	4a07      	ldr	r2, [pc, #28]	; (800899c <UART_SetConfig+0x118>)
 800897e:	fba2 2303 	umull	r2, r3, r2, r3
 8008982:	095b      	lsrs	r3, r3, #5
 8008984:	f003 020f 	and.w	r2, r3, #15
 8008988:	687b      	ldr	r3, [r7, #4]
 800898a:	681b      	ldr	r3, [r3, #0]
 800898c:	440a      	add	r2, r1
 800898e:	609a      	str	r2, [r3, #8]
#endif /* USART_CR1_OVER8 */
}
 8008990:	bf00      	nop
 8008992:	3710      	adds	r7, #16
 8008994:	46bd      	mov	sp, r7
 8008996:	bd80      	pop	{r7, pc}
 8008998:	40013800 	.word	0x40013800
 800899c:	51eb851f 	.word	0x51eb851f

080089a0 <__libc_init_array>:
 80089a0:	b570      	push	{r4, r5, r6, lr}
 80089a2:	2600      	movs	r6, #0
 80089a4:	4d0c      	ldr	r5, [pc, #48]	; (80089d8 <__libc_init_array+0x38>)
 80089a6:	4c0d      	ldr	r4, [pc, #52]	; (80089dc <__libc_init_array+0x3c>)
 80089a8:	1b64      	subs	r4, r4, r5
 80089aa:	10a4      	asrs	r4, r4, #2
 80089ac:	42a6      	cmp	r6, r4
 80089ae:	d109      	bne.n	80089c4 <__libc_init_array+0x24>
 80089b0:	f000 f822 	bl	80089f8 <_init>
 80089b4:	2600      	movs	r6, #0
 80089b6:	4d0a      	ldr	r5, [pc, #40]	; (80089e0 <__libc_init_array+0x40>)
 80089b8:	4c0a      	ldr	r4, [pc, #40]	; (80089e4 <__libc_init_array+0x44>)
 80089ba:	1b64      	subs	r4, r4, r5
 80089bc:	10a4      	asrs	r4, r4, #2
 80089be:	42a6      	cmp	r6, r4
 80089c0:	d105      	bne.n	80089ce <__libc_init_array+0x2e>
 80089c2:	bd70      	pop	{r4, r5, r6, pc}
 80089c4:	f855 3b04 	ldr.w	r3, [r5], #4
 80089c8:	4798      	blx	r3
 80089ca:	3601      	adds	r6, #1
 80089cc:	e7ee      	b.n	80089ac <__libc_init_array+0xc>
 80089ce:	f855 3b04 	ldr.w	r3, [r5], #4
 80089d2:	4798      	blx	r3
 80089d4:	3601      	adds	r6, #1
 80089d6:	e7f2      	b.n	80089be <__libc_init_array+0x1e>
 80089d8:	0800ad40 	.word	0x0800ad40
 80089dc:	0800ad40 	.word	0x0800ad40
 80089e0:	0800ad40 	.word	0x0800ad40
 80089e4:	0800ad44 	.word	0x0800ad44

080089e8 <memset>:
 80089e8:	4603      	mov	r3, r0
 80089ea:	4402      	add	r2, r0
 80089ec:	4293      	cmp	r3, r2
 80089ee:	d100      	bne.n	80089f2 <memset+0xa>
 80089f0:	4770      	bx	lr
 80089f2:	f803 1b01 	strb.w	r1, [r3], #1
 80089f6:	e7f9      	b.n	80089ec <memset+0x4>

080089f8 <_init>:
 80089f8:	b5f8      	push	{r3, r4, r5, r6, r7, lr}
 80089fa:	bf00      	nop
 80089fc:	bcf8      	pop	{r3, r4, r5, r6, r7}
 80089fe:	bc08      	pop	{r3}
 8008a00:	469e      	mov	lr, r3
 8008a02:	4770      	bx	lr

08008a04 <_fini>:
 8008a04:	b5f8      	push	{r3, r4, r5, r6, r7, lr}
 8008a06:	bf00      	nop
 8008a08:	bcf8      	pop	{r3, r4, r5, r6, r7}
 8008a0a:	bc08      	pop	{r3}
 8008a0c:	469e      	mov	lr, r3
 8008a0e:	4770      	bx	lr
